ARM GAS  C:\Users\kingi\AppData\Local\Temp\cc1P2O1v.s 			page 1


   1              		.syntax unified
   2              		.cpu cortex-m3
   3              		.fpu softvfp
   4              		.eabi_attribute 20, 1
   5              		.eabi_attribute 21, 1
   6              		.eabi_attribute 23, 3
   7              		.eabi_attribute 24, 1
   8              		.eabi_attribute 25, 1
   9              		.eabi_attribute 26, 1
  10              		.eabi_attribute 30, 6
  11              		.eabi_attribute 34, 1
  12              		.eabi_attribute 18, 4
  13              		.thumb
  14              		.file	"UART_3_INT.c"
  15              		.text
  16              	.Ltext0:
  17              		.cfi_sections	.debug_frame
  18              		.section	.text.UART_3_TXISR,"ax",%progbits
  19              		.align	2
  20              		.global	UART_3_TXISR
  21              		.thumb
  22              		.thumb_func
  23              		.type	UART_3_TXISR, %function
  24              	UART_3_TXISR:
  25              	.LFB0:
  26              		.file 1 ".\\Generated_Source\\PSoC5\\UART_3_INT.c"
   1:.\Generated_Source\PSoC5/UART_3_INT.c **** /*******************************************************************************
   2:.\Generated_Source\PSoC5/UART_3_INT.c **** * File Name: UART_3INT.c
   3:.\Generated_Source\PSoC5/UART_3_INT.c **** * Version 2.50
   4:.\Generated_Source\PSoC5/UART_3_INT.c **** *
   5:.\Generated_Source\PSoC5/UART_3_INT.c **** * Description:
   6:.\Generated_Source\PSoC5/UART_3_INT.c **** *  This file provides all Interrupt Service functionality of the UART component
   7:.\Generated_Source\PSoC5/UART_3_INT.c **** *
   8:.\Generated_Source\PSoC5/UART_3_INT.c **** ********************************************************************************
   9:.\Generated_Source\PSoC5/UART_3_INT.c **** * Copyright 2008-2015, Cypress Semiconductor Corporation.  All rights reserved.
  10:.\Generated_Source\PSoC5/UART_3_INT.c **** * You may use this file only in accordance with the license, terms, conditions,
  11:.\Generated_Source\PSoC5/UART_3_INT.c **** * disclaimers, and limitations in the end user license agreement accompanying
  12:.\Generated_Source\PSoC5/UART_3_INT.c **** * the software package with which this file was provided.
  13:.\Generated_Source\PSoC5/UART_3_INT.c **** *******************************************************************************/
  14:.\Generated_Source\PSoC5/UART_3_INT.c **** 
  15:.\Generated_Source\PSoC5/UART_3_INT.c **** #include "UART_3.h"
  16:.\Generated_Source\PSoC5/UART_3_INT.c **** #include "cyapicallbacks.h"
  17:.\Generated_Source\PSoC5/UART_3_INT.c **** 
  18:.\Generated_Source\PSoC5/UART_3_INT.c **** 
  19:.\Generated_Source\PSoC5/UART_3_INT.c **** /***************************************
  20:.\Generated_Source\PSoC5/UART_3_INT.c **** * Custom Declarations
  21:.\Generated_Source\PSoC5/UART_3_INT.c **** ***************************************/
  22:.\Generated_Source\PSoC5/UART_3_INT.c **** /* `#START CUSTOM_DECLARATIONS` Place your declaration here */
  23:.\Generated_Source\PSoC5/UART_3_INT.c **** 
  24:.\Generated_Source\PSoC5/UART_3_INT.c **** /* `#END` */
  25:.\Generated_Source\PSoC5/UART_3_INT.c **** 
  26:.\Generated_Source\PSoC5/UART_3_INT.c **** #if (UART_3_RX_INTERRUPT_ENABLED && (UART_3_RX_ENABLED || UART_3_HD_ENABLED))
  27:.\Generated_Source\PSoC5/UART_3_INT.c ****     /*******************************************************************************
  28:.\Generated_Source\PSoC5/UART_3_INT.c ****     * Function Name: UART_3_RXISR
  29:.\Generated_Source\PSoC5/UART_3_INT.c ****     ********************************************************************************
  30:.\Generated_Source\PSoC5/UART_3_INT.c ****     *
  31:.\Generated_Source\PSoC5/UART_3_INT.c ****     * Summary:
ARM GAS  C:\Users\kingi\AppData\Local\Temp\cc1P2O1v.s 			page 2


  32:.\Generated_Source\PSoC5/UART_3_INT.c ****     *  Interrupt Service Routine for RX portion of the UART
  33:.\Generated_Source\PSoC5/UART_3_INT.c ****     *
  34:.\Generated_Source\PSoC5/UART_3_INT.c ****     * Parameters:
  35:.\Generated_Source\PSoC5/UART_3_INT.c ****     *  None.
  36:.\Generated_Source\PSoC5/UART_3_INT.c ****     *
  37:.\Generated_Source\PSoC5/UART_3_INT.c ****     * Return:
  38:.\Generated_Source\PSoC5/UART_3_INT.c ****     *  None.
  39:.\Generated_Source\PSoC5/UART_3_INT.c ****     *
  40:.\Generated_Source\PSoC5/UART_3_INT.c ****     * Global Variables:
  41:.\Generated_Source\PSoC5/UART_3_INT.c ****     *  UART_3_rxBuffer - RAM buffer pointer for save received data.
  42:.\Generated_Source\PSoC5/UART_3_INT.c ****     *  UART_3_rxBufferWrite - cyclic index for write to rxBuffer,
  43:.\Generated_Source\PSoC5/UART_3_INT.c ****     *     increments after each byte saved to buffer.
  44:.\Generated_Source\PSoC5/UART_3_INT.c ****     *  UART_3_rxBufferRead - cyclic index for read from rxBuffer,
  45:.\Generated_Source\PSoC5/UART_3_INT.c ****     *     checked to detect overflow condition.
  46:.\Generated_Source\PSoC5/UART_3_INT.c ****     *  UART_3_rxBufferOverflow - software overflow flag. Set to one
  47:.\Generated_Source\PSoC5/UART_3_INT.c ****     *     when UART_3_rxBufferWrite index overtakes
  48:.\Generated_Source\PSoC5/UART_3_INT.c ****     *     UART_3_rxBufferRead index.
  49:.\Generated_Source\PSoC5/UART_3_INT.c ****     *  UART_3_rxBufferLoopDetect - additional variable to detect overflow.
  50:.\Generated_Source\PSoC5/UART_3_INT.c ****     *     Set to one when UART_3_rxBufferWrite is equal to
  51:.\Generated_Source\PSoC5/UART_3_INT.c ****     *    UART_3_rxBufferRead
  52:.\Generated_Source\PSoC5/UART_3_INT.c ****     *  UART_3_rxAddressMode - this variable contains the Address mode,
  53:.\Generated_Source\PSoC5/UART_3_INT.c ****     *     selected in customizer or set by UART_SetRxAddressMode() API.
  54:.\Generated_Source\PSoC5/UART_3_INT.c ****     *  UART_3_rxAddressDetected - set to 1 when correct address received,
  55:.\Generated_Source\PSoC5/UART_3_INT.c ****     *     and analysed to store following addressed data bytes to the buffer.
  56:.\Generated_Source\PSoC5/UART_3_INT.c ****     *     When not correct address received, set to 0 to skip following data bytes.
  57:.\Generated_Source\PSoC5/UART_3_INT.c ****     *
  58:.\Generated_Source\PSoC5/UART_3_INT.c ****     *******************************************************************************/
  59:.\Generated_Source\PSoC5/UART_3_INT.c ****     CY_ISR(UART_3_RXISR)
  60:.\Generated_Source\PSoC5/UART_3_INT.c ****     {
  61:.\Generated_Source\PSoC5/UART_3_INT.c ****         uint8 readData;
  62:.\Generated_Source\PSoC5/UART_3_INT.c ****         uint8 readStatus;
  63:.\Generated_Source\PSoC5/UART_3_INT.c ****         uint8 increment_pointer = 0u;
  64:.\Generated_Source\PSoC5/UART_3_INT.c **** 
  65:.\Generated_Source\PSoC5/UART_3_INT.c ****     #if(CY_PSOC3)
  66:.\Generated_Source\PSoC5/UART_3_INT.c ****         uint8 int_en;
  67:.\Generated_Source\PSoC5/UART_3_INT.c ****     #endif /* (CY_PSOC3) */
  68:.\Generated_Source\PSoC5/UART_3_INT.c **** 
  69:.\Generated_Source\PSoC5/UART_3_INT.c ****     #ifdef UART_3_RXISR_ENTRY_CALLBACK
  70:.\Generated_Source\PSoC5/UART_3_INT.c ****         UART_3_RXISR_EntryCallback();
  71:.\Generated_Source\PSoC5/UART_3_INT.c ****     #endif /* UART_3_RXISR_ENTRY_CALLBACK */
  72:.\Generated_Source\PSoC5/UART_3_INT.c **** 
  73:.\Generated_Source\PSoC5/UART_3_INT.c ****         /* User code required at start of ISR */
  74:.\Generated_Source\PSoC5/UART_3_INT.c ****         /* `#START UART_3_RXISR_START` */
  75:.\Generated_Source\PSoC5/UART_3_INT.c **** 
  76:.\Generated_Source\PSoC5/UART_3_INT.c ****         /* `#END` */
  77:.\Generated_Source\PSoC5/UART_3_INT.c **** 
  78:.\Generated_Source\PSoC5/UART_3_INT.c ****     #if(CY_PSOC3)   /* Make sure nested interrupt is enabled */
  79:.\Generated_Source\PSoC5/UART_3_INT.c ****         int_en = EA;
  80:.\Generated_Source\PSoC5/UART_3_INT.c ****         CyGlobalIntEnable;
  81:.\Generated_Source\PSoC5/UART_3_INT.c ****     #endif /* (CY_PSOC3) */
  82:.\Generated_Source\PSoC5/UART_3_INT.c **** 
  83:.\Generated_Source\PSoC5/UART_3_INT.c ****         do
  84:.\Generated_Source\PSoC5/UART_3_INT.c ****         {
  85:.\Generated_Source\PSoC5/UART_3_INT.c ****             /* Read receiver status register */
  86:.\Generated_Source\PSoC5/UART_3_INT.c ****             readStatus = UART_3_RXSTATUS_REG;
  87:.\Generated_Source\PSoC5/UART_3_INT.c ****             /* Copy the same status to readData variable for backward compatibility support 
  88:.\Generated_Source\PSoC5/UART_3_INT.c ****             *  of the user code in UART_3_RXISR_ERROR` section. 
ARM GAS  C:\Users\kingi\AppData\Local\Temp\cc1P2O1v.s 			page 3


  89:.\Generated_Source\PSoC5/UART_3_INT.c ****             */
  90:.\Generated_Source\PSoC5/UART_3_INT.c ****             readData = readStatus;
  91:.\Generated_Source\PSoC5/UART_3_INT.c **** 
  92:.\Generated_Source\PSoC5/UART_3_INT.c ****             if((readStatus & (UART_3_RX_STS_BREAK | 
  93:.\Generated_Source\PSoC5/UART_3_INT.c ****                             UART_3_RX_STS_PAR_ERROR |
  94:.\Generated_Source\PSoC5/UART_3_INT.c ****                             UART_3_RX_STS_STOP_ERROR | 
  95:.\Generated_Source\PSoC5/UART_3_INT.c ****                             UART_3_RX_STS_OVERRUN)) != 0u)
  96:.\Generated_Source\PSoC5/UART_3_INT.c ****             {
  97:.\Generated_Source\PSoC5/UART_3_INT.c ****                 /* ERROR handling. */
  98:.\Generated_Source\PSoC5/UART_3_INT.c ****                 UART_3_errorStatus |= readStatus & ( UART_3_RX_STS_BREAK | 
  99:.\Generated_Source\PSoC5/UART_3_INT.c ****                                                             UART_3_RX_STS_PAR_ERROR | 
 100:.\Generated_Source\PSoC5/UART_3_INT.c ****                                                             UART_3_RX_STS_STOP_ERROR | 
 101:.\Generated_Source\PSoC5/UART_3_INT.c ****                                                             UART_3_RX_STS_OVERRUN);
 102:.\Generated_Source\PSoC5/UART_3_INT.c ****                 /* `#START UART_3_RXISR_ERROR` */
 103:.\Generated_Source\PSoC5/UART_3_INT.c **** 
 104:.\Generated_Source\PSoC5/UART_3_INT.c ****                 /* `#END` */
 105:.\Generated_Source\PSoC5/UART_3_INT.c ****                 
 106:.\Generated_Source\PSoC5/UART_3_INT.c ****             #ifdef UART_3_RXISR_ERROR_CALLBACK
 107:.\Generated_Source\PSoC5/UART_3_INT.c ****                 UART_3_RXISR_ERROR_Callback();
 108:.\Generated_Source\PSoC5/UART_3_INT.c ****             #endif /* UART_3_RXISR_ERROR_CALLBACK */
 109:.\Generated_Source\PSoC5/UART_3_INT.c ****             }
 110:.\Generated_Source\PSoC5/UART_3_INT.c ****             
 111:.\Generated_Source\PSoC5/UART_3_INT.c ****             if((readStatus & UART_3_RX_STS_FIFO_NOTEMPTY) != 0u)
 112:.\Generated_Source\PSoC5/UART_3_INT.c ****             {
 113:.\Generated_Source\PSoC5/UART_3_INT.c ****                 /* Read data from the RX data register */
 114:.\Generated_Source\PSoC5/UART_3_INT.c ****                 readData = UART_3_RXDATA_REG;
 115:.\Generated_Source\PSoC5/UART_3_INT.c ****             #if (UART_3_RXHW_ADDRESS_ENABLED)
 116:.\Generated_Source\PSoC5/UART_3_INT.c ****                 if(UART_3_rxAddressMode == (uint8)UART_3__B_UART__AM_SW_DETECT_TO_BUFFER)
 117:.\Generated_Source\PSoC5/UART_3_INT.c ****                 {
 118:.\Generated_Source\PSoC5/UART_3_INT.c ****                     if((readStatus & UART_3_RX_STS_MRKSPC) != 0u)
 119:.\Generated_Source\PSoC5/UART_3_INT.c ****                     {
 120:.\Generated_Source\PSoC5/UART_3_INT.c ****                         if ((readStatus & UART_3_RX_STS_ADDR_MATCH) != 0u)
 121:.\Generated_Source\PSoC5/UART_3_INT.c ****                         {
 122:.\Generated_Source\PSoC5/UART_3_INT.c ****                             UART_3_rxAddressDetected = 1u;
 123:.\Generated_Source\PSoC5/UART_3_INT.c ****                         }
 124:.\Generated_Source\PSoC5/UART_3_INT.c ****                         else
 125:.\Generated_Source\PSoC5/UART_3_INT.c ****                         {
 126:.\Generated_Source\PSoC5/UART_3_INT.c ****                             UART_3_rxAddressDetected = 0u;
 127:.\Generated_Source\PSoC5/UART_3_INT.c ****                         }
 128:.\Generated_Source\PSoC5/UART_3_INT.c ****                     }
 129:.\Generated_Source\PSoC5/UART_3_INT.c ****                     if(UART_3_rxAddressDetected != 0u)
 130:.\Generated_Source\PSoC5/UART_3_INT.c ****                     {   /* Store only addressed data */
 131:.\Generated_Source\PSoC5/UART_3_INT.c ****                         UART_3_rxBuffer[UART_3_rxBufferWrite] = readData;
 132:.\Generated_Source\PSoC5/UART_3_INT.c ****                         increment_pointer = 1u;
 133:.\Generated_Source\PSoC5/UART_3_INT.c ****                     }
 134:.\Generated_Source\PSoC5/UART_3_INT.c ****                 }
 135:.\Generated_Source\PSoC5/UART_3_INT.c ****                 else /* Without software addressing */
 136:.\Generated_Source\PSoC5/UART_3_INT.c ****                 {
 137:.\Generated_Source\PSoC5/UART_3_INT.c ****                     UART_3_rxBuffer[UART_3_rxBufferWrite] = readData;
 138:.\Generated_Source\PSoC5/UART_3_INT.c ****                     increment_pointer = 1u;
 139:.\Generated_Source\PSoC5/UART_3_INT.c ****                 }
 140:.\Generated_Source\PSoC5/UART_3_INT.c ****             #else  /* Without addressing */
 141:.\Generated_Source\PSoC5/UART_3_INT.c ****                 UART_3_rxBuffer[UART_3_rxBufferWrite] = readData;
 142:.\Generated_Source\PSoC5/UART_3_INT.c ****                 increment_pointer = 1u;
 143:.\Generated_Source\PSoC5/UART_3_INT.c ****             #endif /* (UART_3_RXHW_ADDRESS_ENABLED) */
 144:.\Generated_Source\PSoC5/UART_3_INT.c **** 
 145:.\Generated_Source\PSoC5/UART_3_INT.c ****                 /* Do not increment buffer pointer when skip not addressed data */
ARM GAS  C:\Users\kingi\AppData\Local\Temp\cc1P2O1v.s 			page 4


 146:.\Generated_Source\PSoC5/UART_3_INT.c ****                 if(increment_pointer != 0u)
 147:.\Generated_Source\PSoC5/UART_3_INT.c ****                 {
 148:.\Generated_Source\PSoC5/UART_3_INT.c ****                     if(UART_3_rxBufferLoopDetect != 0u)
 149:.\Generated_Source\PSoC5/UART_3_INT.c ****                     {   /* Set Software Buffer status Overflow */
 150:.\Generated_Source\PSoC5/UART_3_INT.c ****                         UART_3_rxBufferOverflow = 1u;
 151:.\Generated_Source\PSoC5/UART_3_INT.c ****                     }
 152:.\Generated_Source\PSoC5/UART_3_INT.c ****                     /* Set next pointer. */
 153:.\Generated_Source\PSoC5/UART_3_INT.c ****                     UART_3_rxBufferWrite++;
 154:.\Generated_Source\PSoC5/UART_3_INT.c **** 
 155:.\Generated_Source\PSoC5/UART_3_INT.c ****                     /* Check pointer for a loop condition */
 156:.\Generated_Source\PSoC5/UART_3_INT.c ****                     if(UART_3_rxBufferWrite >= UART_3_RX_BUFFER_SIZE)
 157:.\Generated_Source\PSoC5/UART_3_INT.c ****                     {
 158:.\Generated_Source\PSoC5/UART_3_INT.c ****                         UART_3_rxBufferWrite = 0u;
 159:.\Generated_Source\PSoC5/UART_3_INT.c ****                     }
 160:.\Generated_Source\PSoC5/UART_3_INT.c **** 
 161:.\Generated_Source\PSoC5/UART_3_INT.c ****                     /* Detect pre-overload condition and set flag */
 162:.\Generated_Source\PSoC5/UART_3_INT.c ****                     if(UART_3_rxBufferWrite == UART_3_rxBufferRead)
 163:.\Generated_Source\PSoC5/UART_3_INT.c ****                     {
 164:.\Generated_Source\PSoC5/UART_3_INT.c ****                         UART_3_rxBufferLoopDetect = 1u;
 165:.\Generated_Source\PSoC5/UART_3_INT.c ****                         /* When Hardware Flow Control selected */
 166:.\Generated_Source\PSoC5/UART_3_INT.c ****                         #if (UART_3_FLOW_CONTROL != 0u)
 167:.\Generated_Source\PSoC5/UART_3_INT.c ****                             /* Disable RX interrupt mask, it is enabled when user read data from th
 168:.\Generated_Source\PSoC5/UART_3_INT.c ****                             UART_3_RXSTATUS_MASK_REG  &= (uint8)~UART_3_RX_STS_FIFO_NOTEMPTY;
 169:.\Generated_Source\PSoC5/UART_3_INT.c ****                             CyIntClearPending(UART_3_RX_VECT_NUM);
 170:.\Generated_Source\PSoC5/UART_3_INT.c ****                             break; /* Break the reading of the FIFO loop, leave the data there for 
 171:.\Generated_Source\PSoC5/UART_3_INT.c ****                         #endif /* (UART_3_FLOW_CONTROL != 0u) */
 172:.\Generated_Source\PSoC5/UART_3_INT.c ****                     }
 173:.\Generated_Source\PSoC5/UART_3_INT.c ****                 }
 174:.\Generated_Source\PSoC5/UART_3_INT.c ****             }
 175:.\Generated_Source\PSoC5/UART_3_INT.c ****         }while((readStatus & UART_3_RX_STS_FIFO_NOTEMPTY) != 0u);
 176:.\Generated_Source\PSoC5/UART_3_INT.c **** 
 177:.\Generated_Source\PSoC5/UART_3_INT.c ****         /* User code required at end of ISR (Optional) */
 178:.\Generated_Source\PSoC5/UART_3_INT.c ****         /* `#START UART_3_RXISR_END` */
 179:.\Generated_Source\PSoC5/UART_3_INT.c **** 
 180:.\Generated_Source\PSoC5/UART_3_INT.c ****         /* `#END` */
 181:.\Generated_Source\PSoC5/UART_3_INT.c **** 
 182:.\Generated_Source\PSoC5/UART_3_INT.c ****     #ifdef UART_3_RXISR_EXIT_CALLBACK
 183:.\Generated_Source\PSoC5/UART_3_INT.c ****         UART_3_RXISR_ExitCallback();
 184:.\Generated_Source\PSoC5/UART_3_INT.c ****     #endif /* UART_3_RXISR_EXIT_CALLBACK */
 185:.\Generated_Source\PSoC5/UART_3_INT.c **** 
 186:.\Generated_Source\PSoC5/UART_3_INT.c ****     #if(CY_PSOC3)
 187:.\Generated_Source\PSoC5/UART_3_INT.c ****         EA = int_en;
 188:.\Generated_Source\PSoC5/UART_3_INT.c ****     #endif /* (CY_PSOC3) */
 189:.\Generated_Source\PSoC5/UART_3_INT.c ****     }
 190:.\Generated_Source\PSoC5/UART_3_INT.c ****     
 191:.\Generated_Source\PSoC5/UART_3_INT.c **** #endif /* (UART_3_RX_INTERRUPT_ENABLED && (UART_3_RX_ENABLED || UART_3_HD_ENABLED)) */
 192:.\Generated_Source\PSoC5/UART_3_INT.c **** 
 193:.\Generated_Source\PSoC5/UART_3_INT.c **** 
 194:.\Generated_Source\PSoC5/UART_3_INT.c **** #if (UART_3_TX_INTERRUPT_ENABLED && UART_3_TX_ENABLED)
 195:.\Generated_Source\PSoC5/UART_3_INT.c ****     /*******************************************************************************
 196:.\Generated_Source\PSoC5/UART_3_INT.c ****     * Function Name: UART_3_TXISR
 197:.\Generated_Source\PSoC5/UART_3_INT.c ****     ********************************************************************************
 198:.\Generated_Source\PSoC5/UART_3_INT.c ****     *
 199:.\Generated_Source\PSoC5/UART_3_INT.c ****     * Summary:
 200:.\Generated_Source\PSoC5/UART_3_INT.c ****     * Interrupt Service Routine for the TX portion of the UART
 201:.\Generated_Source\PSoC5/UART_3_INT.c ****     *
 202:.\Generated_Source\PSoC5/UART_3_INT.c ****     * Parameters:
ARM GAS  C:\Users\kingi\AppData\Local\Temp\cc1P2O1v.s 			page 5


 203:.\Generated_Source\PSoC5/UART_3_INT.c ****     *  None.
 204:.\Generated_Source\PSoC5/UART_3_INT.c ****     *
 205:.\Generated_Source\PSoC5/UART_3_INT.c ****     * Return:
 206:.\Generated_Source\PSoC5/UART_3_INT.c ****     *  None.
 207:.\Generated_Source\PSoC5/UART_3_INT.c ****     *
 208:.\Generated_Source\PSoC5/UART_3_INT.c ****     * Global Variables:
 209:.\Generated_Source\PSoC5/UART_3_INT.c ****     *  UART_3_txBuffer - RAM buffer pointer for transmit data from.
 210:.\Generated_Source\PSoC5/UART_3_INT.c ****     *  UART_3_txBufferRead - cyclic index for read and transmit data
 211:.\Generated_Source\PSoC5/UART_3_INT.c ****     *     from txBuffer, increments after each transmitted byte.
 212:.\Generated_Source\PSoC5/UART_3_INT.c ****     *  UART_3_rxBufferWrite - cyclic index for write to txBuffer,
 213:.\Generated_Source\PSoC5/UART_3_INT.c ****     *     checked to detect available for transmission bytes.
 214:.\Generated_Source\PSoC5/UART_3_INT.c ****     *
 215:.\Generated_Source\PSoC5/UART_3_INT.c ****     *******************************************************************************/
 216:.\Generated_Source\PSoC5/UART_3_INT.c ****     CY_ISR(UART_3_TXISR)
 217:.\Generated_Source\PSoC5/UART_3_INT.c ****     {
  27              		.loc 1 217 0
  28              		.cfi_startproc
  29              		@ args = 0, pretend = 0, frame = 0
  30              		@ frame_needed = 1, uses_anonymous_args = 0
  31              		@ link register save eliminated.
  32 0000 80B4     		push	{r7}
  33              		.cfi_def_cfa_offset 4
  34              		.cfi_offset 7, -4
  35 0002 00AF     		add	r7, sp, #0
  36              		.cfi_def_cfa_register 7
 218:.\Generated_Source\PSoC5/UART_3_INT.c ****     #if(CY_PSOC3)
 219:.\Generated_Source\PSoC5/UART_3_INT.c ****         uint8 int_en;
 220:.\Generated_Source\PSoC5/UART_3_INT.c ****     #endif /* (CY_PSOC3) */
 221:.\Generated_Source\PSoC5/UART_3_INT.c **** 
 222:.\Generated_Source\PSoC5/UART_3_INT.c ****     #ifdef UART_3_TXISR_ENTRY_CALLBACK
 223:.\Generated_Source\PSoC5/UART_3_INT.c ****         UART_3_TXISR_EntryCallback();
 224:.\Generated_Source\PSoC5/UART_3_INT.c ****     #endif /* UART_3_TXISR_ENTRY_CALLBACK */
 225:.\Generated_Source\PSoC5/UART_3_INT.c **** 
 226:.\Generated_Source\PSoC5/UART_3_INT.c ****         /* User code required at start of ISR */
 227:.\Generated_Source\PSoC5/UART_3_INT.c ****         /* `#START UART_3_TXISR_START` */
 228:.\Generated_Source\PSoC5/UART_3_INT.c **** 
 229:.\Generated_Source\PSoC5/UART_3_INT.c ****         /* `#END` */
 230:.\Generated_Source\PSoC5/UART_3_INT.c **** 
 231:.\Generated_Source\PSoC5/UART_3_INT.c ****     #if(CY_PSOC3)   /* Make sure nested interrupt is enabled */
 232:.\Generated_Source\PSoC5/UART_3_INT.c ****         int_en = EA;
 233:.\Generated_Source\PSoC5/UART_3_INT.c ****         CyGlobalIntEnable;
 234:.\Generated_Source\PSoC5/UART_3_INT.c ****     #endif /* (CY_PSOC3) */
 235:.\Generated_Source\PSoC5/UART_3_INT.c **** 
 236:.\Generated_Source\PSoC5/UART_3_INT.c ****         while((UART_3_txBufferRead != UART_3_txBufferWrite) &&
  37              		.loc 1 236 0
  38 0004 17E0     		b	.L2
  39              	.L5:
 237:.\Generated_Source\PSoC5/UART_3_INT.c ****              ((UART_3_TXSTATUS_REG & UART_3_TX_STS_FIFO_FULL) == 0u))
 238:.\Generated_Source\PSoC5/UART_3_INT.c ****         {
 239:.\Generated_Source\PSoC5/UART_3_INT.c ****             /* Check pointer wrap around */
 240:.\Generated_Source\PSoC5/UART_3_INT.c ****             if(UART_3_txBufferRead >= UART_3_TX_BUFFER_SIZE)
  40              		.loc 1 240 0
  41 0006 154B     		ldr	r3, .L6
  42 0008 1B78     		ldrb	r3, [r3]
  43 000a DBB2     		uxtb	r3, r3
  44 000c 1A2B     		cmp	r3, #26
  45 000e 02D9     		bls	.L3
ARM GAS  C:\Users\kingi\AppData\Local\Temp\cc1P2O1v.s 			page 6


 241:.\Generated_Source\PSoC5/UART_3_INT.c ****             {
 242:.\Generated_Source\PSoC5/UART_3_INT.c ****                 UART_3_txBufferRead = 0u;
  46              		.loc 1 242 0
  47 0010 124B     		ldr	r3, .L6
  48 0012 0022     		movs	r2, #0
  49 0014 1A70     		strb	r2, [r3]
  50              	.L3:
 243:.\Generated_Source\PSoC5/UART_3_INT.c ****             }
 244:.\Generated_Source\PSoC5/UART_3_INT.c **** 
 245:.\Generated_Source\PSoC5/UART_3_INT.c ****             UART_3_TXDATA_REG = UART_3_txBuffer[UART_3_txBufferRead];
  51              		.loc 1 245 0
  52 0016 124B     		ldr	r3, .L6+4
  53 0018 104A     		ldr	r2, .L6
  54 001a 1278     		ldrb	r2, [r2]
  55 001c D2B2     		uxtb	r2, r2
  56 001e 1146     		mov	r1, r2
  57 0020 104A     		ldr	r2, .L6+8
  58 0022 525C     		ldrb	r2, [r2, r1]
  59 0024 D2B2     		uxtb	r2, r2
  60 0026 1A70     		strb	r2, [r3]
 246:.\Generated_Source\PSoC5/UART_3_INT.c **** 
 247:.\Generated_Source\PSoC5/UART_3_INT.c ****             /* Set next pointer */
 248:.\Generated_Source\PSoC5/UART_3_INT.c ****             UART_3_txBufferRead++;
  61              		.loc 1 248 0
  62 0028 0C4B     		ldr	r3, .L6
  63 002a 1B78     		ldrb	r3, [r3]
  64 002c DBB2     		uxtb	r3, r3
  65 002e 0133     		adds	r3, r3, #1
  66 0030 DAB2     		uxtb	r2, r3
  67 0032 0A4B     		ldr	r3, .L6
  68 0034 1A70     		strb	r2, [r3]
  69              	.L2:
 236:.\Generated_Source\PSoC5/UART_3_INT.c ****              ((UART_3_TXSTATUS_REG & UART_3_TX_STS_FIFO_FULL) == 0u))
  70              		.loc 1 236 0
  71 0036 094B     		ldr	r3, .L6
  72 0038 1B78     		ldrb	r3, [r3]
  73 003a DAB2     		uxtb	r2, r3
  74 003c 0A4B     		ldr	r3, .L6+12
  75 003e 1B78     		ldrb	r3, [r3]	@ zero_extendqisi2
  76 0040 9A42     		cmp	r2, r3
  77 0042 06D0     		beq	.L1
 237:.\Generated_Source\PSoC5/UART_3_INT.c ****         {
  78              		.loc 1 237 0 discriminator 1
  79 0044 094B     		ldr	r3, .L6+16
  80 0046 1B78     		ldrb	r3, [r3]
  81 0048 DBB2     		uxtb	r3, r3
  82 004a 03F00403 		and	r3, r3, #4
 236:.\Generated_Source\PSoC5/UART_3_INT.c ****              ((UART_3_TXSTATUS_REG & UART_3_TX_STS_FIFO_FULL) == 0u))
  83              		.loc 1 236 0 discriminator 1
  84 004e 002B     		cmp	r3, #0
  85 0050 D9D0     		beq	.L5
  86              	.L1:
 249:.\Generated_Source\PSoC5/UART_3_INT.c ****         }
 250:.\Generated_Source\PSoC5/UART_3_INT.c **** 
 251:.\Generated_Source\PSoC5/UART_3_INT.c ****         /* User code required at end of ISR (Optional) */
 252:.\Generated_Source\PSoC5/UART_3_INT.c ****         /* `#START UART_3_TXISR_END` */
 253:.\Generated_Source\PSoC5/UART_3_INT.c **** 
ARM GAS  C:\Users\kingi\AppData\Local\Temp\cc1P2O1v.s 			page 7


 254:.\Generated_Source\PSoC5/UART_3_INT.c ****         /* `#END` */
 255:.\Generated_Source\PSoC5/UART_3_INT.c **** 
 256:.\Generated_Source\PSoC5/UART_3_INT.c ****     #ifdef UART_3_TXISR_EXIT_CALLBACK
 257:.\Generated_Source\PSoC5/UART_3_INT.c ****         UART_3_TXISR_ExitCallback();
 258:.\Generated_Source\PSoC5/UART_3_INT.c ****     #endif /* UART_3_TXISR_EXIT_CALLBACK */
 259:.\Generated_Source\PSoC5/UART_3_INT.c **** 
 260:.\Generated_Source\PSoC5/UART_3_INT.c ****     #if(CY_PSOC3)
 261:.\Generated_Source\PSoC5/UART_3_INT.c ****         EA = int_en;
 262:.\Generated_Source\PSoC5/UART_3_INT.c ****     #endif /* (CY_PSOC3) */
 263:.\Generated_Source\PSoC5/UART_3_INT.c ****    }
  87              		.loc 1 263 0
  88 0052 BD46     		mov	sp, r7
  89              		.cfi_def_cfa_register 13
  90              		@ sp needed
  91 0054 5DF8047B 		ldr	r7, [sp], #4
  92              		.cfi_restore 7
  93              		.cfi_def_cfa_offset 0
  94 0058 7047     		bx	lr
  95              	.L7:
  96 005a 00BF     		.align	2
  97              	.L6:
  98 005c 00000000 		.word	UART_3_txBufferRead
  99 0060 46650040 		.word	1073767750
 100 0064 00000000 		.word	UART_3_txBuffer
 101 0068 00000000 		.word	UART_3_txBufferWrite
 102 006c 66650040 		.word	1073767782
 103              		.cfi_endproc
 104              	.LFE0:
 105              		.size	UART_3_TXISR, .-UART_3_TXISR
 106              		.text
 107              	.Letext0:
 108              		.file 2 ".\\Generated_Source\\PSoC5\\cytypes.h"
 109              		.file 3 ".\\Generated_Source\\PSoC5\\UART_3.h"