ARM GAS  C:\Users\kingi\AppData\Local\Temp\ccjBiHyR.s 			page 1


   1              		.syntax unified
   2              		.cpu cortex-m3
   3              		.fpu softvfp
   4              		.eabi_attribute 20, 1
   5              		.eabi_attribute 21, 1
   6              		.eabi_attribute 23, 3
   7              		.eabi_attribute 24, 1
   8              		.eabi_attribute 25, 1
   9              		.eabi_attribute 26, 1
  10              		.eabi_attribute 30, 6
  11              		.eabi_attribute 34, 1
  12              		.eabi_attribute 18, 4
  13              		.thumb
  14              		.file	"UART_5.c"
  15              		.text
  16              	.Ltext0:
  17              		.cfi_sections	.debug_frame
  18              		.global	UART_5_initVar
  19              		.bss
  20              		.type	UART_5_initVar, %object
  21              		.size	UART_5_initVar, 1
  22              	UART_5_initVar:
  23 0000 00       		.space	1
  24              		.global	UART_5_errorStatus
  25              		.type	UART_5_errorStatus, %object
  26              		.size	UART_5_errorStatus, 1
  27              	UART_5_errorStatus:
  28 0001 00       		.space	1
  29              		.comm	UART_5_rxBuffer,26,4
  30              		.global	UART_5_rxBufferRead
  31              		.type	UART_5_rxBufferRead, %object
  32              		.size	UART_5_rxBufferRead, 1
  33              	UART_5_rxBufferRead:
  34 0002 00       		.space	1
  35              		.global	UART_5_rxBufferWrite
  36              		.type	UART_5_rxBufferWrite, %object
  37              		.size	UART_5_rxBufferWrite, 1
  38              	UART_5_rxBufferWrite:
  39 0003 00       		.space	1
  40              		.global	UART_5_rxBufferLoopDetect
  41              		.type	UART_5_rxBufferLoopDetect, %object
  42              		.size	UART_5_rxBufferLoopDetect, 1
  43              	UART_5_rxBufferLoopDetect:
  44 0004 00       		.space	1
  45              		.global	UART_5_rxBufferOverflow
  46              		.type	UART_5_rxBufferOverflow, %object
  47              		.size	UART_5_rxBufferOverflow, 1
  48              	UART_5_rxBufferOverflow:
  49 0005 00       		.space	1
  50              		.section	.text.UART_5_Start,"ax",%progbits
  51              		.align	2
  52              		.global	UART_5_Start
  53              		.thumb
  54              		.thumb_func
  55              		.type	UART_5_Start, %function
  56              	UART_5_Start:
  57              	.LFB0:
ARM GAS  C:\Users\kingi\AppData\Local\Temp\ccjBiHyR.s 			page 2


  58              		.file 1 ".\\Generated_Source\\PSoC5\\UART_5.c"
   1:.\Generated_Source\PSoC5/UART_5.c **** /*******************************************************************************
   2:.\Generated_Source\PSoC5/UART_5.c **** * File Name: UART_5.c
   3:.\Generated_Source\PSoC5/UART_5.c **** * Version 2.50
   4:.\Generated_Source\PSoC5/UART_5.c **** *
   5:.\Generated_Source\PSoC5/UART_5.c **** * Description:
   6:.\Generated_Source\PSoC5/UART_5.c **** *  This file provides all API functionality of the UART component
   7:.\Generated_Source\PSoC5/UART_5.c **** *
   8:.\Generated_Source\PSoC5/UART_5.c **** * Note:
   9:.\Generated_Source\PSoC5/UART_5.c **** *
  10:.\Generated_Source\PSoC5/UART_5.c **** ********************************************************************************
  11:.\Generated_Source\PSoC5/UART_5.c **** * Copyright 2008-2015, Cypress Semiconductor Corporation.  All rights reserved.
  12:.\Generated_Source\PSoC5/UART_5.c **** * You may use this file only in accordance with the license, terms, conditions,
  13:.\Generated_Source\PSoC5/UART_5.c **** * disclaimers, and limitations in the end user license agreement accompanying
  14:.\Generated_Source\PSoC5/UART_5.c **** * the software package with which this file was provided.
  15:.\Generated_Source\PSoC5/UART_5.c **** *******************************************************************************/
  16:.\Generated_Source\PSoC5/UART_5.c **** 
  17:.\Generated_Source\PSoC5/UART_5.c **** #include "UART_5.h"
  18:.\Generated_Source\PSoC5/UART_5.c **** #if (UART_5_INTERNAL_CLOCK_USED)
  19:.\Generated_Source\PSoC5/UART_5.c ****     #include "UART_5_IntClock.h"
  20:.\Generated_Source\PSoC5/UART_5.c **** #endif /* End UART_5_INTERNAL_CLOCK_USED */
  21:.\Generated_Source\PSoC5/UART_5.c **** 
  22:.\Generated_Source\PSoC5/UART_5.c **** 
  23:.\Generated_Source\PSoC5/UART_5.c **** /***************************************
  24:.\Generated_Source\PSoC5/UART_5.c **** * Global data allocation
  25:.\Generated_Source\PSoC5/UART_5.c **** ***************************************/
  26:.\Generated_Source\PSoC5/UART_5.c **** 
  27:.\Generated_Source\PSoC5/UART_5.c **** uint8 UART_5_initVar = 0u;
  28:.\Generated_Source\PSoC5/UART_5.c **** 
  29:.\Generated_Source\PSoC5/UART_5.c **** #if (UART_5_TX_INTERRUPT_ENABLED && UART_5_TX_ENABLED)
  30:.\Generated_Source\PSoC5/UART_5.c ****     volatile uint8 UART_5_txBuffer[UART_5_TX_BUFFER_SIZE];
  31:.\Generated_Source\PSoC5/UART_5.c ****     volatile uint8 UART_5_txBufferRead = 0u;
  32:.\Generated_Source\PSoC5/UART_5.c ****     uint8 UART_5_txBufferWrite = 0u;
  33:.\Generated_Source\PSoC5/UART_5.c **** #endif /* (UART_5_TX_INTERRUPT_ENABLED && UART_5_TX_ENABLED) */
  34:.\Generated_Source\PSoC5/UART_5.c **** 
  35:.\Generated_Source\PSoC5/UART_5.c **** #if (UART_5_RX_INTERRUPT_ENABLED && (UART_5_RX_ENABLED || UART_5_HD_ENABLED))
  36:.\Generated_Source\PSoC5/UART_5.c ****     uint8 UART_5_errorStatus = 0u;
  37:.\Generated_Source\PSoC5/UART_5.c ****     volatile uint8 UART_5_rxBuffer[UART_5_RX_BUFFER_SIZE];
  38:.\Generated_Source\PSoC5/UART_5.c ****     volatile uint8 UART_5_rxBufferRead  = 0u;
  39:.\Generated_Source\PSoC5/UART_5.c ****     volatile uint8 UART_5_rxBufferWrite = 0u;
  40:.\Generated_Source\PSoC5/UART_5.c ****     volatile uint8 UART_5_rxBufferLoopDetect = 0u;
  41:.\Generated_Source\PSoC5/UART_5.c ****     volatile uint8 UART_5_rxBufferOverflow   = 0u;
  42:.\Generated_Source\PSoC5/UART_5.c ****     #if (UART_5_RXHW_ADDRESS_ENABLED)
  43:.\Generated_Source\PSoC5/UART_5.c ****         volatile uint8 UART_5_rxAddressMode = UART_5_RX_ADDRESS_MODE;
  44:.\Generated_Source\PSoC5/UART_5.c ****         volatile uint8 UART_5_rxAddressDetected = 0u;
  45:.\Generated_Source\PSoC5/UART_5.c ****     #endif /* (UART_5_RXHW_ADDRESS_ENABLED) */
  46:.\Generated_Source\PSoC5/UART_5.c **** #endif /* (UART_5_RX_INTERRUPT_ENABLED && (UART_5_RX_ENABLED || UART_5_HD_ENABLED)) */
  47:.\Generated_Source\PSoC5/UART_5.c **** 
  48:.\Generated_Source\PSoC5/UART_5.c **** 
  49:.\Generated_Source\PSoC5/UART_5.c **** /*******************************************************************************
  50:.\Generated_Source\PSoC5/UART_5.c **** * Function Name: UART_5_Start
  51:.\Generated_Source\PSoC5/UART_5.c **** ********************************************************************************
  52:.\Generated_Source\PSoC5/UART_5.c **** *
  53:.\Generated_Source\PSoC5/UART_5.c **** * Summary:
  54:.\Generated_Source\PSoC5/UART_5.c **** *  This is the preferred method to begin component operation.
  55:.\Generated_Source\PSoC5/UART_5.c **** *  UART_5_Start() sets the initVar variable, calls the
  56:.\Generated_Source\PSoC5/UART_5.c **** *  UART_5_Init() function, and then calls the
ARM GAS  C:\Users\kingi\AppData\Local\Temp\ccjBiHyR.s 			page 3


  57:.\Generated_Source\PSoC5/UART_5.c **** *  UART_5_Enable() function.
  58:.\Generated_Source\PSoC5/UART_5.c **** *
  59:.\Generated_Source\PSoC5/UART_5.c **** * Parameters:
  60:.\Generated_Source\PSoC5/UART_5.c **** *  None.
  61:.\Generated_Source\PSoC5/UART_5.c **** *
  62:.\Generated_Source\PSoC5/UART_5.c **** * Return:
  63:.\Generated_Source\PSoC5/UART_5.c **** *  None.
  64:.\Generated_Source\PSoC5/UART_5.c **** *
  65:.\Generated_Source\PSoC5/UART_5.c **** * Global variables:
  66:.\Generated_Source\PSoC5/UART_5.c **** *  The UART_5_intiVar variable is used to indicate initial
  67:.\Generated_Source\PSoC5/UART_5.c **** *  configuration of this component. The variable is initialized to zero (0u)
  68:.\Generated_Source\PSoC5/UART_5.c **** *  and set to one (1u) the first time UART_5_Start() is called. This
  69:.\Generated_Source\PSoC5/UART_5.c **** *  allows for component initialization without re-initialization in all
  70:.\Generated_Source\PSoC5/UART_5.c **** *  subsequent calls to the UART_5_Start() routine.
  71:.\Generated_Source\PSoC5/UART_5.c **** *
  72:.\Generated_Source\PSoC5/UART_5.c **** * Reentrant:
  73:.\Generated_Source\PSoC5/UART_5.c **** *  No.
  74:.\Generated_Source\PSoC5/UART_5.c **** *
  75:.\Generated_Source\PSoC5/UART_5.c **** *******************************************************************************/
  76:.\Generated_Source\PSoC5/UART_5.c **** void UART_5_Start(void) 
  77:.\Generated_Source\PSoC5/UART_5.c **** {
  59              		.loc 1 77 0
  60              		.cfi_startproc
  61              		@ args = 0, pretend = 0, frame = 0
  62              		@ frame_needed = 1, uses_anonymous_args = 0
  63 0000 80B5     		push	{r7, lr}
  64              		.cfi_def_cfa_offset 8
  65              		.cfi_offset 7, -8
  66              		.cfi_offset 14, -4
  67 0002 00AF     		add	r7, sp, #0
  68              		.cfi_def_cfa_register 7
  78:.\Generated_Source\PSoC5/UART_5.c ****     /* If not initialized then initialize all required hardware and software */
  79:.\Generated_Source\PSoC5/UART_5.c ****     if(UART_5_initVar == 0u)
  69              		.loc 1 79 0
  70 0004 054B     		ldr	r3, .L3
  71 0006 1B78     		ldrb	r3, [r3]	@ zero_extendqisi2
  72 0008 002B     		cmp	r3, #0
  73 000a 04D1     		bne	.L2
  80:.\Generated_Source\PSoC5/UART_5.c ****     {
  81:.\Generated_Source\PSoC5/UART_5.c ****         UART_5_Init();
  74              		.loc 1 81 0
  75 000c FFF7FEFF 		bl	UART_5_Init
  82:.\Generated_Source\PSoC5/UART_5.c ****         UART_5_initVar = 1u;
  76              		.loc 1 82 0
  77 0010 024B     		ldr	r3, .L3
  78 0012 0122     		movs	r2, #1
  79 0014 1A70     		strb	r2, [r3]
  80              	.L2:
  83:.\Generated_Source\PSoC5/UART_5.c ****     }
  84:.\Generated_Source\PSoC5/UART_5.c **** 
  85:.\Generated_Source\PSoC5/UART_5.c ****     UART_5_Enable();
  81              		.loc 1 85 0
  82 0016 FFF7FEFF 		bl	UART_5_Enable
  86:.\Generated_Source\PSoC5/UART_5.c **** }
  83              		.loc 1 86 0
  84 001a 80BD     		pop	{r7, pc}
  85              	.L4:
ARM GAS  C:\Users\kingi\AppData\Local\Temp\ccjBiHyR.s 			page 4


  86              		.align	2
  87              	.L3:
  88 001c 00000000 		.word	UART_5_initVar
  89              		.cfi_endproc
  90              	.LFE0:
  91              		.size	UART_5_Start, .-UART_5_Start
  92              		.section	.text.UART_5_Init,"ax",%progbits
  93              		.align	2
  94              		.global	UART_5_Init
  95              		.thumb
  96              		.thumb_func
  97              		.type	UART_5_Init, %function
  98              	UART_5_Init:
  99              	.LFB1:
  87:.\Generated_Source\PSoC5/UART_5.c **** 
  88:.\Generated_Source\PSoC5/UART_5.c **** 
  89:.\Generated_Source\PSoC5/UART_5.c **** /*******************************************************************************
  90:.\Generated_Source\PSoC5/UART_5.c **** * Function Name: UART_5_Init
  91:.\Generated_Source\PSoC5/UART_5.c **** ********************************************************************************
  92:.\Generated_Source\PSoC5/UART_5.c **** *
  93:.\Generated_Source\PSoC5/UART_5.c **** * Summary:
  94:.\Generated_Source\PSoC5/UART_5.c **** *  Initializes or restores the component according to the customizer Configure
  95:.\Generated_Source\PSoC5/UART_5.c **** *  dialog settings. It is not necessary to call UART_5_Init() because
  96:.\Generated_Source\PSoC5/UART_5.c **** *  the UART_5_Start() API calls this function and is the preferred
  97:.\Generated_Source\PSoC5/UART_5.c **** *  method to begin component operation.
  98:.\Generated_Source\PSoC5/UART_5.c **** *
  99:.\Generated_Source\PSoC5/UART_5.c **** * Parameters:
 100:.\Generated_Source\PSoC5/UART_5.c **** *  None.
 101:.\Generated_Source\PSoC5/UART_5.c **** *
 102:.\Generated_Source\PSoC5/UART_5.c **** * Return:
 103:.\Generated_Source\PSoC5/UART_5.c **** *  None.
 104:.\Generated_Source\PSoC5/UART_5.c **** *
 105:.\Generated_Source\PSoC5/UART_5.c **** *******************************************************************************/
 106:.\Generated_Source\PSoC5/UART_5.c **** void UART_5_Init(void) 
 107:.\Generated_Source\PSoC5/UART_5.c **** {
 100              		.loc 1 107 0
 101              		.cfi_startproc
 102              		@ args = 0, pretend = 0, frame = 0
 103              		@ frame_needed = 1, uses_anonymous_args = 0
 104 0000 80B5     		push	{r7, lr}
 105              		.cfi_def_cfa_offset 8
 106              		.cfi_offset 7, -8
 107              		.cfi_offset 14, -4
 108 0002 00AF     		add	r7, sp, #0
 109              		.cfi_def_cfa_register 7
 108:.\Generated_Source\PSoC5/UART_5.c ****     #if(UART_5_RX_ENABLED || UART_5_HD_ENABLED)
 109:.\Generated_Source\PSoC5/UART_5.c **** 
 110:.\Generated_Source\PSoC5/UART_5.c ****         #if (UART_5_RX_INTERRUPT_ENABLED)
 111:.\Generated_Source\PSoC5/UART_5.c ****             /* Set RX interrupt vector and priority */
 112:.\Generated_Source\PSoC5/UART_5.c ****             (void) CyIntSetVector(UART_5_RX_VECT_NUM, &UART_5_RXISR);
 110              		.loc 1 112 0
 111 0004 0620     		movs	r0, #6
 112 0006 0849     		ldr	r1, .L6
 113 0008 FFF7FEFF 		bl	CyIntSetVector
 113:.\Generated_Source\PSoC5/UART_5.c ****             CyIntSetPriority(UART_5_RX_VECT_NUM, UART_5_RX_PRIOR_NUM);
 114              		.loc 1 113 0
 115 000c 0620     		movs	r0, #6
ARM GAS  C:\Users\kingi\AppData\Local\Temp\ccjBiHyR.s 			page 5


 116 000e 0721     		movs	r1, #7
 117 0010 FFF7FEFF 		bl	CyIntSetPriority
 114:.\Generated_Source\PSoC5/UART_5.c ****             UART_5_errorStatus = 0u;
 118              		.loc 1 114 0
 119 0014 054B     		ldr	r3, .L6+4
 120 0016 0022     		movs	r2, #0
 121 0018 1A70     		strb	r2, [r3]
 115:.\Generated_Source\PSoC5/UART_5.c ****         #endif /* (UART_5_RX_INTERRUPT_ENABLED) */
 116:.\Generated_Source\PSoC5/UART_5.c **** 
 117:.\Generated_Source\PSoC5/UART_5.c ****         #if (UART_5_RXHW_ADDRESS_ENABLED)
 118:.\Generated_Source\PSoC5/UART_5.c ****             UART_5_SetRxAddressMode(UART_5_RX_ADDRESS_MODE);
 119:.\Generated_Source\PSoC5/UART_5.c ****             UART_5_SetRxAddress1(UART_5_RX_HW_ADDRESS1);
 120:.\Generated_Source\PSoC5/UART_5.c ****             UART_5_SetRxAddress2(UART_5_RX_HW_ADDRESS2);
 121:.\Generated_Source\PSoC5/UART_5.c ****         #endif /* End UART_5_RXHW_ADDRESS_ENABLED */
 122:.\Generated_Source\PSoC5/UART_5.c **** 
 123:.\Generated_Source\PSoC5/UART_5.c ****         /* Init Count7 period */
 124:.\Generated_Source\PSoC5/UART_5.c ****         UART_5_RXBITCTR_PERIOD_REG = UART_5_RXBITCTR_INIT;
 122              		.loc 1 124 0
 123 001a 054B     		ldr	r3, .L6+8
 124 001c 7222     		movs	r2, #114
 125 001e 1A70     		strb	r2, [r3]
 125:.\Generated_Source\PSoC5/UART_5.c ****         /* Configure the Initial RX interrupt mask */
 126:.\Generated_Source\PSoC5/UART_5.c ****         UART_5_RXSTATUS_MASK_REG  = UART_5_INIT_RX_INTERRUPTS_MASK;
 126              		.loc 1 126 0
 127 0020 044B     		ldr	r3, .L6+12
 128 0022 2022     		movs	r2, #32
 129 0024 1A70     		strb	r2, [r3]
 127:.\Generated_Source\PSoC5/UART_5.c ****     #endif /* End UART_5_RX_ENABLED || UART_5_HD_ENABLED*/
 128:.\Generated_Source\PSoC5/UART_5.c **** 
 129:.\Generated_Source\PSoC5/UART_5.c ****     #if(UART_5_TX_ENABLED)
 130:.\Generated_Source\PSoC5/UART_5.c ****         #if (UART_5_TX_INTERRUPT_ENABLED)
 131:.\Generated_Source\PSoC5/UART_5.c ****             /* Set TX interrupt vector and priority */
 132:.\Generated_Source\PSoC5/UART_5.c ****             (void) CyIntSetVector(UART_5_TX_VECT_NUM, &UART_5_TXISR);
 133:.\Generated_Source\PSoC5/UART_5.c ****             CyIntSetPriority(UART_5_TX_VECT_NUM, UART_5_TX_PRIOR_NUM);
 134:.\Generated_Source\PSoC5/UART_5.c ****         #endif /* (UART_5_TX_INTERRUPT_ENABLED) */
 135:.\Generated_Source\PSoC5/UART_5.c **** 
 136:.\Generated_Source\PSoC5/UART_5.c ****         /* Write Counter Value for TX Bit Clk Generator*/
 137:.\Generated_Source\PSoC5/UART_5.c ****         #if (UART_5_TXCLKGEN_DP)
 138:.\Generated_Source\PSoC5/UART_5.c ****             UART_5_TXBITCLKGEN_CTR_REG = UART_5_BIT_CENTER;
 139:.\Generated_Source\PSoC5/UART_5.c ****             UART_5_TXBITCLKTX_COMPLETE_REG = ((UART_5_NUMBER_OF_DATA_BITS +
 140:.\Generated_Source\PSoC5/UART_5.c ****                         UART_5_NUMBER_OF_START_BIT) * UART_5_OVER_SAMPLE_COUNT) - 1u;
 141:.\Generated_Source\PSoC5/UART_5.c ****         #else
 142:.\Generated_Source\PSoC5/UART_5.c ****             UART_5_TXBITCTR_PERIOD_REG = ((UART_5_NUMBER_OF_DATA_BITS +
 143:.\Generated_Source\PSoC5/UART_5.c ****                         UART_5_NUMBER_OF_START_BIT) * UART_5_OVER_SAMPLE_8) - 1u;
 144:.\Generated_Source\PSoC5/UART_5.c ****         #endif /* End UART_5_TXCLKGEN_DP */
 145:.\Generated_Source\PSoC5/UART_5.c **** 
 146:.\Generated_Source\PSoC5/UART_5.c ****         /* Configure the Initial TX interrupt mask */
 147:.\Generated_Source\PSoC5/UART_5.c ****         #if (UART_5_TX_INTERRUPT_ENABLED)
 148:.\Generated_Source\PSoC5/UART_5.c ****             UART_5_TXSTATUS_MASK_REG = UART_5_TX_STS_FIFO_EMPTY;
 149:.\Generated_Source\PSoC5/UART_5.c ****         #else
 150:.\Generated_Source\PSoC5/UART_5.c ****             UART_5_TXSTATUS_MASK_REG = UART_5_INIT_TX_INTERRUPTS_MASK;
 151:.\Generated_Source\PSoC5/UART_5.c ****         #endif /*End UART_5_TX_INTERRUPT_ENABLED*/
 152:.\Generated_Source\PSoC5/UART_5.c **** 
 153:.\Generated_Source\PSoC5/UART_5.c ****     #endif /* End UART_5_TX_ENABLED */
 154:.\Generated_Source\PSoC5/UART_5.c **** 
 155:.\Generated_Source\PSoC5/UART_5.c ****     #if(UART_5_PARITY_TYPE_SW)  /* Write Parity to Control Register */
 156:.\Generated_Source\PSoC5/UART_5.c ****         UART_5_WriteControlRegister( \
ARM GAS  C:\Users\kingi\AppData\Local\Temp\ccjBiHyR.s 			page 6


 157:.\Generated_Source\PSoC5/UART_5.c ****             (UART_5_ReadControlRegister() & (uint8)~UART_5_CTRL_PARITY_TYPE_MASK) | \
 158:.\Generated_Source\PSoC5/UART_5.c ****             (uint8)(UART_5_PARITY_TYPE << UART_5_CTRL_PARITY_TYPE0_SHIFT) );
 159:.\Generated_Source\PSoC5/UART_5.c ****     #endif /* End UART_5_PARITY_TYPE_SW */
 160:.\Generated_Source\PSoC5/UART_5.c **** }
 130              		.loc 1 160 0
 131 0026 80BD     		pop	{r7, pc}
 132              	.L7:
 133              		.align	2
 134              	.L6:
 135 0028 00000000 		.word	UART_5_RXISR
 136 002c 00000000 		.word	UART_5_errorStatus
 137 0030 84640040 		.word	1073767556
 138 0034 83640040 		.word	1073767555
 139              		.cfi_endproc
 140              	.LFE1:
 141              		.size	UART_5_Init, .-UART_5_Init
 142              		.section	.text.UART_5_Enable,"ax",%progbits
 143              		.align	2
 144              		.global	UART_5_Enable
 145              		.thumb
 146              		.thumb_func
 147              		.type	UART_5_Enable, %function
 148              	UART_5_Enable:
 149              	.LFB2:
 161:.\Generated_Source\PSoC5/UART_5.c **** 
 162:.\Generated_Source\PSoC5/UART_5.c **** 
 163:.\Generated_Source\PSoC5/UART_5.c **** /*******************************************************************************
 164:.\Generated_Source\PSoC5/UART_5.c **** * Function Name: UART_5_Enable
 165:.\Generated_Source\PSoC5/UART_5.c **** ********************************************************************************
 166:.\Generated_Source\PSoC5/UART_5.c **** *
 167:.\Generated_Source\PSoC5/UART_5.c **** * Summary:
 168:.\Generated_Source\PSoC5/UART_5.c **** *  Activates the hardware and begins component operation. It is not necessary
 169:.\Generated_Source\PSoC5/UART_5.c **** *  to call UART_5_Enable() because the UART_5_Start() API
 170:.\Generated_Source\PSoC5/UART_5.c **** *  calls this function, which is the preferred method to begin component
 171:.\Generated_Source\PSoC5/UART_5.c **** *  operation.
 172:.\Generated_Source\PSoC5/UART_5.c **** 
 173:.\Generated_Source\PSoC5/UART_5.c **** * Parameters:
 174:.\Generated_Source\PSoC5/UART_5.c **** *  None.
 175:.\Generated_Source\PSoC5/UART_5.c **** *
 176:.\Generated_Source\PSoC5/UART_5.c **** * Return:
 177:.\Generated_Source\PSoC5/UART_5.c **** *  None.
 178:.\Generated_Source\PSoC5/UART_5.c **** *
 179:.\Generated_Source\PSoC5/UART_5.c **** * Global Variables:
 180:.\Generated_Source\PSoC5/UART_5.c **** *  UART_5_rxAddressDetected - set to initial state (0).
 181:.\Generated_Source\PSoC5/UART_5.c **** *
 182:.\Generated_Source\PSoC5/UART_5.c **** *******************************************************************************/
 183:.\Generated_Source\PSoC5/UART_5.c **** void UART_5_Enable(void) 
 184:.\Generated_Source\PSoC5/UART_5.c **** {
 150              		.loc 1 184 0
 151              		.cfi_startproc
 152              		@ args = 0, pretend = 0, frame = 8
 153              		@ frame_needed = 1, uses_anonymous_args = 0
 154 0000 80B5     		push	{r7, lr}
 155              		.cfi_def_cfa_offset 8
 156              		.cfi_offset 7, -8
 157              		.cfi_offset 14, -4
 158 0002 82B0     		sub	sp, sp, #8
ARM GAS  C:\Users\kingi\AppData\Local\Temp\ccjBiHyR.s 			page 7


 159              		.cfi_def_cfa_offset 16
 160 0004 00AF     		add	r7, sp, #0
 161              		.cfi_def_cfa_register 7
 185:.\Generated_Source\PSoC5/UART_5.c ****     uint8 enableInterrupts;
 186:.\Generated_Source\PSoC5/UART_5.c ****     enableInterrupts = CyEnterCriticalSection();
 162              		.loc 1 186 0
 163 0006 FFF7FEFF 		bl	CyEnterCriticalSection
 164 000a 0346     		mov	r3, r0
 165 000c FB71     		strb	r3, [r7, #7]
 187:.\Generated_Source\PSoC5/UART_5.c **** 
 188:.\Generated_Source\PSoC5/UART_5.c ****     #if (UART_5_RX_ENABLED || UART_5_HD_ENABLED)
 189:.\Generated_Source\PSoC5/UART_5.c ****         /* RX Counter (Count7) Enable */
 190:.\Generated_Source\PSoC5/UART_5.c ****         UART_5_RXBITCTR_CONTROL_REG |= UART_5_CNTR_ENABLE;
 166              		.loc 1 190 0
 167 000e 0E4A     		ldr	r2, .L9
 168 0010 0D4B     		ldr	r3, .L9
 169 0012 1B78     		ldrb	r3, [r3]
 170 0014 DBB2     		uxtb	r3, r3
 171 0016 43F02003 		orr	r3, r3, #32
 172 001a DBB2     		uxtb	r3, r3
 173 001c 1370     		strb	r3, [r2]
 191:.\Generated_Source\PSoC5/UART_5.c **** 
 192:.\Generated_Source\PSoC5/UART_5.c ****         /* Enable the RX Interrupt */
 193:.\Generated_Source\PSoC5/UART_5.c ****         UART_5_RXSTATUS_ACTL_REG  |= UART_5_INT_ENABLE;
 174              		.loc 1 193 0
 175 001e 0B4A     		ldr	r2, .L9+4
 176 0020 0A4B     		ldr	r3, .L9+4
 177 0022 1B78     		ldrb	r3, [r3]
 178 0024 DBB2     		uxtb	r3, r3
 179 0026 43F01003 		orr	r3, r3, #16
 180 002a DBB2     		uxtb	r3, r3
 181 002c 1370     		strb	r3, [r2]
 194:.\Generated_Source\PSoC5/UART_5.c **** 
 195:.\Generated_Source\PSoC5/UART_5.c ****         #if (UART_5_RX_INTERRUPT_ENABLED)
 196:.\Generated_Source\PSoC5/UART_5.c ****             UART_5_EnableRxInt();
 182              		.loc 1 196 0
 183 002e 084B     		ldr	r3, .L9+8
 184 0030 4022     		movs	r2, #64
 185 0032 1A60     		str	r2, [r3]
 197:.\Generated_Source\PSoC5/UART_5.c **** 
 198:.\Generated_Source\PSoC5/UART_5.c ****             #if (UART_5_RXHW_ADDRESS_ENABLED)
 199:.\Generated_Source\PSoC5/UART_5.c ****                 UART_5_rxAddressDetected = 0u;
 200:.\Generated_Source\PSoC5/UART_5.c ****             #endif /* (UART_5_RXHW_ADDRESS_ENABLED) */
 201:.\Generated_Source\PSoC5/UART_5.c ****         #endif /* (UART_5_RX_INTERRUPT_ENABLED) */
 202:.\Generated_Source\PSoC5/UART_5.c ****     #endif /* (UART_5_RX_ENABLED || UART_5_HD_ENABLED) */
 203:.\Generated_Source\PSoC5/UART_5.c **** 
 204:.\Generated_Source\PSoC5/UART_5.c ****     #if(UART_5_TX_ENABLED)
 205:.\Generated_Source\PSoC5/UART_5.c ****         /* TX Counter (DP/Count7) Enable */
 206:.\Generated_Source\PSoC5/UART_5.c ****         #if(!UART_5_TXCLKGEN_DP)
 207:.\Generated_Source\PSoC5/UART_5.c ****             UART_5_TXBITCTR_CONTROL_REG |= UART_5_CNTR_ENABLE;
 208:.\Generated_Source\PSoC5/UART_5.c ****         #endif /* End UART_5_TXCLKGEN_DP */
 209:.\Generated_Source\PSoC5/UART_5.c **** 
 210:.\Generated_Source\PSoC5/UART_5.c ****         /* Enable the TX Interrupt */
 211:.\Generated_Source\PSoC5/UART_5.c ****         UART_5_TXSTATUS_ACTL_REG |= UART_5_INT_ENABLE;
 212:.\Generated_Source\PSoC5/UART_5.c ****         #if (UART_5_TX_INTERRUPT_ENABLED)
 213:.\Generated_Source\PSoC5/UART_5.c ****             UART_5_ClearPendingTxInt(); /* Clear history of TX_NOT_EMPTY */
 214:.\Generated_Source\PSoC5/UART_5.c ****             UART_5_EnableTxInt();
ARM GAS  C:\Users\kingi\AppData\Local\Temp\ccjBiHyR.s 			page 8


 215:.\Generated_Source\PSoC5/UART_5.c ****         #endif /* (UART_5_TX_INTERRUPT_ENABLED) */
 216:.\Generated_Source\PSoC5/UART_5.c ****      #endif /* (UART_5_TX_INTERRUPT_ENABLED) */
 217:.\Generated_Source\PSoC5/UART_5.c **** 
 218:.\Generated_Source\PSoC5/UART_5.c ****     #if (UART_5_INTERNAL_CLOCK_USED)
 219:.\Generated_Source\PSoC5/UART_5.c ****         UART_5_IntClock_Start();  /* Enable the clock */
 186              		.loc 1 219 0
 187 0034 FFF7FEFF 		bl	UART_5_IntClock_Start
 220:.\Generated_Source\PSoC5/UART_5.c ****     #endif /* (UART_5_INTERNAL_CLOCK_USED) */
 221:.\Generated_Source\PSoC5/UART_5.c **** 
 222:.\Generated_Source\PSoC5/UART_5.c ****     CyExitCriticalSection(enableInterrupts);
 188              		.loc 1 222 0
 189 0038 FB79     		ldrb	r3, [r7, #7]	@ zero_extendqisi2
 190 003a 1846     		mov	r0, r3
 191 003c FFF7FEFF 		bl	CyExitCriticalSection
 223:.\Generated_Source\PSoC5/UART_5.c **** }
 192              		.loc 1 223 0
 193 0040 0837     		adds	r7, r7, #8
 194              		.cfi_def_cfa_offset 8
 195 0042 BD46     		mov	sp, r7
 196              		.cfi_def_cfa_register 13
 197              		@ sp needed
 198 0044 80BD     		pop	{r7, pc}
 199              	.L10:
 200 0046 00BF     		.align	2
 201              	.L9:
 202 0048 94640040 		.word	1073767572
 203 004c 93640040 		.word	1073767571
 204 0050 00E100E0 		.word	-536813312
 205              		.cfi_endproc
 206              	.LFE2:
 207              		.size	UART_5_Enable, .-UART_5_Enable
 208              		.section	.text.UART_5_Stop,"ax",%progbits
 209              		.align	2
 210              		.global	UART_5_Stop
 211              		.thumb
 212              		.thumb_func
 213              		.type	UART_5_Stop, %function
 214              	UART_5_Stop:
 215              	.LFB3:
 224:.\Generated_Source\PSoC5/UART_5.c **** 
 225:.\Generated_Source\PSoC5/UART_5.c **** 
 226:.\Generated_Source\PSoC5/UART_5.c **** /*******************************************************************************
 227:.\Generated_Source\PSoC5/UART_5.c **** * Function Name: UART_5_Stop
 228:.\Generated_Source\PSoC5/UART_5.c **** ********************************************************************************
 229:.\Generated_Source\PSoC5/UART_5.c **** *
 230:.\Generated_Source\PSoC5/UART_5.c **** * Summary:
 231:.\Generated_Source\PSoC5/UART_5.c **** *  Disables the UART operation.
 232:.\Generated_Source\PSoC5/UART_5.c **** *
 233:.\Generated_Source\PSoC5/UART_5.c **** * Parameters:
 234:.\Generated_Source\PSoC5/UART_5.c **** *  None.
 235:.\Generated_Source\PSoC5/UART_5.c **** *
 236:.\Generated_Source\PSoC5/UART_5.c **** * Return:
 237:.\Generated_Source\PSoC5/UART_5.c **** *  None.
 238:.\Generated_Source\PSoC5/UART_5.c **** *
 239:.\Generated_Source\PSoC5/UART_5.c **** *******************************************************************************/
 240:.\Generated_Source\PSoC5/UART_5.c **** void UART_5_Stop(void) 
 241:.\Generated_Source\PSoC5/UART_5.c **** {
ARM GAS  C:\Users\kingi\AppData\Local\Temp\ccjBiHyR.s 			page 9


 216              		.loc 1 241 0
 217              		.cfi_startproc
 218              		@ args = 0, pretend = 0, frame = 8
 219              		@ frame_needed = 1, uses_anonymous_args = 0
 220 0000 80B5     		push	{r7, lr}
 221              		.cfi_def_cfa_offset 8
 222              		.cfi_offset 7, -8
 223              		.cfi_offset 14, -4
 224 0002 82B0     		sub	sp, sp, #8
 225              		.cfi_def_cfa_offset 16
 226 0004 00AF     		add	r7, sp, #0
 227              		.cfi_def_cfa_register 7
 242:.\Generated_Source\PSoC5/UART_5.c ****     uint8 enableInterrupts;
 243:.\Generated_Source\PSoC5/UART_5.c ****     enableInterrupts = CyEnterCriticalSection();
 228              		.loc 1 243 0
 229 0006 FFF7FEFF 		bl	CyEnterCriticalSection
 230 000a 0346     		mov	r3, r0
 231 000c FB71     		strb	r3, [r7, #7]
 244:.\Generated_Source\PSoC5/UART_5.c **** 
 245:.\Generated_Source\PSoC5/UART_5.c ****     /* Write Bit Counter Disable */
 246:.\Generated_Source\PSoC5/UART_5.c ****     #if (UART_5_RX_ENABLED || UART_5_HD_ENABLED)
 247:.\Generated_Source\PSoC5/UART_5.c ****         UART_5_RXBITCTR_CONTROL_REG &= (uint8) ~UART_5_CNTR_ENABLE;
 232              		.loc 1 247 0
 233 000e 0E4A     		ldr	r2, .L12
 234 0010 0D4B     		ldr	r3, .L12
 235 0012 1B78     		ldrb	r3, [r3]
 236 0014 DBB2     		uxtb	r3, r3
 237 0016 23F02003 		bic	r3, r3, #32
 238 001a DBB2     		uxtb	r3, r3
 239 001c 1370     		strb	r3, [r2]
 248:.\Generated_Source\PSoC5/UART_5.c ****     #endif /* (UART_5_RX_ENABLED || UART_5_HD_ENABLED) */
 249:.\Generated_Source\PSoC5/UART_5.c **** 
 250:.\Generated_Source\PSoC5/UART_5.c ****     #if (UART_5_TX_ENABLED)
 251:.\Generated_Source\PSoC5/UART_5.c ****         #if(!UART_5_TXCLKGEN_DP)
 252:.\Generated_Source\PSoC5/UART_5.c ****             UART_5_TXBITCTR_CONTROL_REG &= (uint8) ~UART_5_CNTR_ENABLE;
 253:.\Generated_Source\PSoC5/UART_5.c ****         #endif /* (!UART_5_TXCLKGEN_DP) */
 254:.\Generated_Source\PSoC5/UART_5.c ****     #endif /* (UART_5_TX_ENABLED) */
 255:.\Generated_Source\PSoC5/UART_5.c **** 
 256:.\Generated_Source\PSoC5/UART_5.c ****     #if (UART_5_INTERNAL_CLOCK_USED)
 257:.\Generated_Source\PSoC5/UART_5.c ****         UART_5_IntClock_Stop();   /* Disable the clock */
 240              		.loc 1 257 0
 241 001e FFF7FEFF 		bl	UART_5_IntClock_Stop
 258:.\Generated_Source\PSoC5/UART_5.c ****     #endif /* (UART_5_INTERNAL_CLOCK_USED) */
 259:.\Generated_Source\PSoC5/UART_5.c **** 
 260:.\Generated_Source\PSoC5/UART_5.c ****     /* Disable internal interrupt component */
 261:.\Generated_Source\PSoC5/UART_5.c ****     #if (UART_5_RX_ENABLED || UART_5_HD_ENABLED)
 262:.\Generated_Source\PSoC5/UART_5.c ****         UART_5_RXSTATUS_ACTL_REG  &= (uint8) ~UART_5_INT_ENABLE;
 242              		.loc 1 262 0
 243 0022 0A4A     		ldr	r2, .L12+4
 244 0024 094B     		ldr	r3, .L12+4
 245 0026 1B78     		ldrb	r3, [r3]
 246 0028 DBB2     		uxtb	r3, r3
 247 002a 23F01003 		bic	r3, r3, #16
 248 002e DBB2     		uxtb	r3, r3
 249 0030 1370     		strb	r3, [r2]
 263:.\Generated_Source\PSoC5/UART_5.c **** 
 264:.\Generated_Source\PSoC5/UART_5.c ****         #if (UART_5_RX_INTERRUPT_ENABLED)
ARM GAS  C:\Users\kingi\AppData\Local\Temp\ccjBiHyR.s 			page 10


 265:.\Generated_Source\PSoC5/UART_5.c ****             UART_5_DisableRxInt();
 250              		.loc 1 265 0
 251 0032 074B     		ldr	r3, .L12+8
 252 0034 4022     		movs	r2, #64
 253 0036 1A60     		str	r2, [r3]
 266:.\Generated_Source\PSoC5/UART_5.c ****         #endif /* (UART_5_RX_INTERRUPT_ENABLED) */
 267:.\Generated_Source\PSoC5/UART_5.c ****     #endif /* (UART_5_RX_ENABLED || UART_5_HD_ENABLED) */
 268:.\Generated_Source\PSoC5/UART_5.c **** 
 269:.\Generated_Source\PSoC5/UART_5.c ****     #if (UART_5_TX_ENABLED)
 270:.\Generated_Source\PSoC5/UART_5.c ****         UART_5_TXSTATUS_ACTL_REG &= (uint8) ~UART_5_INT_ENABLE;
 271:.\Generated_Source\PSoC5/UART_5.c **** 
 272:.\Generated_Source\PSoC5/UART_5.c ****         #if (UART_5_TX_INTERRUPT_ENABLED)
 273:.\Generated_Source\PSoC5/UART_5.c ****             UART_5_DisableTxInt();
 274:.\Generated_Source\PSoC5/UART_5.c ****         #endif /* (UART_5_TX_INTERRUPT_ENABLED) */
 275:.\Generated_Source\PSoC5/UART_5.c ****     #endif /* (UART_5_TX_ENABLED) */
 276:.\Generated_Source\PSoC5/UART_5.c **** 
 277:.\Generated_Source\PSoC5/UART_5.c ****     CyExitCriticalSection(enableInterrupts);
 254              		.loc 1 277 0
 255 0038 FB79     		ldrb	r3, [r7, #7]	@ zero_extendqisi2
 256 003a 1846     		mov	r0, r3
 257 003c FFF7FEFF 		bl	CyExitCriticalSection
 278:.\Generated_Source\PSoC5/UART_5.c **** }
 258              		.loc 1 278 0
 259 0040 0837     		adds	r7, r7, #8
 260              		.cfi_def_cfa_offset 8
 261 0042 BD46     		mov	sp, r7
 262              		.cfi_def_cfa_register 13
 263              		@ sp needed
 264 0044 80BD     		pop	{r7, pc}
 265              	.L13:
 266 0046 00BF     		.align	2
 267              	.L12:
 268 0048 94640040 		.word	1073767572
 269 004c 93640040 		.word	1073767571
 270 0050 80E100E0 		.word	-536813184
 271              		.cfi_endproc
 272              	.LFE3:
 273              		.size	UART_5_Stop, .-UART_5_Stop
 274              		.section	.text.UART_5_ReadControlRegister,"ax",%progbits
 275              		.align	2
 276              		.global	UART_5_ReadControlRegister
 277              		.thumb
 278              		.thumb_func
 279              		.type	UART_5_ReadControlRegister, %function
 280              	UART_5_ReadControlRegister:
 281              	.LFB4:
 279:.\Generated_Source\PSoC5/UART_5.c **** 
 280:.\Generated_Source\PSoC5/UART_5.c **** 
 281:.\Generated_Source\PSoC5/UART_5.c **** /*******************************************************************************
 282:.\Generated_Source\PSoC5/UART_5.c **** * Function Name: UART_5_ReadControlRegister
 283:.\Generated_Source\PSoC5/UART_5.c **** ********************************************************************************
 284:.\Generated_Source\PSoC5/UART_5.c **** *
 285:.\Generated_Source\PSoC5/UART_5.c **** * Summary:
 286:.\Generated_Source\PSoC5/UART_5.c **** *  Returns the current value of the control register.
 287:.\Generated_Source\PSoC5/UART_5.c **** *
 288:.\Generated_Source\PSoC5/UART_5.c **** * Parameters:
 289:.\Generated_Source\PSoC5/UART_5.c **** *  None.
ARM GAS  C:\Users\kingi\AppData\Local\Temp\ccjBiHyR.s 			page 11


 290:.\Generated_Source\PSoC5/UART_5.c **** *
 291:.\Generated_Source\PSoC5/UART_5.c **** * Return:
 292:.\Generated_Source\PSoC5/UART_5.c **** *  Contents of the control register.
 293:.\Generated_Source\PSoC5/UART_5.c **** *
 294:.\Generated_Source\PSoC5/UART_5.c **** *******************************************************************************/
 295:.\Generated_Source\PSoC5/UART_5.c **** uint8 UART_5_ReadControlRegister(void) 
 296:.\Generated_Source\PSoC5/UART_5.c **** {
 282              		.loc 1 296 0
 283              		.cfi_startproc
 284              		@ args = 0, pretend = 0, frame = 0
 285              		@ frame_needed = 1, uses_anonymous_args = 0
 286              		@ link register save eliminated.
 287 0000 80B4     		push	{r7}
 288              		.cfi_def_cfa_offset 4
 289              		.cfi_offset 7, -4
 290 0002 00AF     		add	r7, sp, #0
 291              		.cfi_def_cfa_register 7
 297:.\Generated_Source\PSoC5/UART_5.c ****     #if (UART_5_CONTROL_REG_REMOVED)
 298:.\Generated_Source\PSoC5/UART_5.c ****         return(0u);
 292              		.loc 1 298 0
 293 0004 0023     		movs	r3, #0
 299:.\Generated_Source\PSoC5/UART_5.c ****     #else
 300:.\Generated_Source\PSoC5/UART_5.c ****         return(UART_5_CONTROL_REG);
 301:.\Generated_Source\PSoC5/UART_5.c ****     #endif /* (UART_5_CONTROL_REG_REMOVED) */
 302:.\Generated_Source\PSoC5/UART_5.c **** }
 294              		.loc 1 302 0
 295 0006 1846     		mov	r0, r3
 296 0008 BD46     		mov	sp, r7
 297              		.cfi_def_cfa_register 13
 298              		@ sp needed
 299 000a 5DF8047B 		ldr	r7, [sp], #4
 300              		.cfi_restore 7
 301              		.cfi_def_cfa_offset 0
 302 000e 7047     		bx	lr
 303              		.cfi_endproc
 304              	.LFE4:
 305              		.size	UART_5_ReadControlRegister, .-UART_5_ReadControlRegister
 306              		.section	.text.UART_5_WriteControlRegister,"ax",%progbits
 307              		.align	2
 308              		.global	UART_5_WriteControlRegister
 309              		.thumb
 310              		.thumb_func
 311              		.type	UART_5_WriteControlRegister, %function
 312              	UART_5_WriteControlRegister:
 313              	.LFB5:
 303:.\Generated_Source\PSoC5/UART_5.c **** 
 304:.\Generated_Source\PSoC5/UART_5.c **** 
 305:.\Generated_Source\PSoC5/UART_5.c **** /*******************************************************************************
 306:.\Generated_Source\PSoC5/UART_5.c **** * Function Name: UART_5_WriteControlRegister
 307:.\Generated_Source\PSoC5/UART_5.c **** ********************************************************************************
 308:.\Generated_Source\PSoC5/UART_5.c **** *
 309:.\Generated_Source\PSoC5/UART_5.c **** * Summary:
 310:.\Generated_Source\PSoC5/UART_5.c **** *  Writes an 8-bit value into the control register
 311:.\Generated_Source\PSoC5/UART_5.c **** *
 312:.\Generated_Source\PSoC5/UART_5.c **** * Parameters:
 313:.\Generated_Source\PSoC5/UART_5.c **** *  control:  control register value
 314:.\Generated_Source\PSoC5/UART_5.c **** *
ARM GAS  C:\Users\kingi\AppData\Local\Temp\ccjBiHyR.s 			page 12


 315:.\Generated_Source\PSoC5/UART_5.c **** * Return:
 316:.\Generated_Source\PSoC5/UART_5.c **** *  None.
 317:.\Generated_Source\PSoC5/UART_5.c **** *
 318:.\Generated_Source\PSoC5/UART_5.c **** *******************************************************************************/
 319:.\Generated_Source\PSoC5/UART_5.c **** void  UART_5_WriteControlRegister(uint8 control) 
 320:.\Generated_Source\PSoC5/UART_5.c **** {
 314              		.loc 1 320 0
 315              		.cfi_startproc
 316              		@ args = 0, pretend = 0, frame = 8
 317              		@ frame_needed = 1, uses_anonymous_args = 0
 318              		@ link register save eliminated.
 319 0000 80B4     		push	{r7}
 320              		.cfi_def_cfa_offset 4
 321              		.cfi_offset 7, -4
 322 0002 83B0     		sub	sp, sp, #12
 323              		.cfi_def_cfa_offset 16
 324 0004 00AF     		add	r7, sp, #0
 325              		.cfi_def_cfa_register 7
 326 0006 0346     		mov	r3, r0
 327 0008 FB71     		strb	r3, [r7, #7]
 321:.\Generated_Source\PSoC5/UART_5.c ****     #if (UART_5_CONTROL_REG_REMOVED)
 322:.\Generated_Source\PSoC5/UART_5.c ****         if(0u != control)
 323:.\Generated_Source\PSoC5/UART_5.c ****         {
 324:.\Generated_Source\PSoC5/UART_5.c ****             /* Suppress compiler warning */
 325:.\Generated_Source\PSoC5/UART_5.c ****         }
 326:.\Generated_Source\PSoC5/UART_5.c ****     #else
 327:.\Generated_Source\PSoC5/UART_5.c ****        UART_5_CONTROL_REG = control;
 328:.\Generated_Source\PSoC5/UART_5.c ****     #endif /* (UART_5_CONTROL_REG_REMOVED) */
 329:.\Generated_Source\PSoC5/UART_5.c **** }
 328              		.loc 1 329 0
 329 000a 0C37     		adds	r7, r7, #12
 330              		.cfi_def_cfa_offset 4
 331 000c BD46     		mov	sp, r7
 332              		.cfi_def_cfa_register 13
 333              		@ sp needed
 334 000e 5DF8047B 		ldr	r7, [sp], #4
 335              		.cfi_restore 7
 336              		.cfi_def_cfa_offset 0
 337 0012 7047     		bx	lr
 338              		.cfi_endproc
 339              	.LFE5:
 340              		.size	UART_5_WriteControlRegister, .-UART_5_WriteControlRegister
 341              		.section	.text.UART_5_SetRxInterruptMode,"ax",%progbits
 342              		.align	2
 343              		.global	UART_5_SetRxInterruptMode
 344              		.thumb
 345              		.thumb_func
 346              		.type	UART_5_SetRxInterruptMode, %function
 347              	UART_5_SetRxInterruptMode:
 348              	.LFB6:
 330:.\Generated_Source\PSoC5/UART_5.c **** 
 331:.\Generated_Source\PSoC5/UART_5.c **** 
 332:.\Generated_Source\PSoC5/UART_5.c **** #if(UART_5_RX_ENABLED || UART_5_HD_ENABLED)
 333:.\Generated_Source\PSoC5/UART_5.c ****     /*******************************************************************************
 334:.\Generated_Source\PSoC5/UART_5.c ****     * Function Name: UART_5_SetRxInterruptMode
 335:.\Generated_Source\PSoC5/UART_5.c ****     ********************************************************************************
 336:.\Generated_Source\PSoC5/UART_5.c ****     *
ARM GAS  C:\Users\kingi\AppData\Local\Temp\ccjBiHyR.s 			page 13


 337:.\Generated_Source\PSoC5/UART_5.c ****     * Summary:
 338:.\Generated_Source\PSoC5/UART_5.c ****     *  Configures the RX interrupt sources enabled.
 339:.\Generated_Source\PSoC5/UART_5.c ****     *
 340:.\Generated_Source\PSoC5/UART_5.c ****     * Parameters:
 341:.\Generated_Source\PSoC5/UART_5.c ****     *  IntSrc:  Bit field containing the RX interrupts to enable. Based on the 
 342:.\Generated_Source\PSoC5/UART_5.c ****     *  bit-field arrangement of the status register. This value must be a 
 343:.\Generated_Source\PSoC5/UART_5.c ****     *  combination of status register bit-masks shown below:
 344:.\Generated_Source\PSoC5/UART_5.c ****     *      UART_5_RX_STS_FIFO_NOTEMPTY    Interrupt on byte received.
 345:.\Generated_Source\PSoC5/UART_5.c ****     *      UART_5_RX_STS_PAR_ERROR        Interrupt on parity error.
 346:.\Generated_Source\PSoC5/UART_5.c ****     *      UART_5_RX_STS_STOP_ERROR       Interrupt on stop error.
 347:.\Generated_Source\PSoC5/UART_5.c ****     *      UART_5_RX_STS_BREAK            Interrupt on break.
 348:.\Generated_Source\PSoC5/UART_5.c ****     *      UART_5_RX_STS_OVERRUN          Interrupt on overrun error.
 349:.\Generated_Source\PSoC5/UART_5.c ****     *      UART_5_RX_STS_ADDR_MATCH       Interrupt on address match.
 350:.\Generated_Source\PSoC5/UART_5.c ****     *      UART_5_RX_STS_MRKSPC           Interrupt on address detect.
 351:.\Generated_Source\PSoC5/UART_5.c ****     *
 352:.\Generated_Source\PSoC5/UART_5.c ****     * Return:
 353:.\Generated_Source\PSoC5/UART_5.c ****     *  None.
 354:.\Generated_Source\PSoC5/UART_5.c ****     *
 355:.\Generated_Source\PSoC5/UART_5.c ****     * Theory:
 356:.\Generated_Source\PSoC5/UART_5.c ****     *  Enables the output of specific status bits to the interrupt controller
 357:.\Generated_Source\PSoC5/UART_5.c ****     *
 358:.\Generated_Source\PSoC5/UART_5.c ****     *******************************************************************************/
 359:.\Generated_Source\PSoC5/UART_5.c ****     void UART_5_SetRxInterruptMode(uint8 intSrc) 
 360:.\Generated_Source\PSoC5/UART_5.c ****     {
 349              		.loc 1 360 0
 350              		.cfi_startproc
 351              		@ args = 0, pretend = 0, frame = 8
 352              		@ frame_needed = 1, uses_anonymous_args = 0
 353              		@ link register save eliminated.
 354 0000 80B4     		push	{r7}
 355              		.cfi_def_cfa_offset 4
 356              		.cfi_offset 7, -4
 357 0002 83B0     		sub	sp, sp, #12
 358              		.cfi_def_cfa_offset 16
 359 0004 00AF     		add	r7, sp, #0
 360              		.cfi_def_cfa_register 7
 361 0006 0346     		mov	r3, r0
 362 0008 FB71     		strb	r3, [r7, #7]
 361:.\Generated_Source\PSoC5/UART_5.c ****         UART_5_RXSTATUS_MASK_REG  = intSrc;
 363              		.loc 1 361 0
 364 000a 044A     		ldr	r2, .L18
 365 000c FB79     		ldrb	r3, [r7, #7]
 366 000e 1370     		strb	r3, [r2]
 362:.\Generated_Source\PSoC5/UART_5.c ****     }
 367              		.loc 1 362 0
 368 0010 0C37     		adds	r7, r7, #12
 369              		.cfi_def_cfa_offset 4
 370 0012 BD46     		mov	sp, r7
 371              		.cfi_def_cfa_register 13
 372              		@ sp needed
 373 0014 5DF8047B 		ldr	r7, [sp], #4
 374              		.cfi_restore 7
 375              		.cfi_def_cfa_offset 0
 376 0018 7047     		bx	lr
 377              	.L19:
 378 001a 00BF     		.align	2
 379              	.L18:
ARM GAS  C:\Users\kingi\AppData\Local\Temp\ccjBiHyR.s 			page 14


 380 001c 83640040 		.word	1073767555
 381              		.cfi_endproc
 382              	.LFE6:
 383              		.size	UART_5_SetRxInterruptMode, .-UART_5_SetRxInterruptMode
 384              		.section	.text.UART_5_ReadRxData,"ax",%progbits
 385              		.align	2
 386              		.global	UART_5_ReadRxData
 387              		.thumb
 388              		.thumb_func
 389              		.type	UART_5_ReadRxData, %function
 390              	UART_5_ReadRxData:
 391              	.LFB7:
 363:.\Generated_Source\PSoC5/UART_5.c **** 
 364:.\Generated_Source\PSoC5/UART_5.c **** 
 365:.\Generated_Source\PSoC5/UART_5.c ****     /*******************************************************************************
 366:.\Generated_Source\PSoC5/UART_5.c ****     * Function Name: UART_5_ReadRxData
 367:.\Generated_Source\PSoC5/UART_5.c ****     ********************************************************************************
 368:.\Generated_Source\PSoC5/UART_5.c ****     *
 369:.\Generated_Source\PSoC5/UART_5.c ****     * Summary:
 370:.\Generated_Source\PSoC5/UART_5.c ****     *  Returns the next byte of received data. This function returns data without
 371:.\Generated_Source\PSoC5/UART_5.c ****     *  checking the status. You must check the status separately.
 372:.\Generated_Source\PSoC5/UART_5.c ****     *
 373:.\Generated_Source\PSoC5/UART_5.c ****     * Parameters:
 374:.\Generated_Source\PSoC5/UART_5.c ****     *  None.
 375:.\Generated_Source\PSoC5/UART_5.c ****     *
 376:.\Generated_Source\PSoC5/UART_5.c ****     * Return:
 377:.\Generated_Source\PSoC5/UART_5.c ****     *  Received data from RX register
 378:.\Generated_Source\PSoC5/UART_5.c ****     *
 379:.\Generated_Source\PSoC5/UART_5.c ****     * Global Variables:
 380:.\Generated_Source\PSoC5/UART_5.c ****     *  UART_5_rxBuffer - RAM buffer pointer for save received data.
 381:.\Generated_Source\PSoC5/UART_5.c ****     *  UART_5_rxBufferWrite - cyclic index for write to rxBuffer,
 382:.\Generated_Source\PSoC5/UART_5.c ****     *     checked to identify new data.
 383:.\Generated_Source\PSoC5/UART_5.c ****     *  UART_5_rxBufferRead - cyclic index for read from rxBuffer,
 384:.\Generated_Source\PSoC5/UART_5.c ****     *     incremented after each byte has been read from buffer.
 385:.\Generated_Source\PSoC5/UART_5.c ****     *  UART_5_rxBufferLoopDetect - cleared if loop condition was detected
 386:.\Generated_Source\PSoC5/UART_5.c ****     *     in RX ISR.
 387:.\Generated_Source\PSoC5/UART_5.c ****     *
 388:.\Generated_Source\PSoC5/UART_5.c ****     * Reentrant:
 389:.\Generated_Source\PSoC5/UART_5.c ****     *  No.
 390:.\Generated_Source\PSoC5/UART_5.c ****     *
 391:.\Generated_Source\PSoC5/UART_5.c ****     *******************************************************************************/
 392:.\Generated_Source\PSoC5/UART_5.c ****     uint8 UART_5_ReadRxData(void) 
 393:.\Generated_Source\PSoC5/UART_5.c ****     {
 392              		.loc 1 393 0
 393              		.cfi_startproc
 394              		@ args = 0, pretend = 0, frame = 8
 395              		@ frame_needed = 1, uses_anonymous_args = 0
 396              		@ link register save eliminated.
 397 0000 80B4     		push	{r7}
 398              		.cfi_def_cfa_offset 4
 399              		.cfi_offset 7, -4
 400 0002 83B0     		sub	sp, sp, #12
 401              		.cfi_def_cfa_offset 16
 402 0004 00AF     		add	r7, sp, #0
 403              		.cfi_def_cfa_register 7
 394:.\Generated_Source\PSoC5/UART_5.c ****         uint8 rxData;
 395:.\Generated_Source\PSoC5/UART_5.c **** 
ARM GAS  C:\Users\kingi\AppData\Local\Temp\ccjBiHyR.s 			page 15


 396:.\Generated_Source\PSoC5/UART_5.c ****     #if (UART_5_RX_INTERRUPT_ENABLED)
 397:.\Generated_Source\PSoC5/UART_5.c **** 
 398:.\Generated_Source\PSoC5/UART_5.c ****         uint8 locRxBufferRead;
 399:.\Generated_Source\PSoC5/UART_5.c ****         uint8 locRxBufferWrite;
 400:.\Generated_Source\PSoC5/UART_5.c **** 
 401:.\Generated_Source\PSoC5/UART_5.c ****         /* Protect variables that could change on interrupt */
 402:.\Generated_Source\PSoC5/UART_5.c ****         UART_5_DisableRxInt();
 404              		.loc 1 402 0
 405 0006 1C4B     		ldr	r3, .L27
 406 0008 4022     		movs	r2, #64
 407 000a 1A60     		str	r2, [r3]
 403:.\Generated_Source\PSoC5/UART_5.c **** 
 404:.\Generated_Source\PSoC5/UART_5.c ****         locRxBufferRead  = UART_5_rxBufferRead;
 408              		.loc 1 404 0
 409 000c 1B4B     		ldr	r3, .L27+4
 410 000e 1B78     		ldrb	r3, [r3]
 411 0010 BB71     		strb	r3, [r7, #6]
 405:.\Generated_Source\PSoC5/UART_5.c ****         locRxBufferWrite = UART_5_rxBufferWrite;
 412              		.loc 1 405 0
 413 0012 1B4B     		ldr	r3, .L27+8
 414 0014 1B78     		ldrb	r3, [r3]
 415 0016 7B71     		strb	r3, [r7, #5]
 406:.\Generated_Source\PSoC5/UART_5.c **** 
 407:.\Generated_Source\PSoC5/UART_5.c ****         if( (UART_5_rxBufferLoopDetect != 0u) || (locRxBufferRead != locRxBufferWrite) )
 416              		.loc 1 407 0
 417 0018 1A4B     		ldr	r3, .L27+12
 418 001a 1B78     		ldrb	r3, [r3]
 419 001c DBB2     		uxtb	r3, r3
 420 001e 002B     		cmp	r3, #0
 421 0020 03D1     		bne	.L21
 422              		.loc 1 407 0 is_stmt 0 discriminator 1
 423 0022 BA79     		ldrb	r2, [r7, #6]	@ zero_extendqisi2
 424 0024 7B79     		ldrb	r3, [r7, #5]	@ zero_extendqisi2
 425 0026 9A42     		cmp	r2, r3
 426 0028 18D0     		beq	.L22
 427              	.L21:
 408:.\Generated_Source\PSoC5/UART_5.c ****         {
 409:.\Generated_Source\PSoC5/UART_5.c ****             rxData = UART_5_rxBuffer[locRxBufferRead];
 428              		.loc 1 409 0 is_stmt 1
 429 002a BB79     		ldrb	r3, [r7, #6]	@ zero_extendqisi2
 430 002c 164A     		ldr	r2, .L27+16
 431 002e D35C     		ldrb	r3, [r2, r3]
 432 0030 FB71     		strb	r3, [r7, #7]
 410:.\Generated_Source\PSoC5/UART_5.c ****             locRxBufferRead++;
 433              		.loc 1 410 0
 434 0032 BB79     		ldrb	r3, [r7, #6]	@ zero_extendqisi2
 435 0034 0133     		adds	r3, r3, #1
 436 0036 BB71     		strb	r3, [r7, #6]
 411:.\Generated_Source\PSoC5/UART_5.c **** 
 412:.\Generated_Source\PSoC5/UART_5.c ****             if(locRxBufferRead >= UART_5_RX_BUFFER_SIZE)
 437              		.loc 1 412 0
 438 0038 BB79     		ldrb	r3, [r7, #6]	@ zero_extendqisi2
 439 003a 192B     		cmp	r3, #25
 440 003c 01D9     		bls	.L23
 413:.\Generated_Source\PSoC5/UART_5.c ****             {
 414:.\Generated_Source\PSoC5/UART_5.c ****                 locRxBufferRead = 0u;
 441              		.loc 1 414 0
ARM GAS  C:\Users\kingi\AppData\Local\Temp\ccjBiHyR.s 			page 16


 442 003e 0023     		movs	r3, #0
 443 0040 BB71     		strb	r3, [r7, #6]
 444              	.L23:
 415:.\Generated_Source\PSoC5/UART_5.c ****             }
 416:.\Generated_Source\PSoC5/UART_5.c ****             /* Update the real pointer */
 417:.\Generated_Source\PSoC5/UART_5.c ****             UART_5_rxBufferRead = locRxBufferRead;
 445              		.loc 1 417 0
 446 0042 0E4A     		ldr	r2, .L27+4
 447 0044 BB79     		ldrb	r3, [r7, #6]
 448 0046 1370     		strb	r3, [r2]
 418:.\Generated_Source\PSoC5/UART_5.c **** 
 419:.\Generated_Source\PSoC5/UART_5.c ****             if(UART_5_rxBufferLoopDetect != 0u)
 449              		.loc 1 419 0
 450 0048 0E4B     		ldr	r3, .L27+12
 451 004a 1B78     		ldrb	r3, [r3]
 452 004c DBB2     		uxtb	r3, r3
 453 004e 002B     		cmp	r3, #0
 454 0050 03D0     		beq	.L24
 420:.\Generated_Source\PSoC5/UART_5.c ****             {
 421:.\Generated_Source\PSoC5/UART_5.c ****                 UART_5_rxBufferLoopDetect = 0u;
 455              		.loc 1 421 0
 456 0052 0C4B     		ldr	r3, .L27+12
 457 0054 0022     		movs	r2, #0
 458 0056 1A70     		strb	r2, [r3]
 419:.\Generated_Source\PSoC5/UART_5.c ****             {
 459              		.loc 1 419 0
 460 0058 03E0     		b	.L25
 461              	.L24:
 462 005a 02E0     		b	.L25
 463              	.L22:
 422:.\Generated_Source\PSoC5/UART_5.c ****                 #if ((UART_5_RX_INTERRUPT_ENABLED) && (UART_5_FLOW_CONTROL != 0u))
 423:.\Generated_Source\PSoC5/UART_5.c ****                     /* When Hardware Flow Control selected - return RX mask */
 424:.\Generated_Source\PSoC5/UART_5.c ****                     #if( UART_5_HD_ENABLED )
 425:.\Generated_Source\PSoC5/UART_5.c ****                         if((UART_5_CONTROL_REG & UART_5_CTRL_HD_SEND) == 0u)
 426:.\Generated_Source\PSoC5/UART_5.c ****                         {   /* In Half duplex mode return RX mask only in RX
 427:.\Generated_Source\PSoC5/UART_5.c ****                             *  configuration set, otherwise
 428:.\Generated_Source\PSoC5/UART_5.c ****                             *  mask will be returned in LoadRxConfig() API.
 429:.\Generated_Source\PSoC5/UART_5.c ****                             */
 430:.\Generated_Source\PSoC5/UART_5.c ****                             UART_5_RXSTATUS_MASK_REG  |= UART_5_RX_STS_FIFO_NOTEMPTY;
 431:.\Generated_Source\PSoC5/UART_5.c ****                         }
 432:.\Generated_Source\PSoC5/UART_5.c ****                     #else
 433:.\Generated_Source\PSoC5/UART_5.c ****                         UART_5_RXSTATUS_MASK_REG  |= UART_5_RX_STS_FIFO_NOTEMPTY;
 434:.\Generated_Source\PSoC5/UART_5.c ****                     #endif /* end UART_5_HD_ENABLED */
 435:.\Generated_Source\PSoC5/UART_5.c ****                 #endif /* ((UART_5_RX_INTERRUPT_ENABLED) && (UART_5_FLOW_CONTROL != 0u)) */
 436:.\Generated_Source\PSoC5/UART_5.c ****             }
 437:.\Generated_Source\PSoC5/UART_5.c ****         }
 438:.\Generated_Source\PSoC5/UART_5.c ****         else
 439:.\Generated_Source\PSoC5/UART_5.c ****         {   /* Needs to check status for RX_STS_FIFO_NOTEMPTY bit */
 440:.\Generated_Source\PSoC5/UART_5.c ****             rxData = UART_5_RXDATA_REG;
 464              		.loc 1 440 0
 465 005c 0B4B     		ldr	r3, .L27+20
 466 005e 1B78     		ldrb	r3, [r3]
 467 0060 FB71     		strb	r3, [r7, #7]
 468              	.L25:
 441:.\Generated_Source\PSoC5/UART_5.c ****         }
 442:.\Generated_Source\PSoC5/UART_5.c **** 
 443:.\Generated_Source\PSoC5/UART_5.c ****         UART_5_EnableRxInt();
ARM GAS  C:\Users\kingi\AppData\Local\Temp\ccjBiHyR.s 			page 17


 469              		.loc 1 443 0
 470 0062 0B4B     		ldr	r3, .L27+24
 471 0064 4022     		movs	r2, #64
 472 0066 1A60     		str	r2, [r3]
 444:.\Generated_Source\PSoC5/UART_5.c **** 
 445:.\Generated_Source\PSoC5/UART_5.c ****     #else
 446:.\Generated_Source\PSoC5/UART_5.c **** 
 447:.\Generated_Source\PSoC5/UART_5.c ****         /* Needs to check status for RX_STS_FIFO_NOTEMPTY bit */
 448:.\Generated_Source\PSoC5/UART_5.c ****         rxData = UART_5_RXDATA_REG;
 449:.\Generated_Source\PSoC5/UART_5.c **** 
 450:.\Generated_Source\PSoC5/UART_5.c ****     #endif /* (UART_5_RX_INTERRUPT_ENABLED) */
 451:.\Generated_Source\PSoC5/UART_5.c **** 
 452:.\Generated_Source\PSoC5/UART_5.c ****         return(rxData);
 473              		.loc 1 452 0
 474 0068 FB79     		ldrb	r3, [r7, #7]	@ zero_extendqisi2
 453:.\Generated_Source\PSoC5/UART_5.c ****     }
 475              		.loc 1 453 0
 476 006a 1846     		mov	r0, r3
 477 006c 0C37     		adds	r7, r7, #12
 478              		.cfi_def_cfa_offset 4
 479 006e BD46     		mov	sp, r7
 480              		.cfi_def_cfa_register 13
 481              		@ sp needed
 482 0070 5DF8047B 		ldr	r7, [sp], #4
 483              		.cfi_restore 7
 484              		.cfi_def_cfa_offset 0
 485 0074 7047     		bx	lr
 486              	.L28:
 487 0076 00BF     		.align	2
 488              	.L27:
 489 0078 80E100E0 		.word	-536813184
 490 007c 00000000 		.word	UART_5_rxBufferRead
 491 0080 00000000 		.word	UART_5_rxBufferWrite
 492 0084 00000000 		.word	UART_5_rxBufferLoopDetect
 493 0088 00000000 		.word	UART_5_rxBuffer
 494 008c 44640040 		.word	1073767492
 495 0090 00E100E0 		.word	-536813312
 496              		.cfi_endproc
 497              	.LFE7:
 498              		.size	UART_5_ReadRxData, .-UART_5_ReadRxData
 499              		.section	.text.UART_5_ReadRxStatus,"ax",%progbits
 500              		.align	2
 501              		.global	UART_5_ReadRxStatus
 502              		.thumb
 503              		.thumb_func
 504              		.type	UART_5_ReadRxStatus, %function
 505              	UART_5_ReadRxStatus:
 506              	.LFB8:
 454:.\Generated_Source\PSoC5/UART_5.c **** 
 455:.\Generated_Source\PSoC5/UART_5.c **** 
 456:.\Generated_Source\PSoC5/UART_5.c ****     /*******************************************************************************
 457:.\Generated_Source\PSoC5/UART_5.c ****     * Function Name: UART_5_ReadRxStatus
 458:.\Generated_Source\PSoC5/UART_5.c ****     ********************************************************************************
 459:.\Generated_Source\PSoC5/UART_5.c ****     *
 460:.\Generated_Source\PSoC5/UART_5.c ****     * Summary:
 461:.\Generated_Source\PSoC5/UART_5.c ****     *  Returns the current state of the receiver status register and the software
 462:.\Generated_Source\PSoC5/UART_5.c ****     *  buffer overflow status.
ARM GAS  C:\Users\kingi\AppData\Local\Temp\ccjBiHyR.s 			page 18


 463:.\Generated_Source\PSoC5/UART_5.c ****     *
 464:.\Generated_Source\PSoC5/UART_5.c ****     * Parameters:
 465:.\Generated_Source\PSoC5/UART_5.c ****     *  None.
 466:.\Generated_Source\PSoC5/UART_5.c ****     *
 467:.\Generated_Source\PSoC5/UART_5.c ****     * Return:
 468:.\Generated_Source\PSoC5/UART_5.c ****     *  Current state of the status register.
 469:.\Generated_Source\PSoC5/UART_5.c ****     *
 470:.\Generated_Source\PSoC5/UART_5.c ****     * Side Effect:
 471:.\Generated_Source\PSoC5/UART_5.c ****     *  All status register bits are clear-on-read except
 472:.\Generated_Source\PSoC5/UART_5.c ****     *  UART_5_RX_STS_FIFO_NOTEMPTY.
 473:.\Generated_Source\PSoC5/UART_5.c ****     *  UART_5_RX_STS_FIFO_NOTEMPTY clears immediately after RX data
 474:.\Generated_Source\PSoC5/UART_5.c ****     *  register read.
 475:.\Generated_Source\PSoC5/UART_5.c ****     *
 476:.\Generated_Source\PSoC5/UART_5.c ****     * Global Variables:
 477:.\Generated_Source\PSoC5/UART_5.c ****     *  UART_5_rxBufferOverflow - used to indicate overload condition.
 478:.\Generated_Source\PSoC5/UART_5.c ****     *   It set to one in RX interrupt when there isn't free space in
 479:.\Generated_Source\PSoC5/UART_5.c ****     *   UART_5_rxBufferRead to write new data. This condition returned
 480:.\Generated_Source\PSoC5/UART_5.c ****     *   and cleared to zero by this API as an
 481:.\Generated_Source\PSoC5/UART_5.c ****     *   UART_5_RX_STS_SOFT_BUFF_OVER bit along with RX Status register
 482:.\Generated_Source\PSoC5/UART_5.c ****     *   bits.
 483:.\Generated_Source\PSoC5/UART_5.c ****     *
 484:.\Generated_Source\PSoC5/UART_5.c ****     *******************************************************************************/
 485:.\Generated_Source\PSoC5/UART_5.c ****     uint8 UART_5_ReadRxStatus(void) 
 486:.\Generated_Source\PSoC5/UART_5.c ****     {
 507              		.loc 1 486 0
 508              		.cfi_startproc
 509              		@ args = 0, pretend = 0, frame = 8
 510              		@ frame_needed = 1, uses_anonymous_args = 0
 511              		@ link register save eliminated.
 512 0000 80B4     		push	{r7}
 513              		.cfi_def_cfa_offset 4
 514              		.cfi_offset 7, -4
 515 0002 83B0     		sub	sp, sp, #12
 516              		.cfi_def_cfa_offset 16
 517 0004 00AF     		add	r7, sp, #0
 518              		.cfi_def_cfa_register 7
 487:.\Generated_Source\PSoC5/UART_5.c ****         uint8 status;
 488:.\Generated_Source\PSoC5/UART_5.c **** 
 489:.\Generated_Source\PSoC5/UART_5.c ****         status = UART_5_RXSTATUS_REG & UART_5_RX_HW_MASK;
 519              		.loc 1 489 0
 520 0006 0C4B     		ldr	r3, .L32
 521 0008 1B78     		ldrb	r3, [r3]
 522 000a DBB2     		uxtb	r3, r3
 523 000c 03F07F03 		and	r3, r3, #127
 524 0010 FB71     		strb	r3, [r7, #7]
 490:.\Generated_Source\PSoC5/UART_5.c **** 
 491:.\Generated_Source\PSoC5/UART_5.c ****     #if (UART_5_RX_INTERRUPT_ENABLED)
 492:.\Generated_Source\PSoC5/UART_5.c ****         if(UART_5_rxBufferOverflow != 0u)
 525              		.loc 1 492 0
 526 0012 0A4B     		ldr	r3, .L32+4
 527 0014 1B78     		ldrb	r3, [r3]
 528 0016 DBB2     		uxtb	r3, r3
 529 0018 002B     		cmp	r3, #0
 530 001a 06D0     		beq	.L30
 493:.\Generated_Source\PSoC5/UART_5.c ****         {
 494:.\Generated_Source\PSoC5/UART_5.c ****             status |= UART_5_RX_STS_SOFT_BUFF_OVER;
 531              		.loc 1 494 0
ARM GAS  C:\Users\kingi\AppData\Local\Temp\ccjBiHyR.s 			page 19


 532 001c FB79     		ldrb	r3, [r7, #7]
 533 001e 63F07F03 		orn	r3, r3, #127
 534 0022 FB71     		strb	r3, [r7, #7]
 495:.\Generated_Source\PSoC5/UART_5.c ****             UART_5_rxBufferOverflow = 0u;
 535              		.loc 1 495 0
 536 0024 054B     		ldr	r3, .L32+4
 537 0026 0022     		movs	r2, #0
 538 0028 1A70     		strb	r2, [r3]
 539              	.L30:
 496:.\Generated_Source\PSoC5/UART_5.c ****         }
 497:.\Generated_Source\PSoC5/UART_5.c ****     #endif /* (UART_5_RX_INTERRUPT_ENABLED) */
 498:.\Generated_Source\PSoC5/UART_5.c **** 
 499:.\Generated_Source\PSoC5/UART_5.c ****         return(status);
 540              		.loc 1 499 0
 541 002a FB79     		ldrb	r3, [r7, #7]	@ zero_extendqisi2
 500:.\Generated_Source\PSoC5/UART_5.c ****     }
 542              		.loc 1 500 0
 543 002c 1846     		mov	r0, r3
 544 002e 0C37     		adds	r7, r7, #12
 545              		.cfi_def_cfa_offset 4
 546 0030 BD46     		mov	sp, r7
 547              		.cfi_def_cfa_register 13
 548              		@ sp needed
 549 0032 5DF8047B 		ldr	r7, [sp], #4
 550              		.cfi_restore 7
 551              		.cfi_def_cfa_offset 0
 552 0036 7047     		bx	lr
 553              	.L33:
 554              		.align	2
 555              	.L32:
 556 0038 63640040 		.word	1073767523
 557 003c 00000000 		.word	UART_5_rxBufferOverflow
 558              		.cfi_endproc
 559              	.LFE8:
 560              		.size	UART_5_ReadRxStatus, .-UART_5_ReadRxStatus
 561              		.section	.text.UART_5_GetChar,"ax",%progbits
 562              		.align	2
 563              		.global	UART_5_GetChar
 564              		.thumb
 565              		.thumb_func
 566              		.type	UART_5_GetChar, %function
 567              	UART_5_GetChar:
 568              	.LFB9:
 501:.\Generated_Source\PSoC5/UART_5.c **** 
 502:.\Generated_Source\PSoC5/UART_5.c **** 
 503:.\Generated_Source\PSoC5/UART_5.c ****     /*******************************************************************************
 504:.\Generated_Source\PSoC5/UART_5.c ****     * Function Name: UART_5_GetChar
 505:.\Generated_Source\PSoC5/UART_5.c ****     ********************************************************************************
 506:.\Generated_Source\PSoC5/UART_5.c ****     *
 507:.\Generated_Source\PSoC5/UART_5.c ****     * Summary:
 508:.\Generated_Source\PSoC5/UART_5.c ****     *  Returns the last received byte of data. UART_5_GetChar() is
 509:.\Generated_Source\PSoC5/UART_5.c ****     *  designed for ASCII characters and returns a uint8 where 1 to 255 are values
 510:.\Generated_Source\PSoC5/UART_5.c ****     *  for valid characters and 0 indicates an error occurred or no data is present.
 511:.\Generated_Source\PSoC5/UART_5.c ****     *
 512:.\Generated_Source\PSoC5/UART_5.c ****     * Parameters:
 513:.\Generated_Source\PSoC5/UART_5.c ****     *  None.
 514:.\Generated_Source\PSoC5/UART_5.c ****     *
ARM GAS  C:\Users\kingi\AppData\Local\Temp\ccjBiHyR.s 			page 20


 515:.\Generated_Source\PSoC5/UART_5.c ****     * Return:
 516:.\Generated_Source\PSoC5/UART_5.c ****     *  Character read from UART RX buffer. ASCII characters from 1 to 255 are valid.
 517:.\Generated_Source\PSoC5/UART_5.c ****     *  A returned zero signifies an error condition or no data available.
 518:.\Generated_Source\PSoC5/UART_5.c ****     *
 519:.\Generated_Source\PSoC5/UART_5.c ****     * Global Variables:
 520:.\Generated_Source\PSoC5/UART_5.c ****     *  UART_5_rxBuffer - RAM buffer pointer for save received data.
 521:.\Generated_Source\PSoC5/UART_5.c ****     *  UART_5_rxBufferWrite - cyclic index for write to rxBuffer,
 522:.\Generated_Source\PSoC5/UART_5.c ****     *     checked to identify new data.
 523:.\Generated_Source\PSoC5/UART_5.c ****     *  UART_5_rxBufferRead - cyclic index for read from rxBuffer,
 524:.\Generated_Source\PSoC5/UART_5.c ****     *     incremented after each byte has been read from buffer.
 525:.\Generated_Source\PSoC5/UART_5.c ****     *  UART_5_rxBufferLoopDetect - cleared if loop condition was detected
 526:.\Generated_Source\PSoC5/UART_5.c ****     *     in RX ISR.
 527:.\Generated_Source\PSoC5/UART_5.c ****     *
 528:.\Generated_Source\PSoC5/UART_5.c ****     * Reentrant:
 529:.\Generated_Source\PSoC5/UART_5.c ****     *  No.
 530:.\Generated_Source\PSoC5/UART_5.c ****     *
 531:.\Generated_Source\PSoC5/UART_5.c ****     *******************************************************************************/
 532:.\Generated_Source\PSoC5/UART_5.c ****     uint8 UART_5_GetChar(void) 
 533:.\Generated_Source\PSoC5/UART_5.c ****     {
 569              		.loc 1 533 0
 570              		.cfi_startproc
 571              		@ args = 0, pretend = 0, frame = 8
 572              		@ frame_needed = 1, uses_anonymous_args = 0
 573              		@ link register save eliminated.
 574 0000 80B4     		push	{r7}
 575              		.cfi_def_cfa_offset 4
 576              		.cfi_offset 7, -4
 577 0002 83B0     		sub	sp, sp, #12
 578              		.cfi_def_cfa_offset 16
 579 0004 00AF     		add	r7, sp, #0
 580              		.cfi_def_cfa_register 7
 534:.\Generated_Source\PSoC5/UART_5.c ****         uint8 rxData = 0u;
 581              		.loc 1 534 0
 582 0006 0023     		movs	r3, #0
 583 0008 FB71     		strb	r3, [r7, #7]
 535:.\Generated_Source\PSoC5/UART_5.c ****         uint8 rxStatus;
 536:.\Generated_Source\PSoC5/UART_5.c **** 
 537:.\Generated_Source\PSoC5/UART_5.c ****     #if (UART_5_RX_INTERRUPT_ENABLED)
 538:.\Generated_Source\PSoC5/UART_5.c ****         uint8 locRxBufferRead;
 539:.\Generated_Source\PSoC5/UART_5.c ****         uint8 locRxBufferWrite;
 540:.\Generated_Source\PSoC5/UART_5.c **** 
 541:.\Generated_Source\PSoC5/UART_5.c ****         /* Protect variables that could change on interrupt */
 542:.\Generated_Source\PSoC5/UART_5.c ****         UART_5_DisableRxInt();
 584              		.loc 1 542 0
 585 000a 234B     		ldr	r3, .L41
 586 000c 4022     		movs	r2, #64
 587 000e 1A60     		str	r2, [r3]
 543:.\Generated_Source\PSoC5/UART_5.c **** 
 544:.\Generated_Source\PSoC5/UART_5.c ****         locRxBufferRead  = UART_5_rxBufferRead;
 588              		.loc 1 544 0
 589 0010 224B     		ldr	r3, .L41+4
 590 0012 1B78     		ldrb	r3, [r3]
 591 0014 BB71     		strb	r3, [r7, #6]
 545:.\Generated_Source\PSoC5/UART_5.c ****         locRxBufferWrite = UART_5_rxBufferWrite;
 592              		.loc 1 545 0
 593 0016 224B     		ldr	r3, .L41+8
 594 0018 1B78     		ldrb	r3, [r3]
ARM GAS  C:\Users\kingi\AppData\Local\Temp\ccjBiHyR.s 			page 21


 595 001a 7B71     		strb	r3, [r7, #5]
 546:.\Generated_Source\PSoC5/UART_5.c **** 
 547:.\Generated_Source\PSoC5/UART_5.c ****         if( (UART_5_rxBufferLoopDetect != 0u) || (locRxBufferRead != locRxBufferWrite) )
 596              		.loc 1 547 0
 597 001c 214B     		ldr	r3, .L41+12
 598 001e 1B78     		ldrb	r3, [r3]
 599 0020 DBB2     		uxtb	r3, r3
 600 0022 002B     		cmp	r3, #0
 601 0024 03D1     		bne	.L35
 602              		.loc 1 547 0 is_stmt 0 discriminator 1
 603 0026 BA79     		ldrb	r2, [r7, #6]	@ zero_extendqisi2
 604 0028 7B79     		ldrb	r3, [r7, #5]	@ zero_extendqisi2
 605 002a 9A42     		cmp	r2, r3
 606 002c 18D0     		beq	.L36
 607              	.L35:
 548:.\Generated_Source\PSoC5/UART_5.c ****         {
 549:.\Generated_Source\PSoC5/UART_5.c ****             rxData = UART_5_rxBuffer[locRxBufferRead];
 608              		.loc 1 549 0 is_stmt 1
 609 002e BB79     		ldrb	r3, [r7, #6]	@ zero_extendqisi2
 610 0030 1D4A     		ldr	r2, .L41+16
 611 0032 D35C     		ldrb	r3, [r2, r3]
 612 0034 FB71     		strb	r3, [r7, #7]
 550:.\Generated_Source\PSoC5/UART_5.c ****             locRxBufferRead++;
 613              		.loc 1 550 0
 614 0036 BB79     		ldrb	r3, [r7, #6]	@ zero_extendqisi2
 615 0038 0133     		adds	r3, r3, #1
 616 003a BB71     		strb	r3, [r7, #6]
 551:.\Generated_Source\PSoC5/UART_5.c ****             if(locRxBufferRead >= UART_5_RX_BUFFER_SIZE)
 617              		.loc 1 551 0
 618 003c BB79     		ldrb	r3, [r7, #6]	@ zero_extendqisi2
 619 003e 192B     		cmp	r3, #25
 620 0040 01D9     		bls	.L37
 552:.\Generated_Source\PSoC5/UART_5.c ****             {
 553:.\Generated_Source\PSoC5/UART_5.c ****                 locRxBufferRead = 0u;
 621              		.loc 1 553 0
 622 0042 0023     		movs	r3, #0
 623 0044 BB71     		strb	r3, [r7, #6]
 624              	.L37:
 554:.\Generated_Source\PSoC5/UART_5.c ****             }
 555:.\Generated_Source\PSoC5/UART_5.c ****             /* Update the real pointer */
 556:.\Generated_Source\PSoC5/UART_5.c ****             UART_5_rxBufferRead = locRxBufferRead;
 625              		.loc 1 556 0
 626 0046 154A     		ldr	r2, .L41+4
 627 0048 BB79     		ldrb	r3, [r7, #6]
 628 004a 1370     		strb	r3, [r2]
 557:.\Generated_Source\PSoC5/UART_5.c **** 
 558:.\Generated_Source\PSoC5/UART_5.c ****             if(UART_5_rxBufferLoopDetect != 0u)
 629              		.loc 1 558 0
 630 004c 154B     		ldr	r3, .L41+12
 631 004e 1B78     		ldrb	r3, [r3]
 632 0050 DBB2     		uxtb	r3, r3
 633 0052 002B     		cmp	r3, #0
 634 0054 03D0     		beq	.L38
 559:.\Generated_Source\PSoC5/UART_5.c ****             {
 560:.\Generated_Source\PSoC5/UART_5.c ****                 UART_5_rxBufferLoopDetect = 0u;
 635              		.loc 1 560 0
 636 0056 134B     		ldr	r3, .L41+12
ARM GAS  C:\Users\kingi\AppData\Local\Temp\ccjBiHyR.s 			page 22


 637 0058 0022     		movs	r2, #0
 638 005a 1A70     		strb	r2, [r3]
 558:.\Generated_Source\PSoC5/UART_5.c ****             {
 639              		.loc 1 558 0
 640 005c 12E0     		b	.L39
 641              	.L38:
 642 005e 11E0     		b	.L39
 643              	.L36:
 561:.\Generated_Source\PSoC5/UART_5.c ****                 #if( (UART_5_RX_INTERRUPT_ENABLED) && (UART_5_FLOW_CONTROL != 0u) )
 562:.\Generated_Source\PSoC5/UART_5.c ****                     /* When Hardware Flow Control selected - return RX mask */
 563:.\Generated_Source\PSoC5/UART_5.c ****                     #if( UART_5_HD_ENABLED )
 564:.\Generated_Source\PSoC5/UART_5.c ****                         if((UART_5_CONTROL_REG & UART_5_CTRL_HD_SEND) == 0u)
 565:.\Generated_Source\PSoC5/UART_5.c ****                         {   /* In Half duplex mode return RX mask only if
 566:.\Generated_Source\PSoC5/UART_5.c ****                             *  RX configuration set, otherwise
 567:.\Generated_Source\PSoC5/UART_5.c ****                             *  mask will be returned in LoadRxConfig() API.
 568:.\Generated_Source\PSoC5/UART_5.c ****                             */
 569:.\Generated_Source\PSoC5/UART_5.c ****                             UART_5_RXSTATUS_MASK_REG |= UART_5_RX_STS_FIFO_NOTEMPTY;
 570:.\Generated_Source\PSoC5/UART_5.c ****                         }
 571:.\Generated_Source\PSoC5/UART_5.c ****                     #else
 572:.\Generated_Source\PSoC5/UART_5.c ****                         UART_5_RXSTATUS_MASK_REG |= UART_5_RX_STS_FIFO_NOTEMPTY;
 573:.\Generated_Source\PSoC5/UART_5.c ****                     #endif /* end UART_5_HD_ENABLED */
 574:.\Generated_Source\PSoC5/UART_5.c ****                 #endif /* UART_5_RX_INTERRUPT_ENABLED and Hardware flow control*/
 575:.\Generated_Source\PSoC5/UART_5.c ****             }
 576:.\Generated_Source\PSoC5/UART_5.c **** 
 577:.\Generated_Source\PSoC5/UART_5.c ****         }
 578:.\Generated_Source\PSoC5/UART_5.c ****         else
 579:.\Generated_Source\PSoC5/UART_5.c ****         {   rxStatus = UART_5_RXSTATUS_REG;
 644              		.loc 1 579 0
 645 0060 124B     		ldr	r3, .L41+20
 646 0062 1B78     		ldrb	r3, [r3]
 647 0064 3B71     		strb	r3, [r7, #4]
 580:.\Generated_Source\PSoC5/UART_5.c ****             if((rxStatus & UART_5_RX_STS_FIFO_NOTEMPTY) != 0u)
 648              		.loc 1 580 0
 649 0066 3B79     		ldrb	r3, [r7, #4]	@ zero_extendqisi2
 650 0068 03F02003 		and	r3, r3, #32
 651 006c 002B     		cmp	r3, #0
 652 006e 09D0     		beq	.L39
 581:.\Generated_Source\PSoC5/UART_5.c ****             {   /* Read received data from FIFO */
 582:.\Generated_Source\PSoC5/UART_5.c ****                 rxData = UART_5_RXDATA_REG;
 653              		.loc 1 582 0
 654 0070 0F4B     		ldr	r3, .L41+24
 655 0072 1B78     		ldrb	r3, [r3]
 656 0074 FB71     		strb	r3, [r7, #7]
 583:.\Generated_Source\PSoC5/UART_5.c ****                 /*Check status on error*/
 584:.\Generated_Source\PSoC5/UART_5.c ****                 if((rxStatus & (UART_5_RX_STS_BREAK | UART_5_RX_STS_PAR_ERROR |
 585:.\Generated_Source\PSoC5/UART_5.c ****                                 UART_5_RX_STS_STOP_ERROR | UART_5_RX_STS_OVERRUN)) != 0u)
 657              		.loc 1 585 0
 658 0076 3B79     		ldrb	r3, [r7, #4]	@ zero_extendqisi2
 659 0078 03F01E03 		and	r3, r3, #30
 584:.\Generated_Source\PSoC5/UART_5.c ****                                 UART_5_RX_STS_STOP_ERROR | UART_5_RX_STS_OVERRUN)) != 0u)
 660              		.loc 1 584 0
 661 007c 002B     		cmp	r3, #0
 662 007e 01D0     		beq	.L39
 586:.\Generated_Source\PSoC5/UART_5.c ****                 {
 587:.\Generated_Source\PSoC5/UART_5.c ****                     rxData = 0u;
 663              		.loc 1 587 0
 664 0080 0023     		movs	r3, #0
ARM GAS  C:\Users\kingi\AppData\Local\Temp\ccjBiHyR.s 			page 23


 665 0082 FB71     		strb	r3, [r7, #7]
 666              	.L39:
 588:.\Generated_Source\PSoC5/UART_5.c ****                 }
 589:.\Generated_Source\PSoC5/UART_5.c ****             }
 590:.\Generated_Source\PSoC5/UART_5.c ****         }
 591:.\Generated_Source\PSoC5/UART_5.c **** 
 592:.\Generated_Source\PSoC5/UART_5.c ****         UART_5_EnableRxInt();
 667              		.loc 1 592 0
 668 0084 0B4B     		ldr	r3, .L41+28
 669 0086 4022     		movs	r2, #64
 670 0088 1A60     		str	r2, [r3]
 593:.\Generated_Source\PSoC5/UART_5.c **** 
 594:.\Generated_Source\PSoC5/UART_5.c ****     #else
 595:.\Generated_Source\PSoC5/UART_5.c **** 
 596:.\Generated_Source\PSoC5/UART_5.c ****         rxStatus =UART_5_RXSTATUS_REG;
 597:.\Generated_Source\PSoC5/UART_5.c ****         if((rxStatus & UART_5_RX_STS_FIFO_NOTEMPTY) != 0u)
 598:.\Generated_Source\PSoC5/UART_5.c ****         {
 599:.\Generated_Source\PSoC5/UART_5.c ****             /* Read received data from FIFO */
 600:.\Generated_Source\PSoC5/UART_5.c ****             rxData = UART_5_RXDATA_REG;
 601:.\Generated_Source\PSoC5/UART_5.c **** 
 602:.\Generated_Source\PSoC5/UART_5.c ****             /*Check status on error*/
 603:.\Generated_Source\PSoC5/UART_5.c ****             if((rxStatus & (UART_5_RX_STS_BREAK | UART_5_RX_STS_PAR_ERROR |
 604:.\Generated_Source\PSoC5/UART_5.c ****                             UART_5_RX_STS_STOP_ERROR | UART_5_RX_STS_OVERRUN)) != 0u)
 605:.\Generated_Source\PSoC5/UART_5.c ****             {
 606:.\Generated_Source\PSoC5/UART_5.c ****                 rxData = 0u;
 607:.\Generated_Source\PSoC5/UART_5.c ****             }
 608:.\Generated_Source\PSoC5/UART_5.c ****         }
 609:.\Generated_Source\PSoC5/UART_5.c ****     #endif /* (UART_5_RX_INTERRUPT_ENABLED) */
 610:.\Generated_Source\PSoC5/UART_5.c **** 
 611:.\Generated_Source\PSoC5/UART_5.c ****         return(rxData);
 671              		.loc 1 611 0
 672 008a FB79     		ldrb	r3, [r7, #7]	@ zero_extendqisi2
 612:.\Generated_Source\PSoC5/UART_5.c ****     }
 673              		.loc 1 612 0
 674 008c 1846     		mov	r0, r3
 675 008e 0C37     		adds	r7, r7, #12
 676              		.cfi_def_cfa_offset 4
 677 0090 BD46     		mov	sp, r7
 678              		.cfi_def_cfa_register 13
 679              		@ sp needed
 680 0092 5DF8047B 		ldr	r7, [sp], #4
 681              		.cfi_restore 7
 682              		.cfi_def_cfa_offset 0
 683 0096 7047     		bx	lr
 684              	.L42:
 685              		.align	2
 686              	.L41:
 687 0098 80E100E0 		.word	-536813184
 688 009c 00000000 		.word	UART_5_rxBufferRead
 689 00a0 00000000 		.word	UART_5_rxBufferWrite
 690 00a4 00000000 		.word	UART_5_rxBufferLoopDetect
 691 00a8 00000000 		.word	UART_5_rxBuffer
 692 00ac 63640040 		.word	1073767523
 693 00b0 44640040 		.word	1073767492
 694 00b4 00E100E0 		.word	-536813312
 695              		.cfi_endproc
 696              	.LFE9:
ARM GAS  C:\Users\kingi\AppData\Local\Temp\ccjBiHyR.s 			page 24


 697              		.size	UART_5_GetChar, .-UART_5_GetChar
 698              		.section	.text.UART_5_GetByte,"ax",%progbits
 699              		.align	2
 700              		.global	UART_5_GetByte
 701              		.thumb
 702              		.thumb_func
 703              		.type	UART_5_GetByte, %function
 704              	UART_5_GetByte:
 705              	.LFB10:
 613:.\Generated_Source\PSoC5/UART_5.c **** 
 614:.\Generated_Source\PSoC5/UART_5.c **** 
 615:.\Generated_Source\PSoC5/UART_5.c ****     /*******************************************************************************
 616:.\Generated_Source\PSoC5/UART_5.c ****     * Function Name: UART_5_GetByte
 617:.\Generated_Source\PSoC5/UART_5.c ****     ********************************************************************************
 618:.\Generated_Source\PSoC5/UART_5.c ****     *
 619:.\Generated_Source\PSoC5/UART_5.c ****     * Summary:
 620:.\Generated_Source\PSoC5/UART_5.c ****     *  Reads UART RX buffer immediately, returns received character and error
 621:.\Generated_Source\PSoC5/UART_5.c ****     *  condition.
 622:.\Generated_Source\PSoC5/UART_5.c ****     *
 623:.\Generated_Source\PSoC5/UART_5.c ****     * Parameters:
 624:.\Generated_Source\PSoC5/UART_5.c ****     *  None.
 625:.\Generated_Source\PSoC5/UART_5.c ****     *
 626:.\Generated_Source\PSoC5/UART_5.c ****     * Return:
 627:.\Generated_Source\PSoC5/UART_5.c ****     *  MSB contains status and LSB contains UART RX data. If the MSB is nonzero,
 628:.\Generated_Source\PSoC5/UART_5.c ****     *  an error has occurred.
 629:.\Generated_Source\PSoC5/UART_5.c ****     *
 630:.\Generated_Source\PSoC5/UART_5.c ****     * Reentrant:
 631:.\Generated_Source\PSoC5/UART_5.c ****     *  No.
 632:.\Generated_Source\PSoC5/UART_5.c ****     *
 633:.\Generated_Source\PSoC5/UART_5.c ****     *******************************************************************************/
 634:.\Generated_Source\PSoC5/UART_5.c ****     uint16 UART_5_GetByte(void) 
 635:.\Generated_Source\PSoC5/UART_5.c ****     {
 706              		.loc 1 635 0
 707              		.cfi_startproc
 708              		@ args = 0, pretend = 0, frame = 8
 709              		@ frame_needed = 1, uses_anonymous_args = 0
 710 0000 90B5     		push	{r4, r7, lr}
 711              		.cfi_def_cfa_offset 12
 712              		.cfi_offset 4, -12
 713              		.cfi_offset 7, -8
 714              		.cfi_offset 14, -4
 715 0002 83B0     		sub	sp, sp, #12
 716              		.cfi_def_cfa_offset 24
 717 0004 00AF     		add	r7, sp, #0
 718              		.cfi_def_cfa_register 7
 636:.\Generated_Source\PSoC5/UART_5.c ****         
 637:.\Generated_Source\PSoC5/UART_5.c ****     #if (UART_5_RX_INTERRUPT_ENABLED)
 638:.\Generated_Source\PSoC5/UART_5.c ****         uint16 locErrorStatus;
 639:.\Generated_Source\PSoC5/UART_5.c ****         /* Protect variables that could change on interrupt */
 640:.\Generated_Source\PSoC5/UART_5.c ****         UART_5_DisableRxInt();
 719              		.loc 1 640 0
 720 0006 0C4B     		ldr	r3, .L45
 721 0008 4022     		movs	r2, #64
 722 000a 1A60     		str	r2, [r3]
 641:.\Generated_Source\PSoC5/UART_5.c ****         locErrorStatus = (uint16)UART_5_errorStatus;
 723              		.loc 1 641 0
 724 000c 0B4B     		ldr	r3, .L45+4
ARM GAS  C:\Users\kingi\AppData\Local\Temp\ccjBiHyR.s 			page 25


 725 000e 1B78     		ldrb	r3, [r3]	@ zero_extendqisi2
 726 0010 FB80     		strh	r3, [r7, #6]	@ movhi
 642:.\Generated_Source\PSoC5/UART_5.c ****         UART_5_errorStatus = 0u;
 727              		.loc 1 642 0
 728 0012 0A4B     		ldr	r3, .L45+4
 729 0014 0022     		movs	r2, #0
 730 0016 1A70     		strb	r2, [r3]
 643:.\Generated_Source\PSoC5/UART_5.c ****         UART_5_EnableRxInt();
 731              		.loc 1 643 0
 732 0018 094B     		ldr	r3, .L45+8
 733 001a 4022     		movs	r2, #64
 734 001c 1A60     		str	r2, [r3]
 644:.\Generated_Source\PSoC5/UART_5.c ****         return ( (uint16)(locErrorStatus << 8u) | UART_5_ReadRxData() );
 735              		.loc 1 644 0
 736 001e FB88     		ldrh	r3, [r7, #6]	@ movhi
 737 0020 1B02     		lsls	r3, r3, #8
 738 0022 9CB2     		uxth	r4, r3
 739 0024 FFF7FEFF 		bl	UART_5_ReadRxData
 740 0028 0346     		mov	r3, r0
 741 002a 9BB2     		uxth	r3, r3
 742 002c 2343     		orrs	r3, r3, r4
 743 002e 9BB2     		uxth	r3, r3
 645:.\Generated_Source\PSoC5/UART_5.c ****     #else
 646:.\Generated_Source\PSoC5/UART_5.c ****         return ( ((uint16)UART_5_ReadRxStatus() << 8u) | UART_5_ReadRxData() );
 647:.\Generated_Source\PSoC5/UART_5.c ****     #endif /* UART_5_RX_INTERRUPT_ENABLED */
 648:.\Generated_Source\PSoC5/UART_5.c ****         
 649:.\Generated_Source\PSoC5/UART_5.c ****     }
 744              		.loc 1 649 0
 745 0030 1846     		mov	r0, r3
 746 0032 0C37     		adds	r7, r7, #12
 747              		.cfi_def_cfa_offset 12
 748 0034 BD46     		mov	sp, r7
 749              		.cfi_def_cfa_register 13
 750              		@ sp needed
 751 0036 90BD     		pop	{r4, r7, pc}
 752              	.L46:
 753              		.align	2
 754              	.L45:
 755 0038 80E100E0 		.word	-536813184
 756 003c 00000000 		.word	UART_5_errorStatus
 757 0040 00E100E0 		.word	-536813312
 758              		.cfi_endproc
 759              	.LFE10:
 760              		.size	UART_5_GetByte, .-UART_5_GetByte
 761              		.section	.text.UART_5_GetRxBufferSize,"ax",%progbits
 762              		.align	2
 763              		.global	UART_5_GetRxBufferSize
 764              		.thumb
 765              		.thumb_func
 766              		.type	UART_5_GetRxBufferSize, %function
 767              	UART_5_GetRxBufferSize:
 768              	.LFB11:
 650:.\Generated_Source\PSoC5/UART_5.c **** 
 651:.\Generated_Source\PSoC5/UART_5.c **** 
 652:.\Generated_Source\PSoC5/UART_5.c ****     /*******************************************************************************
 653:.\Generated_Source\PSoC5/UART_5.c ****     * Function Name: UART_5_GetRxBufferSize
 654:.\Generated_Source\PSoC5/UART_5.c ****     ********************************************************************************
ARM GAS  C:\Users\kingi\AppData\Local\Temp\ccjBiHyR.s 			page 26


 655:.\Generated_Source\PSoC5/UART_5.c ****     *
 656:.\Generated_Source\PSoC5/UART_5.c ****     * Summary:
 657:.\Generated_Source\PSoC5/UART_5.c ****     *  Returns the number of received bytes available in the RX buffer.
 658:.\Generated_Source\PSoC5/UART_5.c ****     *  * RX software buffer is disabled (RX Buffer Size parameter is equal to 4): 
 659:.\Generated_Source\PSoC5/UART_5.c ****     *    returns 0 for empty RX FIFO or 1 for not empty RX FIFO.
 660:.\Generated_Source\PSoC5/UART_5.c ****     *  * RX software buffer is enabled: returns the number of bytes available in 
 661:.\Generated_Source\PSoC5/UART_5.c ****     *    the RX software buffer. Bytes available in the RX FIFO do not take to 
 662:.\Generated_Source\PSoC5/UART_5.c ****     *    account.
 663:.\Generated_Source\PSoC5/UART_5.c ****     *
 664:.\Generated_Source\PSoC5/UART_5.c ****     * Parameters:
 665:.\Generated_Source\PSoC5/UART_5.c ****     *  None.
 666:.\Generated_Source\PSoC5/UART_5.c ****     *
 667:.\Generated_Source\PSoC5/UART_5.c ****     * Return:
 668:.\Generated_Source\PSoC5/UART_5.c ****     *  uint8: Number of bytes in the RX buffer. 
 669:.\Generated_Source\PSoC5/UART_5.c ****     *    Return value type depends on RX Buffer Size parameter.
 670:.\Generated_Source\PSoC5/UART_5.c ****     *
 671:.\Generated_Source\PSoC5/UART_5.c ****     * Global Variables:
 672:.\Generated_Source\PSoC5/UART_5.c ****     *  UART_5_rxBufferWrite - used to calculate left bytes.
 673:.\Generated_Source\PSoC5/UART_5.c ****     *  UART_5_rxBufferRead - used to calculate left bytes.
 674:.\Generated_Source\PSoC5/UART_5.c ****     *  UART_5_rxBufferLoopDetect - checked to decide left bytes amount.
 675:.\Generated_Source\PSoC5/UART_5.c ****     *
 676:.\Generated_Source\PSoC5/UART_5.c ****     * Reentrant:
 677:.\Generated_Source\PSoC5/UART_5.c ****     *  No.
 678:.\Generated_Source\PSoC5/UART_5.c ****     *
 679:.\Generated_Source\PSoC5/UART_5.c ****     * Theory:
 680:.\Generated_Source\PSoC5/UART_5.c ****     *  Allows the user to find out how full the RX Buffer is.
 681:.\Generated_Source\PSoC5/UART_5.c ****     *
 682:.\Generated_Source\PSoC5/UART_5.c ****     *******************************************************************************/
 683:.\Generated_Source\PSoC5/UART_5.c ****     uint8 UART_5_GetRxBufferSize(void)
 684:.\Generated_Source\PSoC5/UART_5.c ****                                                             
 685:.\Generated_Source\PSoC5/UART_5.c ****     {
 769              		.loc 1 685 0
 770              		.cfi_startproc
 771              		@ args = 0, pretend = 0, frame = 8
 772              		@ frame_needed = 1, uses_anonymous_args = 0
 773              		@ link register save eliminated.
 774 0000 80B4     		push	{r7}
 775              		.cfi_def_cfa_offset 4
 776              		.cfi_offset 7, -4
 777 0002 83B0     		sub	sp, sp, #12
 778              		.cfi_def_cfa_offset 16
 779 0004 00AF     		add	r7, sp, #0
 780              		.cfi_def_cfa_register 7
 686:.\Generated_Source\PSoC5/UART_5.c ****         uint8 size;
 687:.\Generated_Source\PSoC5/UART_5.c **** 
 688:.\Generated_Source\PSoC5/UART_5.c ****     #if (UART_5_RX_INTERRUPT_ENABLED)
 689:.\Generated_Source\PSoC5/UART_5.c **** 
 690:.\Generated_Source\PSoC5/UART_5.c ****         /* Protect variables that could change on interrupt */
 691:.\Generated_Source\PSoC5/UART_5.c ****         UART_5_DisableRxInt();
 781              		.loc 1 691 0
 782 0006 1D4B     		ldr	r3, .L54
 783 0008 4022     		movs	r2, #64
 784 000a 1A60     		str	r2, [r3]
 692:.\Generated_Source\PSoC5/UART_5.c **** 
 693:.\Generated_Source\PSoC5/UART_5.c ****         if(UART_5_rxBufferRead == UART_5_rxBufferWrite)
 785              		.loc 1 693 0
 786 000c 1C4B     		ldr	r3, .L54+4
ARM GAS  C:\Users\kingi\AppData\Local\Temp\ccjBiHyR.s 			page 27


 787 000e 1B78     		ldrb	r3, [r3]
 788 0010 DAB2     		uxtb	r2, r3
 789 0012 1C4B     		ldr	r3, .L54+8
 790 0014 1B78     		ldrb	r3, [r3]
 791 0016 DBB2     		uxtb	r3, r3
 792 0018 9A42     		cmp	r2, r3
 793 001a 0AD1     		bne	.L48
 694:.\Generated_Source\PSoC5/UART_5.c ****         {
 695:.\Generated_Source\PSoC5/UART_5.c ****             if(UART_5_rxBufferLoopDetect != 0u)
 794              		.loc 1 695 0
 795 001c 1A4B     		ldr	r3, .L54+12
 796 001e 1B78     		ldrb	r3, [r3]
 797 0020 DBB2     		uxtb	r3, r3
 798 0022 002B     		cmp	r3, #0
 799 0024 02D0     		beq	.L49
 696:.\Generated_Source\PSoC5/UART_5.c ****             {
 697:.\Generated_Source\PSoC5/UART_5.c ****                 size = UART_5_RX_BUFFER_SIZE;
 800              		.loc 1 697 0
 801 0026 1A23     		movs	r3, #26
 802 0028 FB71     		strb	r3, [r7, #7]
 803 002a 1DE0     		b	.L51
 804              	.L49:
 698:.\Generated_Source\PSoC5/UART_5.c ****             }
 699:.\Generated_Source\PSoC5/UART_5.c ****             else
 700:.\Generated_Source\PSoC5/UART_5.c ****             {
 701:.\Generated_Source\PSoC5/UART_5.c ****                 size = 0u;
 805              		.loc 1 701 0
 806 002c 0023     		movs	r3, #0
 807 002e FB71     		strb	r3, [r7, #7]
 808 0030 1AE0     		b	.L51
 809              	.L48:
 702:.\Generated_Source\PSoC5/UART_5.c ****             }
 703:.\Generated_Source\PSoC5/UART_5.c ****         }
 704:.\Generated_Source\PSoC5/UART_5.c ****         else if(UART_5_rxBufferRead < UART_5_rxBufferWrite)
 810              		.loc 1 704 0
 811 0032 134B     		ldr	r3, .L54+4
 812 0034 1B78     		ldrb	r3, [r3]
 813 0036 DAB2     		uxtb	r2, r3
 814 0038 124B     		ldr	r3, .L54+8
 815 003a 1B78     		ldrb	r3, [r3]
 816 003c DBB2     		uxtb	r3, r3
 817 003e 9A42     		cmp	r2, r3
 818 0040 08D2     		bcs	.L52
 705:.\Generated_Source\PSoC5/UART_5.c ****         {
 706:.\Generated_Source\PSoC5/UART_5.c ****             size = (UART_5_rxBufferWrite - UART_5_rxBufferRead);
 819              		.loc 1 706 0
 820 0042 104B     		ldr	r3, .L54+8
 821 0044 1B78     		ldrb	r3, [r3]
 822 0046 DAB2     		uxtb	r2, r3
 823 0048 0D4B     		ldr	r3, .L54+4
 824 004a 1B78     		ldrb	r3, [r3]
 825 004c DBB2     		uxtb	r3, r3
 826 004e D31A     		subs	r3, r2, r3
 827 0050 FB71     		strb	r3, [r7, #7]
 828 0052 09E0     		b	.L51
 829              	.L52:
 707:.\Generated_Source\PSoC5/UART_5.c ****         }
ARM GAS  C:\Users\kingi\AppData\Local\Temp\ccjBiHyR.s 			page 28


 708:.\Generated_Source\PSoC5/UART_5.c ****         else
 709:.\Generated_Source\PSoC5/UART_5.c ****         {
 710:.\Generated_Source\PSoC5/UART_5.c ****             size = (UART_5_RX_BUFFER_SIZE - UART_5_rxBufferRead) + UART_5_rxBufferWrite;
 830              		.loc 1 710 0
 831 0054 0B4B     		ldr	r3, .L54+8
 832 0056 1B78     		ldrb	r3, [r3]
 833 0058 DAB2     		uxtb	r2, r3
 834 005a 094B     		ldr	r3, .L54+4
 835 005c 1B78     		ldrb	r3, [r3]
 836 005e DBB2     		uxtb	r3, r3
 837 0060 D31A     		subs	r3, r2, r3
 838 0062 DBB2     		uxtb	r3, r3
 839 0064 1A33     		adds	r3, r3, #26
 840 0066 FB71     		strb	r3, [r7, #7]
 841              	.L51:
 711:.\Generated_Source\PSoC5/UART_5.c ****         }
 712:.\Generated_Source\PSoC5/UART_5.c **** 
 713:.\Generated_Source\PSoC5/UART_5.c ****         UART_5_EnableRxInt();
 842              		.loc 1 713 0
 843 0068 084B     		ldr	r3, .L54+16
 844 006a 4022     		movs	r2, #64
 845 006c 1A60     		str	r2, [r3]
 714:.\Generated_Source\PSoC5/UART_5.c **** 
 715:.\Generated_Source\PSoC5/UART_5.c ****     #else
 716:.\Generated_Source\PSoC5/UART_5.c **** 
 717:.\Generated_Source\PSoC5/UART_5.c ****         /* We can only know if there is data in the fifo. */
 718:.\Generated_Source\PSoC5/UART_5.c ****         size = ((UART_5_RXSTATUS_REG & UART_5_RX_STS_FIFO_NOTEMPTY) != 0u) ? 1u : 0u;
 719:.\Generated_Source\PSoC5/UART_5.c **** 
 720:.\Generated_Source\PSoC5/UART_5.c ****     #endif /* (UART_5_RX_INTERRUPT_ENABLED) */
 721:.\Generated_Source\PSoC5/UART_5.c **** 
 722:.\Generated_Source\PSoC5/UART_5.c ****         return(size);
 846              		.loc 1 722 0
 847 006e FB79     		ldrb	r3, [r7, #7]	@ zero_extendqisi2
 723:.\Generated_Source\PSoC5/UART_5.c ****     }
 848              		.loc 1 723 0
 849 0070 1846     		mov	r0, r3
 850 0072 0C37     		adds	r7, r7, #12
 851              		.cfi_def_cfa_offset 4
 852 0074 BD46     		mov	sp, r7
 853              		.cfi_def_cfa_register 13
 854              		@ sp needed
 855 0076 5DF8047B 		ldr	r7, [sp], #4
 856              		.cfi_restore 7
 857              		.cfi_def_cfa_offset 0
 858 007a 7047     		bx	lr
 859              	.L55:
 860              		.align	2
 861              	.L54:
 862 007c 80E100E0 		.word	-536813184
 863 0080 00000000 		.word	UART_5_rxBufferRead
 864 0084 00000000 		.word	UART_5_rxBufferWrite
 865 0088 00000000 		.word	UART_5_rxBufferLoopDetect
 866 008c 00E100E0 		.word	-536813312
 867              		.cfi_endproc
 868              	.LFE11:
 869              		.size	UART_5_GetRxBufferSize, .-UART_5_GetRxBufferSize
 870              		.section	.text.UART_5_ClearRxBuffer,"ax",%progbits
ARM GAS  C:\Users\kingi\AppData\Local\Temp\ccjBiHyR.s 			page 29


 871              		.align	2
 872              		.global	UART_5_ClearRxBuffer
 873              		.thumb
 874              		.thumb_func
 875              		.type	UART_5_ClearRxBuffer, %function
 876              	UART_5_ClearRxBuffer:
 877              	.LFB12:
 724:.\Generated_Source\PSoC5/UART_5.c **** 
 725:.\Generated_Source\PSoC5/UART_5.c **** 
 726:.\Generated_Source\PSoC5/UART_5.c ****     /*******************************************************************************
 727:.\Generated_Source\PSoC5/UART_5.c ****     * Function Name: UART_5_ClearRxBuffer
 728:.\Generated_Source\PSoC5/UART_5.c ****     ********************************************************************************
 729:.\Generated_Source\PSoC5/UART_5.c ****     *
 730:.\Generated_Source\PSoC5/UART_5.c ****     * Summary:
 731:.\Generated_Source\PSoC5/UART_5.c ****     *  Clears the receiver memory buffer and hardware RX FIFO of all received data.
 732:.\Generated_Source\PSoC5/UART_5.c ****     *
 733:.\Generated_Source\PSoC5/UART_5.c ****     * Parameters:
 734:.\Generated_Source\PSoC5/UART_5.c ****     *  None.
 735:.\Generated_Source\PSoC5/UART_5.c ****     *
 736:.\Generated_Source\PSoC5/UART_5.c ****     * Return:
 737:.\Generated_Source\PSoC5/UART_5.c ****     *  None.
 738:.\Generated_Source\PSoC5/UART_5.c ****     *
 739:.\Generated_Source\PSoC5/UART_5.c ****     * Global Variables:
 740:.\Generated_Source\PSoC5/UART_5.c ****     *  UART_5_rxBufferWrite - cleared to zero.
 741:.\Generated_Source\PSoC5/UART_5.c ****     *  UART_5_rxBufferRead - cleared to zero.
 742:.\Generated_Source\PSoC5/UART_5.c ****     *  UART_5_rxBufferLoopDetect - cleared to zero.
 743:.\Generated_Source\PSoC5/UART_5.c ****     *  UART_5_rxBufferOverflow - cleared to zero.
 744:.\Generated_Source\PSoC5/UART_5.c ****     *
 745:.\Generated_Source\PSoC5/UART_5.c ****     * Reentrant:
 746:.\Generated_Source\PSoC5/UART_5.c ****     *  No.
 747:.\Generated_Source\PSoC5/UART_5.c ****     *
 748:.\Generated_Source\PSoC5/UART_5.c ****     * Theory:
 749:.\Generated_Source\PSoC5/UART_5.c ****     *  Setting the pointers to zero makes the system believe there is no data to
 750:.\Generated_Source\PSoC5/UART_5.c ****     *  read and writing will resume at address 0 overwriting any data that may
 751:.\Generated_Source\PSoC5/UART_5.c ****     *  have remained in the RAM.
 752:.\Generated_Source\PSoC5/UART_5.c ****     *
 753:.\Generated_Source\PSoC5/UART_5.c ****     * Side Effects:
 754:.\Generated_Source\PSoC5/UART_5.c ****     *  Any received data not read from the RAM or FIFO buffer will be lost.
 755:.\Generated_Source\PSoC5/UART_5.c ****     *
 756:.\Generated_Source\PSoC5/UART_5.c ****     *******************************************************************************/
 757:.\Generated_Source\PSoC5/UART_5.c ****     void UART_5_ClearRxBuffer(void) 
 758:.\Generated_Source\PSoC5/UART_5.c ****     {
 878              		.loc 1 758 0
 879              		.cfi_startproc
 880              		@ args = 0, pretend = 0, frame = 8
 881              		@ frame_needed = 1, uses_anonymous_args = 0
 882 0000 80B5     		push	{r7, lr}
 883              		.cfi_def_cfa_offset 8
 884              		.cfi_offset 7, -8
 885              		.cfi_offset 14, -4
 886 0002 82B0     		sub	sp, sp, #8
 887              		.cfi_def_cfa_offset 16
 888 0004 00AF     		add	r7, sp, #0
 889              		.cfi_def_cfa_register 7
 759:.\Generated_Source\PSoC5/UART_5.c ****         uint8 enableInterrupts;
 760:.\Generated_Source\PSoC5/UART_5.c **** 
 761:.\Generated_Source\PSoC5/UART_5.c ****         /* Clear the HW FIFO */
ARM GAS  C:\Users\kingi\AppData\Local\Temp\ccjBiHyR.s 			page 30


 762:.\Generated_Source\PSoC5/UART_5.c ****         enableInterrupts = CyEnterCriticalSection();
 890              		.loc 1 762 0
 891 0006 FFF7FEFF 		bl	CyEnterCriticalSection
 892 000a 0346     		mov	r3, r0
 893 000c FB71     		strb	r3, [r7, #7]
 763:.\Generated_Source\PSoC5/UART_5.c ****         UART_5_RXDATA_AUX_CTL_REG |= (uint8)  UART_5_RX_FIFO_CLR;
 894              		.loc 1 763 0
 895 000e 144A     		ldr	r2, .L57
 896 0010 134B     		ldr	r3, .L57
 897 0012 1B78     		ldrb	r3, [r3]
 898 0014 DBB2     		uxtb	r3, r3
 899 0016 43F00103 		orr	r3, r3, #1
 900 001a DBB2     		uxtb	r3, r3
 901 001c 1370     		strb	r3, [r2]
 764:.\Generated_Source\PSoC5/UART_5.c ****         UART_5_RXDATA_AUX_CTL_REG &= (uint8) ~UART_5_RX_FIFO_CLR;
 902              		.loc 1 764 0
 903 001e 104A     		ldr	r2, .L57
 904 0020 0F4B     		ldr	r3, .L57
 905 0022 1B78     		ldrb	r3, [r3]
 906 0024 DBB2     		uxtb	r3, r3
 907 0026 23F00103 		bic	r3, r3, #1
 908 002a DBB2     		uxtb	r3, r3
 909 002c 1370     		strb	r3, [r2]
 765:.\Generated_Source\PSoC5/UART_5.c ****         CyExitCriticalSection(enableInterrupts);
 910              		.loc 1 765 0
 911 002e FB79     		ldrb	r3, [r7, #7]	@ zero_extendqisi2
 912 0030 1846     		mov	r0, r3
 913 0032 FFF7FEFF 		bl	CyExitCriticalSection
 766:.\Generated_Source\PSoC5/UART_5.c **** 
 767:.\Generated_Source\PSoC5/UART_5.c ****     #if (UART_5_RX_INTERRUPT_ENABLED)
 768:.\Generated_Source\PSoC5/UART_5.c **** 
 769:.\Generated_Source\PSoC5/UART_5.c ****         /* Protect variables that could change on interrupt. */
 770:.\Generated_Source\PSoC5/UART_5.c ****         UART_5_DisableRxInt();
 914              		.loc 1 770 0
 915 0036 0B4B     		ldr	r3, .L57+4
 916 0038 4022     		movs	r2, #64
 917 003a 1A60     		str	r2, [r3]
 771:.\Generated_Source\PSoC5/UART_5.c **** 
 772:.\Generated_Source\PSoC5/UART_5.c ****         UART_5_rxBufferRead = 0u;
 918              		.loc 1 772 0
 919 003c 0A4B     		ldr	r3, .L57+8
 920 003e 0022     		movs	r2, #0
 921 0040 1A70     		strb	r2, [r3]
 773:.\Generated_Source\PSoC5/UART_5.c ****         UART_5_rxBufferWrite = 0u;
 922              		.loc 1 773 0
 923 0042 0A4B     		ldr	r3, .L57+12
 924 0044 0022     		movs	r2, #0
 925 0046 1A70     		strb	r2, [r3]
 774:.\Generated_Source\PSoC5/UART_5.c ****         UART_5_rxBufferLoopDetect = 0u;
 926              		.loc 1 774 0
 927 0048 094B     		ldr	r3, .L57+16
 928 004a 0022     		movs	r2, #0
 929 004c 1A70     		strb	r2, [r3]
 775:.\Generated_Source\PSoC5/UART_5.c ****         UART_5_rxBufferOverflow = 0u;
 930              		.loc 1 775 0
 931 004e 094B     		ldr	r3, .L57+20
 932 0050 0022     		movs	r2, #0
ARM GAS  C:\Users\kingi\AppData\Local\Temp\ccjBiHyR.s 			page 31


 933 0052 1A70     		strb	r2, [r3]
 776:.\Generated_Source\PSoC5/UART_5.c **** 
 777:.\Generated_Source\PSoC5/UART_5.c ****         UART_5_EnableRxInt();
 934              		.loc 1 777 0
 935 0054 084B     		ldr	r3, .L57+24
 936 0056 4022     		movs	r2, #64
 937 0058 1A60     		str	r2, [r3]
 778:.\Generated_Source\PSoC5/UART_5.c **** 
 779:.\Generated_Source\PSoC5/UART_5.c ****     #endif /* (UART_5_RX_INTERRUPT_ENABLED) */
 780:.\Generated_Source\PSoC5/UART_5.c **** 
 781:.\Generated_Source\PSoC5/UART_5.c ****     }
 938              		.loc 1 781 0
 939 005a 0837     		adds	r7, r7, #8
 940              		.cfi_def_cfa_offset 8
 941 005c BD46     		mov	sp, r7
 942              		.cfi_def_cfa_register 13
 943              		@ sp needed
 944 005e 80BD     		pop	{r7, pc}
 945              	.L58:
 946              		.align	2
 947              	.L57:
 948 0060 94640040 		.word	1073767572
 949 0064 80E100E0 		.word	-536813184
 950 0068 00000000 		.word	UART_5_rxBufferRead
 951 006c 00000000 		.word	UART_5_rxBufferWrite
 952 0070 00000000 		.word	UART_5_rxBufferLoopDetect
 953 0074 00000000 		.word	UART_5_rxBufferOverflow
 954 0078 00E100E0 		.word	-536813312
 955              		.cfi_endproc
 956              	.LFE12:
 957              		.size	UART_5_ClearRxBuffer, .-UART_5_ClearRxBuffer
 958              		.section	.text.UART_5_SetRxAddressMode,"ax",%progbits
 959              		.align	2
 960              		.global	UART_5_SetRxAddressMode
 961              		.thumb
 962              		.thumb_func
 963              		.type	UART_5_SetRxAddressMode, %function
 964              	UART_5_SetRxAddressMode:
 965              	.LFB13:
 782:.\Generated_Source\PSoC5/UART_5.c **** 
 783:.\Generated_Source\PSoC5/UART_5.c **** 
 784:.\Generated_Source\PSoC5/UART_5.c ****     /*******************************************************************************
 785:.\Generated_Source\PSoC5/UART_5.c ****     * Function Name: UART_5_SetRxAddressMode
 786:.\Generated_Source\PSoC5/UART_5.c ****     ********************************************************************************
 787:.\Generated_Source\PSoC5/UART_5.c ****     *
 788:.\Generated_Source\PSoC5/UART_5.c ****     * Summary:
 789:.\Generated_Source\PSoC5/UART_5.c ****     *  Sets the software controlled Addressing mode used by the RX portion of the
 790:.\Generated_Source\PSoC5/UART_5.c ****     *  UART.
 791:.\Generated_Source\PSoC5/UART_5.c ****     *
 792:.\Generated_Source\PSoC5/UART_5.c ****     * Parameters:
 793:.\Generated_Source\PSoC5/UART_5.c ****     *  addressMode: Enumerated value indicating the mode of RX addressing
 794:.\Generated_Source\PSoC5/UART_5.c ****     *  UART_5__B_UART__AM_SW_BYTE_BYTE -  Software Byte-by-Byte address
 795:.\Generated_Source\PSoC5/UART_5.c ****     *                                               detection
 796:.\Generated_Source\PSoC5/UART_5.c ****     *  UART_5__B_UART__AM_SW_DETECT_TO_BUFFER - Software Detect to Buffer
 797:.\Generated_Source\PSoC5/UART_5.c ****     *                                               address detection
 798:.\Generated_Source\PSoC5/UART_5.c ****     *  UART_5__B_UART__AM_HW_BYTE_BY_BYTE - Hardware Byte-by-Byte address
 799:.\Generated_Source\PSoC5/UART_5.c ****     *                                               detection
ARM GAS  C:\Users\kingi\AppData\Local\Temp\ccjBiHyR.s 			page 32


 800:.\Generated_Source\PSoC5/UART_5.c ****     *  UART_5__B_UART__AM_HW_DETECT_TO_BUFFER - Hardware Detect to Buffer
 801:.\Generated_Source\PSoC5/UART_5.c ****     *                                               address detection
 802:.\Generated_Source\PSoC5/UART_5.c ****     *  UART_5__B_UART__AM_NONE - No address detection
 803:.\Generated_Source\PSoC5/UART_5.c ****     *
 804:.\Generated_Source\PSoC5/UART_5.c ****     * Return:
 805:.\Generated_Source\PSoC5/UART_5.c ****     *  None.
 806:.\Generated_Source\PSoC5/UART_5.c ****     *
 807:.\Generated_Source\PSoC5/UART_5.c ****     * Global Variables:
 808:.\Generated_Source\PSoC5/UART_5.c ****     *  UART_5_rxAddressMode - the parameter stored in this variable for
 809:.\Generated_Source\PSoC5/UART_5.c ****     *   the farther usage in RX ISR.
 810:.\Generated_Source\PSoC5/UART_5.c ****     *  UART_5_rxAddressDetected - set to initial state (0).
 811:.\Generated_Source\PSoC5/UART_5.c ****     *
 812:.\Generated_Source\PSoC5/UART_5.c ****     *******************************************************************************/
 813:.\Generated_Source\PSoC5/UART_5.c ****     void UART_5_SetRxAddressMode(uint8 addressMode)
 814:.\Generated_Source\PSoC5/UART_5.c ****                                                         
 815:.\Generated_Source\PSoC5/UART_5.c ****     {
 966              		.loc 1 815 0
 967              		.cfi_startproc
 968              		@ args = 0, pretend = 0, frame = 8
 969              		@ frame_needed = 1, uses_anonymous_args = 0
 970              		@ link register save eliminated.
 971 0000 80B4     		push	{r7}
 972              		.cfi_def_cfa_offset 4
 973              		.cfi_offset 7, -4
 974 0002 83B0     		sub	sp, sp, #12
 975              		.cfi_def_cfa_offset 16
 976 0004 00AF     		add	r7, sp, #0
 977              		.cfi_def_cfa_register 7
 978 0006 0346     		mov	r3, r0
 979 0008 FB71     		strb	r3, [r7, #7]
 816:.\Generated_Source\PSoC5/UART_5.c ****         #if(UART_5_RXHW_ADDRESS_ENABLED)
 817:.\Generated_Source\PSoC5/UART_5.c ****             #if(UART_5_CONTROL_REG_REMOVED)
 818:.\Generated_Source\PSoC5/UART_5.c ****                 if(0u != addressMode)
 819:.\Generated_Source\PSoC5/UART_5.c ****                 {
 820:.\Generated_Source\PSoC5/UART_5.c ****                     /* Suppress compiler warning */
 821:.\Generated_Source\PSoC5/UART_5.c ****                 }
 822:.\Generated_Source\PSoC5/UART_5.c ****             #else /* UART_5_CONTROL_REG_REMOVED */
 823:.\Generated_Source\PSoC5/UART_5.c ****                 uint8 tmpCtrl;
 824:.\Generated_Source\PSoC5/UART_5.c ****                 tmpCtrl = UART_5_CONTROL_REG & (uint8)~UART_5_CTRL_RXADDR_MODE_MASK;
 825:.\Generated_Source\PSoC5/UART_5.c ****                 tmpCtrl |= (uint8)(addressMode << UART_5_CTRL_RXADDR_MODE0_SHIFT);
 826:.\Generated_Source\PSoC5/UART_5.c ****                 UART_5_CONTROL_REG = tmpCtrl;
 827:.\Generated_Source\PSoC5/UART_5.c **** 
 828:.\Generated_Source\PSoC5/UART_5.c ****                 #if(UART_5_RX_INTERRUPT_ENABLED && \
 829:.\Generated_Source\PSoC5/UART_5.c ****                    (UART_5_RXBUFFERSIZE > UART_5_FIFO_LENGTH) )
 830:.\Generated_Source\PSoC5/UART_5.c ****                     UART_5_rxAddressMode = addressMode;
 831:.\Generated_Source\PSoC5/UART_5.c ****                     UART_5_rxAddressDetected = 0u;
 832:.\Generated_Source\PSoC5/UART_5.c ****                 #endif /* End UART_5_RXBUFFERSIZE > UART_5_FIFO_LENGTH*/
 833:.\Generated_Source\PSoC5/UART_5.c ****             #endif /* End UART_5_CONTROL_REG_REMOVED */
 834:.\Generated_Source\PSoC5/UART_5.c ****         #else /* UART_5_RXHW_ADDRESS_ENABLED */
 835:.\Generated_Source\PSoC5/UART_5.c ****             if(0u != addressMode)
 836:.\Generated_Source\PSoC5/UART_5.c ****             {
 837:.\Generated_Source\PSoC5/UART_5.c ****                 /* Suppress compiler warning */
 838:.\Generated_Source\PSoC5/UART_5.c ****             }
 839:.\Generated_Source\PSoC5/UART_5.c ****         #endif /* End UART_5_RXHW_ADDRESS_ENABLED */
 840:.\Generated_Source\PSoC5/UART_5.c ****     }
 980              		.loc 1 840 0
 981 000a 0C37     		adds	r7, r7, #12
ARM GAS  C:\Users\kingi\AppData\Local\Temp\ccjBiHyR.s 			page 33


 982              		.cfi_def_cfa_offset 4
 983 000c BD46     		mov	sp, r7
 984              		.cfi_def_cfa_register 13
 985              		@ sp needed
 986 000e 5DF8047B 		ldr	r7, [sp], #4
 987              		.cfi_restore 7
 988              		.cfi_def_cfa_offset 0
 989 0012 7047     		bx	lr
 990              		.cfi_endproc
 991              	.LFE13:
 992              		.size	UART_5_SetRxAddressMode, .-UART_5_SetRxAddressMode
 993              		.section	.text.UART_5_SetRxAddress1,"ax",%progbits
 994              		.align	2
 995              		.global	UART_5_SetRxAddress1
 996              		.thumb
 997              		.thumb_func
 998              		.type	UART_5_SetRxAddress1, %function
 999              	UART_5_SetRxAddress1:
 1000              	.LFB14:
 841:.\Generated_Source\PSoC5/UART_5.c **** 
 842:.\Generated_Source\PSoC5/UART_5.c **** 
 843:.\Generated_Source\PSoC5/UART_5.c ****     /*******************************************************************************
 844:.\Generated_Source\PSoC5/UART_5.c ****     * Function Name: UART_5_SetRxAddress1
 845:.\Generated_Source\PSoC5/UART_5.c ****     ********************************************************************************
 846:.\Generated_Source\PSoC5/UART_5.c ****     *
 847:.\Generated_Source\PSoC5/UART_5.c ****     * Summary:
 848:.\Generated_Source\PSoC5/UART_5.c ****     *  Sets the first of two hardware-detectable receiver addresses.
 849:.\Generated_Source\PSoC5/UART_5.c ****     *
 850:.\Generated_Source\PSoC5/UART_5.c ****     * Parameters:
 851:.\Generated_Source\PSoC5/UART_5.c ****     *  address: Address #1 for hardware address detection.
 852:.\Generated_Source\PSoC5/UART_5.c ****     *
 853:.\Generated_Source\PSoC5/UART_5.c ****     * Return:
 854:.\Generated_Source\PSoC5/UART_5.c ****     *  None.
 855:.\Generated_Source\PSoC5/UART_5.c ****     *
 856:.\Generated_Source\PSoC5/UART_5.c ****     *******************************************************************************/
 857:.\Generated_Source\PSoC5/UART_5.c ****     void UART_5_SetRxAddress1(uint8 address) 
 858:.\Generated_Source\PSoC5/UART_5.c ****     {
 1001              		.loc 1 858 0
 1002              		.cfi_startproc
 1003              		@ args = 0, pretend = 0, frame = 8
 1004              		@ frame_needed = 1, uses_anonymous_args = 0
 1005              		@ link register save eliminated.
 1006 0000 80B4     		push	{r7}
 1007              		.cfi_def_cfa_offset 4
 1008              		.cfi_offset 7, -4
 1009 0002 83B0     		sub	sp, sp, #12
 1010              		.cfi_def_cfa_offset 16
 1011 0004 00AF     		add	r7, sp, #0
 1012              		.cfi_def_cfa_register 7
 1013 0006 0346     		mov	r3, r0
 1014 0008 FB71     		strb	r3, [r7, #7]
 859:.\Generated_Source\PSoC5/UART_5.c ****         UART_5_RXADDRESS1_REG = address;
 1015              		.loc 1 859 0
 1016 000a 044A     		ldr	r2, .L61
 1017 000c FB79     		ldrb	r3, [r7, #7]
 1018 000e 1370     		strb	r3, [r2]
 860:.\Generated_Source\PSoC5/UART_5.c ****     }
ARM GAS  C:\Users\kingi\AppData\Local\Temp\ccjBiHyR.s 			page 34


 1019              		.loc 1 860 0
 1020 0010 0C37     		adds	r7, r7, #12
 1021              		.cfi_def_cfa_offset 4
 1022 0012 BD46     		mov	sp, r7
 1023              		.cfi_def_cfa_register 13
 1024              		@ sp needed
 1025 0014 5DF8047B 		ldr	r7, [sp], #4
 1026              		.cfi_restore 7
 1027              		.cfi_def_cfa_offset 0
 1028 0018 7047     		bx	lr
 1029              	.L62:
 1030 001a 00BF     		.align	2
 1031              	.L61:
 1032 001c 24640040 		.word	1073767460
 1033              		.cfi_endproc
 1034              	.LFE14:
 1035              		.size	UART_5_SetRxAddress1, .-UART_5_SetRxAddress1
 1036              		.section	.text.UART_5_SetRxAddress2,"ax",%progbits
 1037              		.align	2
 1038              		.global	UART_5_SetRxAddress2
 1039              		.thumb
 1040              		.thumb_func
 1041              		.type	UART_5_SetRxAddress2, %function
 1042              	UART_5_SetRxAddress2:
 1043              	.LFB15:
 861:.\Generated_Source\PSoC5/UART_5.c **** 
 862:.\Generated_Source\PSoC5/UART_5.c **** 
 863:.\Generated_Source\PSoC5/UART_5.c ****     /*******************************************************************************
 864:.\Generated_Source\PSoC5/UART_5.c ****     * Function Name: UART_5_SetRxAddress2
 865:.\Generated_Source\PSoC5/UART_5.c ****     ********************************************************************************
 866:.\Generated_Source\PSoC5/UART_5.c ****     *
 867:.\Generated_Source\PSoC5/UART_5.c ****     * Summary:
 868:.\Generated_Source\PSoC5/UART_5.c ****     *  Sets the second of two hardware-detectable receiver addresses.
 869:.\Generated_Source\PSoC5/UART_5.c ****     *
 870:.\Generated_Source\PSoC5/UART_5.c ****     * Parameters:
 871:.\Generated_Source\PSoC5/UART_5.c ****     *  address: Address #2 for hardware address detection.
 872:.\Generated_Source\PSoC5/UART_5.c ****     *
 873:.\Generated_Source\PSoC5/UART_5.c ****     * Return:
 874:.\Generated_Source\PSoC5/UART_5.c ****     *  None.
 875:.\Generated_Source\PSoC5/UART_5.c ****     *
 876:.\Generated_Source\PSoC5/UART_5.c ****     *******************************************************************************/
 877:.\Generated_Source\PSoC5/UART_5.c ****     void UART_5_SetRxAddress2(uint8 address) 
 878:.\Generated_Source\PSoC5/UART_5.c ****     {
 1044              		.loc 1 878 0
 1045              		.cfi_startproc
 1046              		@ args = 0, pretend = 0, frame = 8
 1047              		@ frame_needed = 1, uses_anonymous_args = 0
 1048              		@ link register save eliminated.
 1049 0000 80B4     		push	{r7}
 1050              		.cfi_def_cfa_offset 4
 1051              		.cfi_offset 7, -4
 1052 0002 83B0     		sub	sp, sp, #12
 1053              		.cfi_def_cfa_offset 16
 1054 0004 00AF     		add	r7, sp, #0
 1055              		.cfi_def_cfa_register 7
 1056 0006 0346     		mov	r3, r0
 1057 0008 FB71     		strb	r3, [r7, #7]
ARM GAS  C:\Users\kingi\AppData\Local\Temp\ccjBiHyR.s 			page 35


 879:.\Generated_Source\PSoC5/UART_5.c ****         UART_5_RXADDRESS2_REG = address;
 1058              		.loc 1 879 0
 1059 000a 044A     		ldr	r2, .L64
 1060 000c FB79     		ldrb	r3, [r7, #7]
 1061 000e 1370     		strb	r3, [r2]
 880:.\Generated_Source\PSoC5/UART_5.c ****     }
 1062              		.loc 1 880 0
 1063 0010 0C37     		adds	r7, r7, #12
 1064              		.cfi_def_cfa_offset 4
 1065 0012 BD46     		mov	sp, r7
 1066              		.cfi_def_cfa_register 13
 1067              		@ sp needed
 1068 0014 5DF8047B 		ldr	r7, [sp], #4
 1069              		.cfi_restore 7
 1070              		.cfi_def_cfa_offset 0
 1071 0018 7047     		bx	lr
 1072              	.L65:
 1073 001a 00BF     		.align	2
 1074              	.L64:
 1075 001c 34640040 		.word	1073767476
 1076              		.cfi_endproc
 1077              	.LFE15:
 1078              		.size	UART_5_SetRxAddress2, .-UART_5_SetRxAddress2
 1079              		.text
 1080              	.Letext0:
 1081              		.file 2 ".\\Generated_Source\\PSoC5\\cytypes.h"