ARM GAS  C:\Users\kingi\AppData\Local\Temp\ccQc3vxb.s 			page 1


   1              		.syntax unified
   2              		.cpu cortex-m3
   3              		.fpu softvfp
   4              		.eabi_attribute 20, 1
   5              		.eabi_attribute 21, 1
   6              		.eabi_attribute 23, 3
   7              		.eabi_attribute 24, 1
   8              		.eabi_attribute 25, 1
   9              		.eabi_attribute 26, 1
  10              		.eabi_attribute 30, 6
  11              		.eabi_attribute 34, 1
  12              		.eabi_attribute 18, 4
  13              		.thumb
  14              		.file	"UART_3.c"
  15              		.text
  16              	.Ltext0:
  17              		.cfi_sections	.debug_frame
  18              		.global	UART_3_initVar
  19              		.bss
  20              		.type	UART_3_initVar, %object
  21              		.size	UART_3_initVar, 1
  22              	UART_3_initVar:
  23 0000 00       		.space	1
  24              		.comm	UART_3_txBuffer,27,4
  25              		.global	UART_3_txBufferRead
  26              		.type	UART_3_txBufferRead, %object
  27              		.size	UART_3_txBufferRead, 1
  28              	UART_3_txBufferRead:
  29 0001 00       		.space	1
  30              		.global	UART_3_txBufferWrite
  31              		.type	UART_3_txBufferWrite, %object
  32              		.size	UART_3_txBufferWrite, 1
  33              	UART_3_txBufferWrite:
  34 0002 00       		.space	1
  35              		.section	.text.UART_3_Start,"ax",%progbits
  36              		.align	2
  37              		.global	UART_3_Start
  38              		.thumb
  39              		.thumb_func
  40              		.type	UART_3_Start, %function
  41              	UART_3_Start:
  42              	.LFB0:
  43              		.file 1 ".\\Generated_Source\\PSoC5\\UART_3.c"
   1:.\Generated_Source\PSoC5/UART_3.c **** /*******************************************************************************
   2:.\Generated_Source\PSoC5/UART_3.c **** * File Name: UART_3.c
   3:.\Generated_Source\PSoC5/UART_3.c **** * Version 2.50
   4:.\Generated_Source\PSoC5/UART_3.c **** *
   5:.\Generated_Source\PSoC5/UART_3.c **** * Description:
   6:.\Generated_Source\PSoC5/UART_3.c **** *  This file provides all API functionality of the UART component
   7:.\Generated_Source\PSoC5/UART_3.c **** *
   8:.\Generated_Source\PSoC5/UART_3.c **** * Note:
   9:.\Generated_Source\PSoC5/UART_3.c **** *
  10:.\Generated_Source\PSoC5/UART_3.c **** ********************************************************************************
  11:.\Generated_Source\PSoC5/UART_3.c **** * Copyright 2008-2015, Cypress Semiconductor Corporation.  All rights reserved.
  12:.\Generated_Source\PSoC5/UART_3.c **** * You may use this file only in accordance with the license, terms, conditions,
  13:.\Generated_Source\PSoC5/UART_3.c **** * disclaimers, and limitations in the end user license agreement accompanying
  14:.\Generated_Source\PSoC5/UART_3.c **** * the software package with which this file was provided.
ARM GAS  C:\Users\kingi\AppData\Local\Temp\ccQc3vxb.s 			page 2


  15:.\Generated_Source\PSoC5/UART_3.c **** *******************************************************************************/
  16:.\Generated_Source\PSoC5/UART_3.c **** 
  17:.\Generated_Source\PSoC5/UART_3.c **** #include "UART_3.h"
  18:.\Generated_Source\PSoC5/UART_3.c **** #if (UART_3_INTERNAL_CLOCK_USED)
  19:.\Generated_Source\PSoC5/UART_3.c ****     #include "UART_3_IntClock.h"
  20:.\Generated_Source\PSoC5/UART_3.c **** #endif /* End UART_3_INTERNAL_CLOCK_USED */
  21:.\Generated_Source\PSoC5/UART_3.c **** 
  22:.\Generated_Source\PSoC5/UART_3.c **** 
  23:.\Generated_Source\PSoC5/UART_3.c **** /***************************************
  24:.\Generated_Source\PSoC5/UART_3.c **** * Global data allocation
  25:.\Generated_Source\PSoC5/UART_3.c **** ***************************************/
  26:.\Generated_Source\PSoC5/UART_3.c **** 
  27:.\Generated_Source\PSoC5/UART_3.c **** uint8 UART_3_initVar = 0u;
  28:.\Generated_Source\PSoC5/UART_3.c **** 
  29:.\Generated_Source\PSoC5/UART_3.c **** #if (UART_3_TX_INTERRUPT_ENABLED && UART_3_TX_ENABLED)
  30:.\Generated_Source\PSoC5/UART_3.c ****     volatile uint8 UART_3_txBuffer[UART_3_TX_BUFFER_SIZE];
  31:.\Generated_Source\PSoC5/UART_3.c ****     volatile uint8 UART_3_txBufferRead = 0u;
  32:.\Generated_Source\PSoC5/UART_3.c ****     uint8 UART_3_txBufferWrite = 0u;
  33:.\Generated_Source\PSoC5/UART_3.c **** #endif /* (UART_3_TX_INTERRUPT_ENABLED && UART_3_TX_ENABLED) */
  34:.\Generated_Source\PSoC5/UART_3.c **** 
  35:.\Generated_Source\PSoC5/UART_3.c **** #if (UART_3_RX_INTERRUPT_ENABLED && (UART_3_RX_ENABLED || UART_3_HD_ENABLED))
  36:.\Generated_Source\PSoC5/UART_3.c ****     uint8 UART_3_errorStatus = 0u;
  37:.\Generated_Source\PSoC5/UART_3.c ****     volatile uint8 UART_3_rxBuffer[UART_3_RX_BUFFER_SIZE];
  38:.\Generated_Source\PSoC5/UART_3.c ****     volatile uint8 UART_3_rxBufferRead  = 0u;
  39:.\Generated_Source\PSoC5/UART_3.c ****     volatile uint8 UART_3_rxBufferWrite = 0u;
  40:.\Generated_Source\PSoC5/UART_3.c ****     volatile uint8 UART_3_rxBufferLoopDetect = 0u;
  41:.\Generated_Source\PSoC5/UART_3.c ****     volatile uint8 UART_3_rxBufferOverflow   = 0u;
  42:.\Generated_Source\PSoC5/UART_3.c ****     #if (UART_3_RXHW_ADDRESS_ENABLED)
  43:.\Generated_Source\PSoC5/UART_3.c ****         volatile uint8 UART_3_rxAddressMode = UART_3_RX_ADDRESS_MODE;
  44:.\Generated_Source\PSoC5/UART_3.c ****         volatile uint8 UART_3_rxAddressDetected = 0u;
  45:.\Generated_Source\PSoC5/UART_3.c ****     #endif /* (UART_3_RXHW_ADDRESS_ENABLED) */
  46:.\Generated_Source\PSoC5/UART_3.c **** #endif /* (UART_3_RX_INTERRUPT_ENABLED && (UART_3_RX_ENABLED || UART_3_HD_ENABLED)) */
  47:.\Generated_Source\PSoC5/UART_3.c **** 
  48:.\Generated_Source\PSoC5/UART_3.c **** 
  49:.\Generated_Source\PSoC5/UART_3.c **** /*******************************************************************************
  50:.\Generated_Source\PSoC5/UART_3.c **** * Function Name: UART_3_Start
  51:.\Generated_Source\PSoC5/UART_3.c **** ********************************************************************************
  52:.\Generated_Source\PSoC5/UART_3.c **** *
  53:.\Generated_Source\PSoC5/UART_3.c **** * Summary:
  54:.\Generated_Source\PSoC5/UART_3.c **** *  This is the preferred method to begin component operation.
  55:.\Generated_Source\PSoC5/UART_3.c **** *  UART_3_Start() sets the initVar variable, calls the
  56:.\Generated_Source\PSoC5/UART_3.c **** *  UART_3_Init() function, and then calls the
  57:.\Generated_Source\PSoC5/UART_3.c **** *  UART_3_Enable() function.
  58:.\Generated_Source\PSoC5/UART_3.c **** *
  59:.\Generated_Source\PSoC5/UART_3.c **** * Parameters:
  60:.\Generated_Source\PSoC5/UART_3.c **** *  None.
  61:.\Generated_Source\PSoC5/UART_3.c **** *
  62:.\Generated_Source\PSoC5/UART_3.c **** * Return:
  63:.\Generated_Source\PSoC5/UART_3.c **** *  None.
  64:.\Generated_Source\PSoC5/UART_3.c **** *
  65:.\Generated_Source\PSoC5/UART_3.c **** * Global variables:
  66:.\Generated_Source\PSoC5/UART_3.c **** *  The UART_3_intiVar variable is used to indicate initial
  67:.\Generated_Source\PSoC5/UART_3.c **** *  configuration of this component. The variable is initialized to zero (0u)
  68:.\Generated_Source\PSoC5/UART_3.c **** *  and set to one (1u) the first time UART_3_Start() is called. This
  69:.\Generated_Source\PSoC5/UART_3.c **** *  allows for component initialization without re-initialization in all
  70:.\Generated_Source\PSoC5/UART_3.c **** *  subsequent calls to the UART_3_Start() routine.
  71:.\Generated_Source\PSoC5/UART_3.c **** *
ARM GAS  C:\Users\kingi\AppData\Local\Temp\ccQc3vxb.s 			page 3


  72:.\Generated_Source\PSoC5/UART_3.c **** * Reentrant:
  73:.\Generated_Source\PSoC5/UART_3.c **** *  No.
  74:.\Generated_Source\PSoC5/UART_3.c **** *
  75:.\Generated_Source\PSoC5/UART_3.c **** *******************************************************************************/
  76:.\Generated_Source\PSoC5/UART_3.c **** void UART_3_Start(void) 
  77:.\Generated_Source\PSoC5/UART_3.c **** {
  44              		.loc 1 77 0
  45              		.cfi_startproc
  46              		@ args = 0, pretend = 0, frame = 0
  47              		@ frame_needed = 1, uses_anonymous_args = 0
  48 0000 80B5     		push	{r7, lr}
  49              		.cfi_def_cfa_offset 8
  50              		.cfi_offset 7, -8
  51              		.cfi_offset 14, -4
  52 0002 00AF     		add	r7, sp, #0
  53              		.cfi_def_cfa_register 7
  78:.\Generated_Source\PSoC5/UART_3.c ****     /* If not initialized then initialize all required hardware and software */
  79:.\Generated_Source\PSoC5/UART_3.c ****     if(UART_3_initVar == 0u)
  54              		.loc 1 79 0
  55 0004 054B     		ldr	r3, .L3
  56 0006 1B78     		ldrb	r3, [r3]	@ zero_extendqisi2
  57 0008 002B     		cmp	r3, #0
  58 000a 04D1     		bne	.L2
  80:.\Generated_Source\PSoC5/UART_3.c ****     {
  81:.\Generated_Source\PSoC5/UART_3.c ****         UART_3_Init();
  59              		.loc 1 81 0
  60 000c FFF7FEFF 		bl	UART_3_Init
  82:.\Generated_Source\PSoC5/UART_3.c ****         UART_3_initVar = 1u;
  61              		.loc 1 82 0
  62 0010 024B     		ldr	r3, .L3
  63 0012 0122     		movs	r2, #1
  64 0014 1A70     		strb	r2, [r3]
  65              	.L2:
  83:.\Generated_Source\PSoC5/UART_3.c ****     }
  84:.\Generated_Source\PSoC5/UART_3.c **** 
  85:.\Generated_Source\PSoC5/UART_3.c ****     UART_3_Enable();
  66              		.loc 1 85 0
  67 0016 FFF7FEFF 		bl	UART_3_Enable
  86:.\Generated_Source\PSoC5/UART_3.c **** }
  68              		.loc 1 86 0
  69 001a 80BD     		pop	{r7, pc}
  70              	.L4:
  71              		.align	2
  72              	.L3:
  73 001c 00000000 		.word	UART_3_initVar
  74              		.cfi_endproc
  75              	.LFE0:
  76              		.size	UART_3_Start, .-UART_3_Start
  77              		.section	.text.UART_3_Init,"ax",%progbits
  78              		.align	2
  79              		.global	UART_3_Init
  80              		.thumb
  81              		.thumb_func
  82              		.type	UART_3_Init, %function
  83              	UART_3_Init:
  84              	.LFB1:
  87:.\Generated_Source\PSoC5/UART_3.c **** 
ARM GAS  C:\Users\kingi\AppData\Local\Temp\ccQc3vxb.s 			page 4


  88:.\Generated_Source\PSoC5/UART_3.c **** 
  89:.\Generated_Source\PSoC5/UART_3.c **** /*******************************************************************************
  90:.\Generated_Source\PSoC5/UART_3.c **** * Function Name: UART_3_Init
  91:.\Generated_Source\PSoC5/UART_3.c **** ********************************************************************************
  92:.\Generated_Source\PSoC5/UART_3.c **** *
  93:.\Generated_Source\PSoC5/UART_3.c **** * Summary:
  94:.\Generated_Source\PSoC5/UART_3.c **** *  Initializes or restores the component according to the customizer Configure
  95:.\Generated_Source\PSoC5/UART_3.c **** *  dialog settings. It is not necessary to call UART_3_Init() because
  96:.\Generated_Source\PSoC5/UART_3.c **** *  the UART_3_Start() API calls this function and is the preferred
  97:.\Generated_Source\PSoC5/UART_3.c **** *  method to begin component operation.
  98:.\Generated_Source\PSoC5/UART_3.c **** *
  99:.\Generated_Source\PSoC5/UART_3.c **** * Parameters:
 100:.\Generated_Source\PSoC5/UART_3.c **** *  None.
 101:.\Generated_Source\PSoC5/UART_3.c **** *
 102:.\Generated_Source\PSoC5/UART_3.c **** * Return:
 103:.\Generated_Source\PSoC5/UART_3.c **** *  None.
 104:.\Generated_Source\PSoC5/UART_3.c **** *
 105:.\Generated_Source\PSoC5/UART_3.c **** *******************************************************************************/
 106:.\Generated_Source\PSoC5/UART_3.c **** void UART_3_Init(void) 
 107:.\Generated_Source\PSoC5/UART_3.c **** {
  85              		.loc 1 107 0
  86              		.cfi_startproc
  87              		@ args = 0, pretend = 0, frame = 0
  88              		@ frame_needed = 1, uses_anonymous_args = 0
  89 0000 80B5     		push	{r7, lr}
  90              		.cfi_def_cfa_offset 8
  91              		.cfi_offset 7, -8
  92              		.cfi_offset 14, -4
  93 0002 00AF     		add	r7, sp, #0
  94              		.cfi_def_cfa_register 7
 108:.\Generated_Source\PSoC5/UART_3.c ****     #if(UART_3_RX_ENABLED || UART_3_HD_ENABLED)
 109:.\Generated_Source\PSoC5/UART_3.c **** 
 110:.\Generated_Source\PSoC5/UART_3.c ****         #if (UART_3_RX_INTERRUPT_ENABLED)
 111:.\Generated_Source\PSoC5/UART_3.c ****             /* Set RX interrupt vector and priority */
 112:.\Generated_Source\PSoC5/UART_3.c ****             (void) CyIntSetVector(UART_3_RX_VECT_NUM, &UART_3_RXISR);
 113:.\Generated_Source\PSoC5/UART_3.c ****             CyIntSetPriority(UART_3_RX_VECT_NUM, UART_3_RX_PRIOR_NUM);
 114:.\Generated_Source\PSoC5/UART_3.c ****             UART_3_errorStatus = 0u;
 115:.\Generated_Source\PSoC5/UART_3.c ****         #endif /* (UART_3_RX_INTERRUPT_ENABLED) */
 116:.\Generated_Source\PSoC5/UART_3.c **** 
 117:.\Generated_Source\PSoC5/UART_3.c ****         #if (UART_3_RXHW_ADDRESS_ENABLED)
 118:.\Generated_Source\PSoC5/UART_3.c ****             UART_3_SetRxAddressMode(UART_3_RX_ADDRESS_MODE);
 119:.\Generated_Source\PSoC5/UART_3.c ****             UART_3_SetRxAddress1(UART_3_RX_HW_ADDRESS1);
 120:.\Generated_Source\PSoC5/UART_3.c ****             UART_3_SetRxAddress2(UART_3_RX_HW_ADDRESS2);
 121:.\Generated_Source\PSoC5/UART_3.c ****         #endif /* End UART_3_RXHW_ADDRESS_ENABLED */
 122:.\Generated_Source\PSoC5/UART_3.c **** 
 123:.\Generated_Source\PSoC5/UART_3.c ****         /* Init Count7 period */
 124:.\Generated_Source\PSoC5/UART_3.c ****         UART_3_RXBITCTR_PERIOD_REG = UART_3_RXBITCTR_INIT;
 125:.\Generated_Source\PSoC5/UART_3.c ****         /* Configure the Initial RX interrupt mask */
 126:.\Generated_Source\PSoC5/UART_3.c ****         UART_3_RXSTATUS_MASK_REG  = UART_3_INIT_RX_INTERRUPTS_MASK;
 127:.\Generated_Source\PSoC5/UART_3.c ****     #endif /* End UART_3_RX_ENABLED || UART_3_HD_ENABLED*/
 128:.\Generated_Source\PSoC5/UART_3.c **** 
 129:.\Generated_Source\PSoC5/UART_3.c ****     #if(UART_3_TX_ENABLED)
 130:.\Generated_Source\PSoC5/UART_3.c ****         #if (UART_3_TX_INTERRUPT_ENABLED)
 131:.\Generated_Source\PSoC5/UART_3.c ****             /* Set TX interrupt vector and priority */
 132:.\Generated_Source\PSoC5/UART_3.c ****             (void) CyIntSetVector(UART_3_TX_VECT_NUM, &UART_3_TXISR);
  95              		.loc 1 132 0
  96 0004 0420     		movs	r0, #4
ARM GAS  C:\Users\kingi\AppData\Local\Temp\ccQc3vxb.s 			page 5


  97 0006 0849     		ldr	r1, .L6
  98 0008 FFF7FEFF 		bl	CyIntSetVector
 133:.\Generated_Source\PSoC5/UART_3.c ****             CyIntSetPriority(UART_3_TX_VECT_NUM, UART_3_TX_PRIOR_NUM);
  99              		.loc 1 133 0
 100 000c 0420     		movs	r0, #4
 101 000e 0721     		movs	r1, #7
 102 0010 FFF7FEFF 		bl	CyIntSetPriority
 134:.\Generated_Source\PSoC5/UART_3.c ****         #endif /* (UART_3_TX_INTERRUPT_ENABLED) */
 135:.\Generated_Source\PSoC5/UART_3.c **** 
 136:.\Generated_Source\PSoC5/UART_3.c ****         /* Write Counter Value for TX Bit Clk Generator*/
 137:.\Generated_Source\PSoC5/UART_3.c ****         #if (UART_3_TXCLKGEN_DP)
 138:.\Generated_Source\PSoC5/UART_3.c ****             UART_3_TXBITCLKGEN_CTR_REG = UART_3_BIT_CENTER;
 103              		.loc 1 138 0
 104 0014 054B     		ldr	r3, .L6+4
 105 0016 0622     		movs	r2, #6
 106 0018 1A70     		strb	r2, [r3]
 139:.\Generated_Source\PSoC5/UART_3.c ****             UART_3_TXBITCLKTX_COMPLETE_REG = ((UART_3_NUMBER_OF_DATA_BITS +
 107              		.loc 1 139 0
 108 001a 054B     		ldr	r3, .L6+8
 109 001c 4722     		movs	r2, #71
 110 001e 1A70     		strb	r2, [r3]
 140:.\Generated_Source\PSoC5/UART_3.c ****                         UART_3_NUMBER_OF_START_BIT) * UART_3_OVER_SAMPLE_COUNT) - 1u;
 141:.\Generated_Source\PSoC5/UART_3.c ****         #else
 142:.\Generated_Source\PSoC5/UART_3.c ****             UART_3_TXBITCTR_PERIOD_REG = ((UART_3_NUMBER_OF_DATA_BITS +
 143:.\Generated_Source\PSoC5/UART_3.c ****                         UART_3_NUMBER_OF_START_BIT) * UART_3_OVER_SAMPLE_8) - 1u;
 144:.\Generated_Source\PSoC5/UART_3.c ****         #endif /* End UART_3_TXCLKGEN_DP */
 145:.\Generated_Source\PSoC5/UART_3.c **** 
 146:.\Generated_Source\PSoC5/UART_3.c ****         /* Configure the Initial TX interrupt mask */
 147:.\Generated_Source\PSoC5/UART_3.c ****         #if (UART_3_TX_INTERRUPT_ENABLED)
 148:.\Generated_Source\PSoC5/UART_3.c ****             UART_3_TXSTATUS_MASK_REG = UART_3_TX_STS_FIFO_EMPTY;
 111              		.loc 1 148 0
 112 0020 044B     		ldr	r3, .L6+12
 113 0022 0222     		movs	r2, #2
 114 0024 1A70     		strb	r2, [r3]
 149:.\Generated_Source\PSoC5/UART_3.c ****         #else
 150:.\Generated_Source\PSoC5/UART_3.c ****             UART_3_TXSTATUS_MASK_REG = UART_3_INIT_TX_INTERRUPTS_MASK;
 151:.\Generated_Source\PSoC5/UART_3.c ****         #endif /*End UART_3_TX_INTERRUPT_ENABLED*/
 152:.\Generated_Source\PSoC5/UART_3.c **** 
 153:.\Generated_Source\PSoC5/UART_3.c ****     #endif /* End UART_3_TX_ENABLED */
 154:.\Generated_Source\PSoC5/UART_3.c **** 
 155:.\Generated_Source\PSoC5/UART_3.c ****     #if(UART_3_PARITY_TYPE_SW)  /* Write Parity to Control Register */
 156:.\Generated_Source\PSoC5/UART_3.c ****         UART_3_WriteControlRegister( \
 157:.\Generated_Source\PSoC5/UART_3.c ****             (UART_3_ReadControlRegister() & (uint8)~UART_3_CTRL_PARITY_TYPE_MASK) | \
 158:.\Generated_Source\PSoC5/UART_3.c ****             (uint8)(UART_3_PARITY_TYPE << UART_3_CTRL_PARITY_TYPE0_SHIFT) );
 159:.\Generated_Source\PSoC5/UART_3.c ****     #endif /* End UART_3_PARITY_TYPE_SW */
 160:.\Generated_Source\PSoC5/UART_3.c **** }
 115              		.loc 1 160 0
 116 0026 80BD     		pop	{r7, pc}
 117              	.L7:
 118              		.align	2
 119              	.L6:
 120 0028 00000000 		.word	UART_3_TXISR
 121 002c 25650040 		.word	1073767717
 122 0030 35650040 		.word	1073767733
 123 0034 86650040 		.word	1073767814
 124              		.cfi_endproc
 125              	.LFE1:
ARM GAS  C:\Users\kingi\AppData\Local\Temp\ccQc3vxb.s 			page 6


 126              		.size	UART_3_Init, .-UART_3_Init
 127              		.section	.text.UART_3_Enable,"ax",%progbits
 128              		.align	2
 129              		.global	UART_3_Enable
 130              		.thumb
 131              		.thumb_func
 132              		.type	UART_3_Enable, %function
 133              	UART_3_Enable:
 134              	.LFB2:
 161:.\Generated_Source\PSoC5/UART_3.c **** 
 162:.\Generated_Source\PSoC5/UART_3.c **** 
 163:.\Generated_Source\PSoC5/UART_3.c **** /*******************************************************************************
 164:.\Generated_Source\PSoC5/UART_3.c **** * Function Name: UART_3_Enable
 165:.\Generated_Source\PSoC5/UART_3.c **** ********************************************************************************
 166:.\Generated_Source\PSoC5/UART_3.c **** *
 167:.\Generated_Source\PSoC5/UART_3.c **** * Summary:
 168:.\Generated_Source\PSoC5/UART_3.c **** *  Activates the hardware and begins component operation. It is not necessary
 169:.\Generated_Source\PSoC5/UART_3.c **** *  to call UART_3_Enable() because the UART_3_Start() API
 170:.\Generated_Source\PSoC5/UART_3.c **** *  calls this function, which is the preferred method to begin component
 171:.\Generated_Source\PSoC5/UART_3.c **** *  operation.
 172:.\Generated_Source\PSoC5/UART_3.c **** 
 173:.\Generated_Source\PSoC5/UART_3.c **** * Parameters:
 174:.\Generated_Source\PSoC5/UART_3.c **** *  None.
 175:.\Generated_Source\PSoC5/UART_3.c **** *
 176:.\Generated_Source\PSoC5/UART_3.c **** * Return:
 177:.\Generated_Source\PSoC5/UART_3.c **** *  None.
 178:.\Generated_Source\PSoC5/UART_3.c **** *
 179:.\Generated_Source\PSoC5/UART_3.c **** * Global Variables:
 180:.\Generated_Source\PSoC5/UART_3.c **** *  UART_3_rxAddressDetected - set to initial state (0).
 181:.\Generated_Source\PSoC5/UART_3.c **** *
 182:.\Generated_Source\PSoC5/UART_3.c **** *******************************************************************************/
 183:.\Generated_Source\PSoC5/UART_3.c **** void UART_3_Enable(void) 
 184:.\Generated_Source\PSoC5/UART_3.c **** {
 135              		.loc 1 184 0
 136              		.cfi_startproc
 137              		@ args = 0, pretend = 0, frame = 8
 138              		@ frame_needed = 1, uses_anonymous_args = 0
 139 0000 80B5     		push	{r7, lr}
 140              		.cfi_def_cfa_offset 8
 141              		.cfi_offset 7, -8
 142              		.cfi_offset 14, -4
 143 0002 82B0     		sub	sp, sp, #8
 144              		.cfi_def_cfa_offset 16
 145 0004 00AF     		add	r7, sp, #0
 146              		.cfi_def_cfa_register 7
 185:.\Generated_Source\PSoC5/UART_3.c ****     uint8 enableInterrupts;
 186:.\Generated_Source\PSoC5/UART_3.c ****     enableInterrupts = CyEnterCriticalSection();
 147              		.loc 1 186 0
 148 0006 FFF7FEFF 		bl	CyEnterCriticalSection
 149 000a 0346     		mov	r3, r0
 150 000c FB71     		strb	r3, [r7, #7]
 187:.\Generated_Source\PSoC5/UART_3.c **** 
 188:.\Generated_Source\PSoC5/UART_3.c ****     #if (UART_3_RX_ENABLED || UART_3_HD_ENABLED)
 189:.\Generated_Source\PSoC5/UART_3.c ****         /* RX Counter (Count7) Enable */
 190:.\Generated_Source\PSoC5/UART_3.c ****         UART_3_RXBITCTR_CONTROL_REG |= UART_3_CNTR_ENABLE;
 191:.\Generated_Source\PSoC5/UART_3.c **** 
 192:.\Generated_Source\PSoC5/UART_3.c ****         /* Enable the RX Interrupt */
ARM GAS  C:\Users\kingi\AppData\Local\Temp\ccQc3vxb.s 			page 7


 193:.\Generated_Source\PSoC5/UART_3.c ****         UART_3_RXSTATUS_ACTL_REG  |= UART_3_INT_ENABLE;
 194:.\Generated_Source\PSoC5/UART_3.c **** 
 195:.\Generated_Source\PSoC5/UART_3.c ****         #if (UART_3_RX_INTERRUPT_ENABLED)
 196:.\Generated_Source\PSoC5/UART_3.c ****             UART_3_EnableRxInt();
 197:.\Generated_Source\PSoC5/UART_3.c **** 
 198:.\Generated_Source\PSoC5/UART_3.c ****             #if (UART_3_RXHW_ADDRESS_ENABLED)
 199:.\Generated_Source\PSoC5/UART_3.c ****                 UART_3_rxAddressDetected = 0u;
 200:.\Generated_Source\PSoC5/UART_3.c ****             #endif /* (UART_3_RXHW_ADDRESS_ENABLED) */
 201:.\Generated_Source\PSoC5/UART_3.c ****         #endif /* (UART_3_RX_INTERRUPT_ENABLED) */
 202:.\Generated_Source\PSoC5/UART_3.c ****     #endif /* (UART_3_RX_ENABLED || UART_3_HD_ENABLED) */
 203:.\Generated_Source\PSoC5/UART_3.c **** 
 204:.\Generated_Source\PSoC5/UART_3.c ****     #if(UART_3_TX_ENABLED)
 205:.\Generated_Source\PSoC5/UART_3.c ****         /* TX Counter (DP/Count7) Enable */
 206:.\Generated_Source\PSoC5/UART_3.c ****         #if(!UART_3_TXCLKGEN_DP)
 207:.\Generated_Source\PSoC5/UART_3.c ****             UART_3_TXBITCTR_CONTROL_REG |= UART_3_CNTR_ENABLE;
 208:.\Generated_Source\PSoC5/UART_3.c ****         #endif /* End UART_3_TXCLKGEN_DP */
 209:.\Generated_Source\PSoC5/UART_3.c **** 
 210:.\Generated_Source\PSoC5/UART_3.c ****         /* Enable the TX Interrupt */
 211:.\Generated_Source\PSoC5/UART_3.c ****         UART_3_TXSTATUS_ACTL_REG |= UART_3_INT_ENABLE;
 151              		.loc 1 211 0
 152 000e 0B4A     		ldr	r2, .L9
 153 0010 0A4B     		ldr	r3, .L9
 154 0012 1B78     		ldrb	r3, [r3]
 155 0014 DBB2     		uxtb	r3, r3
 156 0016 43F01003 		orr	r3, r3, #16
 157 001a DBB2     		uxtb	r3, r3
 158 001c 1370     		strb	r3, [r2]
 212:.\Generated_Source\PSoC5/UART_3.c ****         #if (UART_3_TX_INTERRUPT_ENABLED)
 213:.\Generated_Source\PSoC5/UART_3.c ****             UART_3_ClearPendingTxInt(); /* Clear history of TX_NOT_EMPTY */
 159              		.loc 1 213 0
 160 001e 084B     		ldr	r3, .L9+4
 161 0020 1022     		movs	r2, #16
 162 0022 1A60     		str	r2, [r3]
 214:.\Generated_Source\PSoC5/UART_3.c ****             UART_3_EnableTxInt();
 163              		.loc 1 214 0
 164 0024 074B     		ldr	r3, .L9+8
 165 0026 1022     		movs	r2, #16
 166 0028 1A60     		str	r2, [r3]
 215:.\Generated_Source\PSoC5/UART_3.c ****         #endif /* (UART_3_TX_INTERRUPT_ENABLED) */
 216:.\Generated_Source\PSoC5/UART_3.c ****      #endif /* (UART_3_TX_INTERRUPT_ENABLED) */
 217:.\Generated_Source\PSoC5/UART_3.c **** 
 218:.\Generated_Source\PSoC5/UART_3.c ****     #if (UART_3_INTERNAL_CLOCK_USED)
 219:.\Generated_Source\PSoC5/UART_3.c ****         UART_3_IntClock_Start();  /* Enable the clock */
 167              		.loc 1 219 0
 168 002a FFF7FEFF 		bl	UART_3_IntClock_Start
 220:.\Generated_Source\PSoC5/UART_3.c ****     #endif /* (UART_3_INTERNAL_CLOCK_USED) */
 221:.\Generated_Source\PSoC5/UART_3.c **** 
 222:.\Generated_Source\PSoC5/UART_3.c ****     CyExitCriticalSection(enableInterrupts);
 169              		.loc 1 222 0
 170 002e FB79     		ldrb	r3, [r7, #7]	@ zero_extendqisi2
 171 0030 1846     		mov	r0, r3
 172 0032 FFF7FEFF 		bl	CyExitCriticalSection
 223:.\Generated_Source\PSoC5/UART_3.c **** }
 173              		.loc 1 223 0
 174 0036 0837     		adds	r7, r7, #8
 175              		.cfi_def_cfa_offset 8
 176 0038 BD46     		mov	sp, r7
ARM GAS  C:\Users\kingi\AppData\Local\Temp\ccQc3vxb.s 			page 8


 177              		.cfi_def_cfa_register 13
 178              		@ sp needed
 179 003a 80BD     		pop	{r7, pc}
 180              	.L10:
 181              		.align	2
 182              	.L9:
 183 003c 96650040 		.word	1073767830
 184 0040 80E200E0 		.word	-536812928
 185 0044 00E100E0 		.word	-536813312
 186              		.cfi_endproc
 187              	.LFE2:
 188              		.size	UART_3_Enable, .-UART_3_Enable
 189              		.section	.text.UART_3_Stop,"ax",%progbits
 190              		.align	2
 191              		.global	UART_3_Stop
 192              		.thumb
 193              		.thumb_func
 194              		.type	UART_3_Stop, %function
 195              	UART_3_Stop:
 196              	.LFB3:
 224:.\Generated_Source\PSoC5/UART_3.c **** 
 225:.\Generated_Source\PSoC5/UART_3.c **** 
 226:.\Generated_Source\PSoC5/UART_3.c **** /*******************************************************************************
 227:.\Generated_Source\PSoC5/UART_3.c **** * Function Name: UART_3_Stop
 228:.\Generated_Source\PSoC5/UART_3.c **** ********************************************************************************
 229:.\Generated_Source\PSoC5/UART_3.c **** *
 230:.\Generated_Source\PSoC5/UART_3.c **** * Summary:
 231:.\Generated_Source\PSoC5/UART_3.c **** *  Disables the UART operation.
 232:.\Generated_Source\PSoC5/UART_3.c **** *
 233:.\Generated_Source\PSoC5/UART_3.c **** * Parameters:
 234:.\Generated_Source\PSoC5/UART_3.c **** *  None.
 235:.\Generated_Source\PSoC5/UART_3.c **** *
 236:.\Generated_Source\PSoC5/UART_3.c **** * Return:
 237:.\Generated_Source\PSoC5/UART_3.c **** *  None.
 238:.\Generated_Source\PSoC5/UART_3.c **** *
 239:.\Generated_Source\PSoC5/UART_3.c **** *******************************************************************************/
 240:.\Generated_Source\PSoC5/UART_3.c **** void UART_3_Stop(void) 
 241:.\Generated_Source\PSoC5/UART_3.c **** {
 197              		.loc 1 241 0
 198              		.cfi_startproc
 199              		@ args = 0, pretend = 0, frame = 8
 200              		@ frame_needed = 1, uses_anonymous_args = 0
 201 0000 80B5     		push	{r7, lr}
 202              		.cfi_def_cfa_offset 8
 203              		.cfi_offset 7, -8
 204              		.cfi_offset 14, -4
 205 0002 82B0     		sub	sp, sp, #8
 206              		.cfi_def_cfa_offset 16
 207 0004 00AF     		add	r7, sp, #0
 208              		.cfi_def_cfa_register 7
 242:.\Generated_Source\PSoC5/UART_3.c ****     uint8 enableInterrupts;
 243:.\Generated_Source\PSoC5/UART_3.c ****     enableInterrupts = CyEnterCriticalSection();
 209              		.loc 1 243 0
 210 0006 FFF7FEFF 		bl	CyEnterCriticalSection
 211 000a 0346     		mov	r3, r0
 212 000c FB71     		strb	r3, [r7, #7]
 244:.\Generated_Source\PSoC5/UART_3.c **** 
ARM GAS  C:\Users\kingi\AppData\Local\Temp\ccQc3vxb.s 			page 9


 245:.\Generated_Source\PSoC5/UART_3.c ****     /* Write Bit Counter Disable */
 246:.\Generated_Source\PSoC5/UART_3.c ****     #if (UART_3_RX_ENABLED || UART_3_HD_ENABLED)
 247:.\Generated_Source\PSoC5/UART_3.c ****         UART_3_RXBITCTR_CONTROL_REG &= (uint8) ~UART_3_CNTR_ENABLE;
 248:.\Generated_Source\PSoC5/UART_3.c ****     #endif /* (UART_3_RX_ENABLED || UART_3_HD_ENABLED) */
 249:.\Generated_Source\PSoC5/UART_3.c **** 
 250:.\Generated_Source\PSoC5/UART_3.c ****     #if (UART_3_TX_ENABLED)
 251:.\Generated_Source\PSoC5/UART_3.c ****         #if(!UART_3_TXCLKGEN_DP)
 252:.\Generated_Source\PSoC5/UART_3.c ****             UART_3_TXBITCTR_CONTROL_REG &= (uint8) ~UART_3_CNTR_ENABLE;
 253:.\Generated_Source\PSoC5/UART_3.c ****         #endif /* (!UART_3_TXCLKGEN_DP) */
 254:.\Generated_Source\PSoC5/UART_3.c ****     #endif /* (UART_3_TX_ENABLED) */
 255:.\Generated_Source\PSoC5/UART_3.c **** 
 256:.\Generated_Source\PSoC5/UART_3.c ****     #if (UART_3_INTERNAL_CLOCK_USED)
 257:.\Generated_Source\PSoC5/UART_3.c ****         UART_3_IntClock_Stop();   /* Disable the clock */
 213              		.loc 1 257 0
 214 000e FFF7FEFF 		bl	UART_3_IntClock_Stop
 258:.\Generated_Source\PSoC5/UART_3.c ****     #endif /* (UART_3_INTERNAL_CLOCK_USED) */
 259:.\Generated_Source\PSoC5/UART_3.c **** 
 260:.\Generated_Source\PSoC5/UART_3.c ****     /* Disable internal interrupt component */
 261:.\Generated_Source\PSoC5/UART_3.c ****     #if (UART_3_RX_ENABLED || UART_3_HD_ENABLED)
 262:.\Generated_Source\PSoC5/UART_3.c ****         UART_3_RXSTATUS_ACTL_REG  &= (uint8) ~UART_3_INT_ENABLE;
 263:.\Generated_Source\PSoC5/UART_3.c **** 
 264:.\Generated_Source\PSoC5/UART_3.c ****         #if (UART_3_RX_INTERRUPT_ENABLED)
 265:.\Generated_Source\PSoC5/UART_3.c ****             UART_3_DisableRxInt();
 266:.\Generated_Source\PSoC5/UART_3.c ****         #endif /* (UART_3_RX_INTERRUPT_ENABLED) */
 267:.\Generated_Source\PSoC5/UART_3.c ****     #endif /* (UART_3_RX_ENABLED || UART_3_HD_ENABLED) */
 268:.\Generated_Source\PSoC5/UART_3.c **** 
 269:.\Generated_Source\PSoC5/UART_3.c ****     #if (UART_3_TX_ENABLED)
 270:.\Generated_Source\PSoC5/UART_3.c ****         UART_3_TXSTATUS_ACTL_REG &= (uint8) ~UART_3_INT_ENABLE;
 215              		.loc 1 270 0
 216 0012 094A     		ldr	r2, .L12
 217 0014 084B     		ldr	r3, .L12
 218 0016 1B78     		ldrb	r3, [r3]
 219 0018 DBB2     		uxtb	r3, r3
 220 001a 23F01003 		bic	r3, r3, #16
 221 001e DBB2     		uxtb	r3, r3
 222 0020 1370     		strb	r3, [r2]
 271:.\Generated_Source\PSoC5/UART_3.c **** 
 272:.\Generated_Source\PSoC5/UART_3.c ****         #if (UART_3_TX_INTERRUPT_ENABLED)
 273:.\Generated_Source\PSoC5/UART_3.c ****             UART_3_DisableTxInt();
 223              		.loc 1 273 0
 224 0022 064B     		ldr	r3, .L12+4
 225 0024 1022     		movs	r2, #16
 226 0026 1A60     		str	r2, [r3]
 274:.\Generated_Source\PSoC5/UART_3.c ****         #endif /* (UART_3_TX_INTERRUPT_ENABLED) */
 275:.\Generated_Source\PSoC5/UART_3.c ****     #endif /* (UART_3_TX_ENABLED) */
 276:.\Generated_Source\PSoC5/UART_3.c **** 
 277:.\Generated_Source\PSoC5/UART_3.c ****     CyExitCriticalSection(enableInterrupts);
 227              		.loc 1 277 0
 228 0028 FB79     		ldrb	r3, [r7, #7]	@ zero_extendqisi2
 229 002a 1846     		mov	r0, r3
 230 002c FFF7FEFF 		bl	CyExitCriticalSection
 278:.\Generated_Source\PSoC5/UART_3.c **** }
 231              		.loc 1 278 0
 232 0030 0837     		adds	r7, r7, #8
 233              		.cfi_def_cfa_offset 8
 234 0032 BD46     		mov	sp, r7
 235              		.cfi_def_cfa_register 13
ARM GAS  C:\Users\kingi\AppData\Local\Temp\ccQc3vxb.s 			page 10


 236              		@ sp needed
 237 0034 80BD     		pop	{r7, pc}
 238              	.L13:
 239 0036 00BF     		.align	2
 240              	.L12:
 241 0038 96650040 		.word	1073767830
 242 003c 80E100E0 		.word	-536813184
 243              		.cfi_endproc
 244              	.LFE3:
 245              		.size	UART_3_Stop, .-UART_3_Stop
 246              		.section	.text.UART_3_ReadControlRegister,"ax",%progbits
 247              		.align	2
 248              		.global	UART_3_ReadControlRegister
 249              		.thumb
 250              		.thumb_func
 251              		.type	UART_3_ReadControlRegister, %function
 252              	UART_3_ReadControlRegister:
 253              	.LFB4:
 279:.\Generated_Source\PSoC5/UART_3.c **** 
 280:.\Generated_Source\PSoC5/UART_3.c **** 
 281:.\Generated_Source\PSoC5/UART_3.c **** /*******************************************************************************
 282:.\Generated_Source\PSoC5/UART_3.c **** * Function Name: UART_3_ReadControlRegister
 283:.\Generated_Source\PSoC5/UART_3.c **** ********************************************************************************
 284:.\Generated_Source\PSoC5/UART_3.c **** *
 285:.\Generated_Source\PSoC5/UART_3.c **** * Summary:
 286:.\Generated_Source\PSoC5/UART_3.c **** *  Returns the current value of the control register.
 287:.\Generated_Source\PSoC5/UART_3.c **** *
 288:.\Generated_Source\PSoC5/UART_3.c **** * Parameters:
 289:.\Generated_Source\PSoC5/UART_3.c **** *  None.
 290:.\Generated_Source\PSoC5/UART_3.c **** *
 291:.\Generated_Source\PSoC5/UART_3.c **** * Return:
 292:.\Generated_Source\PSoC5/UART_3.c **** *  Contents of the control register.
 293:.\Generated_Source\PSoC5/UART_3.c **** *
 294:.\Generated_Source\PSoC5/UART_3.c **** *******************************************************************************/
 295:.\Generated_Source\PSoC5/UART_3.c **** uint8 UART_3_ReadControlRegister(void) 
 296:.\Generated_Source\PSoC5/UART_3.c **** {
 254              		.loc 1 296 0
 255              		.cfi_startproc
 256              		@ args = 0, pretend = 0, frame = 0
 257              		@ frame_needed = 1, uses_anonymous_args = 0
 258              		@ link register save eliminated.
 259 0000 80B4     		push	{r7}
 260              		.cfi_def_cfa_offset 4
 261              		.cfi_offset 7, -4
 262 0002 00AF     		add	r7, sp, #0
 263              		.cfi_def_cfa_register 7
 297:.\Generated_Source\PSoC5/UART_3.c ****     #if (UART_3_CONTROL_REG_REMOVED)
 298:.\Generated_Source\PSoC5/UART_3.c ****         return(0u);
 264              		.loc 1 298 0
 265 0004 0023     		movs	r3, #0
 299:.\Generated_Source\PSoC5/UART_3.c ****     #else
 300:.\Generated_Source\PSoC5/UART_3.c ****         return(UART_3_CONTROL_REG);
 301:.\Generated_Source\PSoC5/UART_3.c ****     #endif /* (UART_3_CONTROL_REG_REMOVED) */
 302:.\Generated_Source\PSoC5/UART_3.c **** }
 266              		.loc 1 302 0
 267 0006 1846     		mov	r0, r3
 268 0008 BD46     		mov	sp, r7
ARM GAS  C:\Users\kingi\AppData\Local\Temp\ccQc3vxb.s 			page 11


 269              		.cfi_def_cfa_register 13
 270              		@ sp needed
 271 000a 5DF8047B 		ldr	r7, [sp], #4
 272              		.cfi_restore 7
 273              		.cfi_def_cfa_offset 0
 274 000e 7047     		bx	lr
 275              		.cfi_endproc
 276              	.LFE4:
 277              		.size	UART_3_ReadControlRegister, .-UART_3_ReadControlRegister
 278              		.section	.text.UART_3_WriteControlRegister,"ax",%progbits
 279              		.align	2
 280              		.global	UART_3_WriteControlRegister
 281              		.thumb
 282              		.thumb_func
 283              		.type	UART_3_WriteControlRegister, %function
 284              	UART_3_WriteControlRegister:
 285              	.LFB5:
 303:.\Generated_Source\PSoC5/UART_3.c **** 
 304:.\Generated_Source\PSoC5/UART_3.c **** 
 305:.\Generated_Source\PSoC5/UART_3.c **** /*******************************************************************************
 306:.\Generated_Source\PSoC5/UART_3.c **** * Function Name: UART_3_WriteControlRegister
 307:.\Generated_Source\PSoC5/UART_3.c **** ********************************************************************************
 308:.\Generated_Source\PSoC5/UART_3.c **** *
 309:.\Generated_Source\PSoC5/UART_3.c **** * Summary:
 310:.\Generated_Source\PSoC5/UART_3.c **** *  Writes an 8-bit value into the control register
 311:.\Generated_Source\PSoC5/UART_3.c **** *
 312:.\Generated_Source\PSoC5/UART_3.c **** * Parameters:
 313:.\Generated_Source\PSoC5/UART_3.c **** *  control:  control register value
 314:.\Generated_Source\PSoC5/UART_3.c **** *
 315:.\Generated_Source\PSoC5/UART_3.c **** * Return:
 316:.\Generated_Source\PSoC5/UART_3.c **** *  None.
 317:.\Generated_Source\PSoC5/UART_3.c **** *
 318:.\Generated_Source\PSoC5/UART_3.c **** *******************************************************************************/
 319:.\Generated_Source\PSoC5/UART_3.c **** void  UART_3_WriteControlRegister(uint8 control) 
 320:.\Generated_Source\PSoC5/UART_3.c **** {
 286              		.loc 1 320 0
 287              		.cfi_startproc
 288              		@ args = 0, pretend = 0, frame = 8
 289              		@ frame_needed = 1, uses_anonymous_args = 0
 290              		@ link register save eliminated.
 291 0000 80B4     		push	{r7}
 292              		.cfi_def_cfa_offset 4
 293              		.cfi_offset 7, -4
 294 0002 83B0     		sub	sp, sp, #12
 295              		.cfi_def_cfa_offset 16
 296 0004 00AF     		add	r7, sp, #0
 297              		.cfi_def_cfa_register 7
 298 0006 0346     		mov	r3, r0
 299 0008 FB71     		strb	r3, [r7, #7]
 321:.\Generated_Source\PSoC5/UART_3.c ****     #if (UART_3_CONTROL_REG_REMOVED)
 322:.\Generated_Source\PSoC5/UART_3.c ****         if(0u != control)
 323:.\Generated_Source\PSoC5/UART_3.c ****         {
 324:.\Generated_Source\PSoC5/UART_3.c ****             /* Suppress compiler warning */
 325:.\Generated_Source\PSoC5/UART_3.c ****         }
 326:.\Generated_Source\PSoC5/UART_3.c ****     #else
 327:.\Generated_Source\PSoC5/UART_3.c ****        UART_3_CONTROL_REG = control;
 328:.\Generated_Source\PSoC5/UART_3.c ****     #endif /* (UART_3_CONTROL_REG_REMOVED) */
ARM GAS  C:\Users\kingi\AppData\Local\Temp\ccQc3vxb.s 			page 12


 329:.\Generated_Source\PSoC5/UART_3.c **** }
 300              		.loc 1 329 0
 301 000a 0C37     		adds	r7, r7, #12
 302              		.cfi_def_cfa_offset 4
 303 000c BD46     		mov	sp, r7
 304              		.cfi_def_cfa_register 13
 305              		@ sp needed
 306 000e 5DF8047B 		ldr	r7, [sp], #4
 307              		.cfi_restore 7
 308              		.cfi_def_cfa_offset 0
 309 0012 7047     		bx	lr
 310              		.cfi_endproc
 311              	.LFE5:
 312              		.size	UART_3_WriteControlRegister, .-UART_3_WriteControlRegister
 313              		.section	.text.UART_3_SetTxInterruptMode,"ax",%progbits
 314              		.align	2
 315              		.global	UART_3_SetTxInterruptMode
 316              		.thumb
 317              		.thumb_func
 318              		.type	UART_3_SetTxInterruptMode, %function
 319              	UART_3_SetTxInterruptMode:
 320              	.LFB6:
 330:.\Generated_Source\PSoC5/UART_3.c **** 
 331:.\Generated_Source\PSoC5/UART_3.c **** 
 332:.\Generated_Source\PSoC5/UART_3.c **** #if(UART_3_RX_ENABLED || UART_3_HD_ENABLED)
 333:.\Generated_Source\PSoC5/UART_3.c ****     /*******************************************************************************
 334:.\Generated_Source\PSoC5/UART_3.c ****     * Function Name: UART_3_SetRxInterruptMode
 335:.\Generated_Source\PSoC5/UART_3.c ****     ********************************************************************************
 336:.\Generated_Source\PSoC5/UART_3.c ****     *
 337:.\Generated_Source\PSoC5/UART_3.c ****     * Summary:
 338:.\Generated_Source\PSoC5/UART_3.c ****     *  Configures the RX interrupt sources enabled.
 339:.\Generated_Source\PSoC5/UART_3.c ****     *
 340:.\Generated_Source\PSoC5/UART_3.c ****     * Parameters:
 341:.\Generated_Source\PSoC5/UART_3.c ****     *  IntSrc:  Bit field containing the RX interrupts to enable. Based on the 
 342:.\Generated_Source\PSoC5/UART_3.c ****     *  bit-field arrangement of the status register. This value must be a 
 343:.\Generated_Source\PSoC5/UART_3.c ****     *  combination of status register bit-masks shown below:
 344:.\Generated_Source\PSoC5/UART_3.c ****     *      UART_3_RX_STS_FIFO_NOTEMPTY    Interrupt on byte received.
 345:.\Generated_Source\PSoC5/UART_3.c ****     *      UART_3_RX_STS_PAR_ERROR        Interrupt on parity error.
 346:.\Generated_Source\PSoC5/UART_3.c ****     *      UART_3_RX_STS_STOP_ERROR       Interrupt on stop error.
 347:.\Generated_Source\PSoC5/UART_3.c ****     *      UART_3_RX_STS_BREAK            Interrupt on break.
 348:.\Generated_Source\PSoC5/UART_3.c ****     *      UART_3_RX_STS_OVERRUN          Interrupt on overrun error.
 349:.\Generated_Source\PSoC5/UART_3.c ****     *      UART_3_RX_STS_ADDR_MATCH       Interrupt on address match.
 350:.\Generated_Source\PSoC5/UART_3.c ****     *      UART_3_RX_STS_MRKSPC           Interrupt on address detect.
 351:.\Generated_Source\PSoC5/UART_3.c ****     *
 352:.\Generated_Source\PSoC5/UART_3.c ****     * Return:
 353:.\Generated_Source\PSoC5/UART_3.c ****     *  None.
 354:.\Generated_Source\PSoC5/UART_3.c ****     *
 355:.\Generated_Source\PSoC5/UART_3.c ****     * Theory:
 356:.\Generated_Source\PSoC5/UART_3.c ****     *  Enables the output of specific status bits to the interrupt controller
 357:.\Generated_Source\PSoC5/UART_3.c ****     *
 358:.\Generated_Source\PSoC5/UART_3.c ****     *******************************************************************************/
 359:.\Generated_Source\PSoC5/UART_3.c ****     void UART_3_SetRxInterruptMode(uint8 intSrc) 
 360:.\Generated_Source\PSoC5/UART_3.c ****     {
 361:.\Generated_Source\PSoC5/UART_3.c ****         UART_3_RXSTATUS_MASK_REG  = intSrc;
 362:.\Generated_Source\PSoC5/UART_3.c ****     }
 363:.\Generated_Source\PSoC5/UART_3.c **** 
 364:.\Generated_Source\PSoC5/UART_3.c **** 
ARM GAS  C:\Users\kingi\AppData\Local\Temp\ccQc3vxb.s 			page 13


 365:.\Generated_Source\PSoC5/UART_3.c ****     /*******************************************************************************
 366:.\Generated_Source\PSoC5/UART_3.c ****     * Function Name: UART_3_ReadRxData
 367:.\Generated_Source\PSoC5/UART_3.c ****     ********************************************************************************
 368:.\Generated_Source\PSoC5/UART_3.c ****     *
 369:.\Generated_Source\PSoC5/UART_3.c ****     * Summary:
 370:.\Generated_Source\PSoC5/UART_3.c ****     *  Returns the next byte of received data. This function returns data without
 371:.\Generated_Source\PSoC5/UART_3.c ****     *  checking the status. You must check the status separately.
 372:.\Generated_Source\PSoC5/UART_3.c ****     *
 373:.\Generated_Source\PSoC5/UART_3.c ****     * Parameters:
 374:.\Generated_Source\PSoC5/UART_3.c ****     *  None.
 375:.\Generated_Source\PSoC5/UART_3.c ****     *
 376:.\Generated_Source\PSoC5/UART_3.c ****     * Return:
 377:.\Generated_Source\PSoC5/UART_3.c ****     *  Received data from RX register
 378:.\Generated_Source\PSoC5/UART_3.c ****     *
 379:.\Generated_Source\PSoC5/UART_3.c ****     * Global Variables:
 380:.\Generated_Source\PSoC5/UART_3.c ****     *  UART_3_rxBuffer - RAM buffer pointer for save received data.
 381:.\Generated_Source\PSoC5/UART_3.c ****     *  UART_3_rxBufferWrite - cyclic index for write to rxBuffer,
 382:.\Generated_Source\PSoC5/UART_3.c ****     *     checked to identify new data.
 383:.\Generated_Source\PSoC5/UART_3.c ****     *  UART_3_rxBufferRead - cyclic index for read from rxBuffer,
 384:.\Generated_Source\PSoC5/UART_3.c ****     *     incremented after each byte has been read from buffer.
 385:.\Generated_Source\PSoC5/UART_3.c ****     *  UART_3_rxBufferLoopDetect - cleared if loop condition was detected
 386:.\Generated_Source\PSoC5/UART_3.c ****     *     in RX ISR.
 387:.\Generated_Source\PSoC5/UART_3.c ****     *
 388:.\Generated_Source\PSoC5/UART_3.c ****     * Reentrant:
 389:.\Generated_Source\PSoC5/UART_3.c ****     *  No.
 390:.\Generated_Source\PSoC5/UART_3.c ****     *
 391:.\Generated_Source\PSoC5/UART_3.c ****     *******************************************************************************/
 392:.\Generated_Source\PSoC5/UART_3.c ****     uint8 UART_3_ReadRxData(void) 
 393:.\Generated_Source\PSoC5/UART_3.c ****     {
 394:.\Generated_Source\PSoC5/UART_3.c ****         uint8 rxData;
 395:.\Generated_Source\PSoC5/UART_3.c **** 
 396:.\Generated_Source\PSoC5/UART_3.c ****     #if (UART_3_RX_INTERRUPT_ENABLED)
 397:.\Generated_Source\PSoC5/UART_3.c **** 
 398:.\Generated_Source\PSoC5/UART_3.c ****         uint8 locRxBufferRead;
 399:.\Generated_Source\PSoC5/UART_3.c ****         uint8 locRxBufferWrite;
 400:.\Generated_Source\PSoC5/UART_3.c **** 
 401:.\Generated_Source\PSoC5/UART_3.c ****         /* Protect variables that could change on interrupt */
 402:.\Generated_Source\PSoC5/UART_3.c ****         UART_3_DisableRxInt();
 403:.\Generated_Source\PSoC5/UART_3.c **** 
 404:.\Generated_Source\PSoC5/UART_3.c ****         locRxBufferRead  = UART_3_rxBufferRead;
 405:.\Generated_Source\PSoC5/UART_3.c ****         locRxBufferWrite = UART_3_rxBufferWrite;
 406:.\Generated_Source\PSoC5/UART_3.c **** 
 407:.\Generated_Source\PSoC5/UART_3.c ****         if( (UART_3_rxBufferLoopDetect != 0u) || (locRxBufferRead != locRxBufferWrite) )
 408:.\Generated_Source\PSoC5/UART_3.c ****         {
 409:.\Generated_Source\PSoC5/UART_3.c ****             rxData = UART_3_rxBuffer[locRxBufferRead];
 410:.\Generated_Source\PSoC5/UART_3.c ****             locRxBufferRead++;
 411:.\Generated_Source\PSoC5/UART_3.c **** 
 412:.\Generated_Source\PSoC5/UART_3.c ****             if(locRxBufferRead >= UART_3_RX_BUFFER_SIZE)
 413:.\Generated_Source\PSoC5/UART_3.c ****             {
 414:.\Generated_Source\PSoC5/UART_3.c ****                 locRxBufferRead = 0u;
 415:.\Generated_Source\PSoC5/UART_3.c ****             }
 416:.\Generated_Source\PSoC5/UART_3.c ****             /* Update the real pointer */
 417:.\Generated_Source\PSoC5/UART_3.c ****             UART_3_rxBufferRead = locRxBufferRead;
 418:.\Generated_Source\PSoC5/UART_3.c **** 
 419:.\Generated_Source\PSoC5/UART_3.c ****             if(UART_3_rxBufferLoopDetect != 0u)
 420:.\Generated_Source\PSoC5/UART_3.c ****             {
 421:.\Generated_Source\PSoC5/UART_3.c ****                 UART_3_rxBufferLoopDetect = 0u;
ARM GAS  C:\Users\kingi\AppData\Local\Temp\ccQc3vxb.s 			page 14


 422:.\Generated_Source\PSoC5/UART_3.c ****                 #if ((UART_3_RX_INTERRUPT_ENABLED) && (UART_3_FLOW_CONTROL != 0u))
 423:.\Generated_Source\PSoC5/UART_3.c ****                     /* When Hardware Flow Control selected - return RX mask */
 424:.\Generated_Source\PSoC5/UART_3.c ****                     #if( UART_3_HD_ENABLED )
 425:.\Generated_Source\PSoC5/UART_3.c ****                         if((UART_3_CONTROL_REG & UART_3_CTRL_HD_SEND) == 0u)
 426:.\Generated_Source\PSoC5/UART_3.c ****                         {   /* In Half duplex mode return RX mask only in RX
 427:.\Generated_Source\PSoC5/UART_3.c ****                             *  configuration set, otherwise
 428:.\Generated_Source\PSoC5/UART_3.c ****                             *  mask will be returned in LoadRxConfig() API.
 429:.\Generated_Source\PSoC5/UART_3.c ****                             */
 430:.\Generated_Source\PSoC5/UART_3.c ****                             UART_3_RXSTATUS_MASK_REG  |= UART_3_RX_STS_FIFO_NOTEMPTY;
 431:.\Generated_Source\PSoC5/UART_3.c ****                         }
 432:.\Generated_Source\PSoC5/UART_3.c ****                     #else
 433:.\Generated_Source\PSoC5/UART_3.c ****                         UART_3_RXSTATUS_MASK_REG  |= UART_3_RX_STS_FIFO_NOTEMPTY;
 434:.\Generated_Source\PSoC5/UART_3.c ****                     #endif /* end UART_3_HD_ENABLED */
 435:.\Generated_Source\PSoC5/UART_3.c ****                 #endif /* ((UART_3_RX_INTERRUPT_ENABLED) && (UART_3_FLOW_CONTROL != 0u)) */
 436:.\Generated_Source\PSoC5/UART_3.c ****             }
 437:.\Generated_Source\PSoC5/UART_3.c ****         }
 438:.\Generated_Source\PSoC5/UART_3.c ****         else
 439:.\Generated_Source\PSoC5/UART_3.c ****         {   /* Needs to check status for RX_STS_FIFO_NOTEMPTY bit */
 440:.\Generated_Source\PSoC5/UART_3.c ****             rxData = UART_3_RXDATA_REG;
 441:.\Generated_Source\PSoC5/UART_3.c ****         }
 442:.\Generated_Source\PSoC5/UART_3.c **** 
 443:.\Generated_Source\PSoC5/UART_3.c ****         UART_3_EnableRxInt();
 444:.\Generated_Source\PSoC5/UART_3.c **** 
 445:.\Generated_Source\PSoC5/UART_3.c ****     #else
 446:.\Generated_Source\PSoC5/UART_3.c **** 
 447:.\Generated_Source\PSoC5/UART_3.c ****         /* Needs to check status for RX_STS_FIFO_NOTEMPTY bit */
 448:.\Generated_Source\PSoC5/UART_3.c ****         rxData = UART_3_RXDATA_REG;
 449:.\Generated_Source\PSoC5/UART_3.c **** 
 450:.\Generated_Source\PSoC5/UART_3.c ****     #endif /* (UART_3_RX_INTERRUPT_ENABLED) */
 451:.\Generated_Source\PSoC5/UART_3.c **** 
 452:.\Generated_Source\PSoC5/UART_3.c ****         return(rxData);
 453:.\Generated_Source\PSoC5/UART_3.c ****     }
 454:.\Generated_Source\PSoC5/UART_3.c **** 
 455:.\Generated_Source\PSoC5/UART_3.c **** 
 456:.\Generated_Source\PSoC5/UART_3.c ****     /*******************************************************************************
 457:.\Generated_Source\PSoC5/UART_3.c ****     * Function Name: UART_3_ReadRxStatus
 458:.\Generated_Source\PSoC5/UART_3.c ****     ********************************************************************************
 459:.\Generated_Source\PSoC5/UART_3.c ****     *
 460:.\Generated_Source\PSoC5/UART_3.c ****     * Summary:
 461:.\Generated_Source\PSoC5/UART_3.c ****     *  Returns the current state of the receiver status register and the software
 462:.\Generated_Source\PSoC5/UART_3.c ****     *  buffer overflow status.
 463:.\Generated_Source\PSoC5/UART_3.c ****     *
 464:.\Generated_Source\PSoC5/UART_3.c ****     * Parameters:
 465:.\Generated_Source\PSoC5/UART_3.c ****     *  None.
 466:.\Generated_Source\PSoC5/UART_3.c ****     *
 467:.\Generated_Source\PSoC5/UART_3.c ****     * Return:
 468:.\Generated_Source\PSoC5/UART_3.c ****     *  Current state of the status register.
 469:.\Generated_Source\PSoC5/UART_3.c ****     *
 470:.\Generated_Source\PSoC5/UART_3.c ****     * Side Effect:
 471:.\Generated_Source\PSoC5/UART_3.c ****     *  All status register bits are clear-on-read except
 472:.\Generated_Source\PSoC5/UART_3.c ****     *  UART_3_RX_STS_FIFO_NOTEMPTY.
 473:.\Generated_Source\PSoC5/UART_3.c ****     *  UART_3_RX_STS_FIFO_NOTEMPTY clears immediately after RX data
 474:.\Generated_Source\PSoC5/UART_3.c ****     *  register read.
 475:.\Generated_Source\PSoC5/UART_3.c ****     *
 476:.\Generated_Source\PSoC5/UART_3.c ****     * Global Variables:
 477:.\Generated_Source\PSoC5/UART_3.c ****     *  UART_3_rxBufferOverflow - used to indicate overload condition.
 478:.\Generated_Source\PSoC5/UART_3.c ****     *   It set to one in RX interrupt when there isn't free space in
ARM GAS  C:\Users\kingi\AppData\Local\Temp\ccQc3vxb.s 			page 15


 479:.\Generated_Source\PSoC5/UART_3.c ****     *   UART_3_rxBufferRead to write new data. This condition returned
 480:.\Generated_Source\PSoC5/UART_3.c ****     *   and cleared to zero by this API as an
 481:.\Generated_Source\PSoC5/UART_3.c ****     *   UART_3_RX_STS_SOFT_BUFF_OVER bit along with RX Status register
 482:.\Generated_Source\PSoC5/UART_3.c ****     *   bits.
 483:.\Generated_Source\PSoC5/UART_3.c ****     *
 484:.\Generated_Source\PSoC5/UART_3.c ****     *******************************************************************************/
 485:.\Generated_Source\PSoC5/UART_3.c ****     uint8 UART_3_ReadRxStatus(void) 
 486:.\Generated_Source\PSoC5/UART_3.c ****     {
 487:.\Generated_Source\PSoC5/UART_3.c ****         uint8 status;
 488:.\Generated_Source\PSoC5/UART_3.c **** 
 489:.\Generated_Source\PSoC5/UART_3.c ****         status = UART_3_RXSTATUS_REG & UART_3_RX_HW_MASK;
 490:.\Generated_Source\PSoC5/UART_3.c **** 
 491:.\Generated_Source\PSoC5/UART_3.c ****     #if (UART_3_RX_INTERRUPT_ENABLED)
 492:.\Generated_Source\PSoC5/UART_3.c ****         if(UART_3_rxBufferOverflow != 0u)
 493:.\Generated_Source\PSoC5/UART_3.c ****         {
 494:.\Generated_Source\PSoC5/UART_3.c ****             status |= UART_3_RX_STS_SOFT_BUFF_OVER;
 495:.\Generated_Source\PSoC5/UART_3.c ****             UART_3_rxBufferOverflow = 0u;
 496:.\Generated_Source\PSoC5/UART_3.c ****         }
 497:.\Generated_Source\PSoC5/UART_3.c ****     #endif /* (UART_3_RX_INTERRUPT_ENABLED) */
 498:.\Generated_Source\PSoC5/UART_3.c **** 
 499:.\Generated_Source\PSoC5/UART_3.c ****         return(status);
 500:.\Generated_Source\PSoC5/UART_3.c ****     }
 501:.\Generated_Source\PSoC5/UART_3.c **** 
 502:.\Generated_Source\PSoC5/UART_3.c **** 
 503:.\Generated_Source\PSoC5/UART_3.c ****     /*******************************************************************************
 504:.\Generated_Source\PSoC5/UART_3.c ****     * Function Name: UART_3_GetChar
 505:.\Generated_Source\PSoC5/UART_3.c ****     ********************************************************************************
 506:.\Generated_Source\PSoC5/UART_3.c ****     *
 507:.\Generated_Source\PSoC5/UART_3.c ****     * Summary:
 508:.\Generated_Source\PSoC5/UART_3.c ****     *  Returns the last received byte of data. UART_3_GetChar() is
 509:.\Generated_Source\PSoC5/UART_3.c ****     *  designed for ASCII characters and returns a uint8 where 1 to 255 are values
 510:.\Generated_Source\PSoC5/UART_3.c ****     *  for valid characters and 0 indicates an error occurred or no data is present.
 511:.\Generated_Source\PSoC5/UART_3.c ****     *
 512:.\Generated_Source\PSoC5/UART_3.c ****     * Parameters:
 513:.\Generated_Source\PSoC5/UART_3.c ****     *  None.
 514:.\Generated_Source\PSoC5/UART_3.c ****     *
 515:.\Generated_Source\PSoC5/UART_3.c ****     * Return:
 516:.\Generated_Source\PSoC5/UART_3.c ****     *  Character read from UART RX buffer. ASCII characters from 1 to 255 are valid.
 517:.\Generated_Source\PSoC5/UART_3.c ****     *  A returned zero signifies an error condition or no data available.
 518:.\Generated_Source\PSoC5/UART_3.c ****     *
 519:.\Generated_Source\PSoC5/UART_3.c ****     * Global Variables:
 520:.\Generated_Source\PSoC5/UART_3.c ****     *  UART_3_rxBuffer - RAM buffer pointer for save received data.
 521:.\Generated_Source\PSoC5/UART_3.c ****     *  UART_3_rxBufferWrite - cyclic index for write to rxBuffer,
 522:.\Generated_Source\PSoC5/UART_3.c ****     *     checked to identify new data.
 523:.\Generated_Source\PSoC5/UART_3.c ****     *  UART_3_rxBufferRead - cyclic index for read from rxBuffer,
 524:.\Generated_Source\PSoC5/UART_3.c ****     *     incremented after each byte has been read from buffer.
 525:.\Generated_Source\PSoC5/UART_3.c ****     *  UART_3_rxBufferLoopDetect - cleared if loop condition was detected
 526:.\Generated_Source\PSoC5/UART_3.c ****     *     in RX ISR.
 527:.\Generated_Source\PSoC5/UART_3.c ****     *
 528:.\Generated_Source\PSoC5/UART_3.c ****     * Reentrant:
 529:.\Generated_Source\PSoC5/UART_3.c ****     *  No.
 530:.\Generated_Source\PSoC5/UART_3.c ****     *
 531:.\Generated_Source\PSoC5/UART_3.c ****     *******************************************************************************/
 532:.\Generated_Source\PSoC5/UART_3.c ****     uint8 UART_3_GetChar(void) 
 533:.\Generated_Source\PSoC5/UART_3.c ****     {
 534:.\Generated_Source\PSoC5/UART_3.c ****         uint8 rxData = 0u;
 535:.\Generated_Source\PSoC5/UART_3.c ****         uint8 rxStatus;
ARM GAS  C:\Users\kingi\AppData\Local\Temp\ccQc3vxb.s 			page 16


 536:.\Generated_Source\PSoC5/UART_3.c **** 
 537:.\Generated_Source\PSoC5/UART_3.c ****     #if (UART_3_RX_INTERRUPT_ENABLED)
 538:.\Generated_Source\PSoC5/UART_3.c ****         uint8 locRxBufferRead;
 539:.\Generated_Source\PSoC5/UART_3.c ****         uint8 locRxBufferWrite;
 540:.\Generated_Source\PSoC5/UART_3.c **** 
 541:.\Generated_Source\PSoC5/UART_3.c ****         /* Protect variables that could change on interrupt */
 542:.\Generated_Source\PSoC5/UART_3.c ****         UART_3_DisableRxInt();
 543:.\Generated_Source\PSoC5/UART_3.c **** 
 544:.\Generated_Source\PSoC5/UART_3.c ****         locRxBufferRead  = UART_3_rxBufferRead;
 545:.\Generated_Source\PSoC5/UART_3.c ****         locRxBufferWrite = UART_3_rxBufferWrite;
 546:.\Generated_Source\PSoC5/UART_3.c **** 
 547:.\Generated_Source\PSoC5/UART_3.c ****         if( (UART_3_rxBufferLoopDetect != 0u) || (locRxBufferRead != locRxBufferWrite) )
 548:.\Generated_Source\PSoC5/UART_3.c ****         {
 549:.\Generated_Source\PSoC5/UART_3.c ****             rxData = UART_3_rxBuffer[locRxBufferRead];
 550:.\Generated_Source\PSoC5/UART_3.c ****             locRxBufferRead++;
 551:.\Generated_Source\PSoC5/UART_3.c ****             if(locRxBufferRead >= UART_3_RX_BUFFER_SIZE)
 552:.\Generated_Source\PSoC5/UART_3.c ****             {
 553:.\Generated_Source\PSoC5/UART_3.c ****                 locRxBufferRead = 0u;
 554:.\Generated_Source\PSoC5/UART_3.c ****             }
 555:.\Generated_Source\PSoC5/UART_3.c ****             /* Update the real pointer */
 556:.\Generated_Source\PSoC5/UART_3.c ****             UART_3_rxBufferRead = locRxBufferRead;
 557:.\Generated_Source\PSoC5/UART_3.c **** 
 558:.\Generated_Source\PSoC5/UART_3.c ****             if(UART_3_rxBufferLoopDetect != 0u)
 559:.\Generated_Source\PSoC5/UART_3.c ****             {
 560:.\Generated_Source\PSoC5/UART_3.c ****                 UART_3_rxBufferLoopDetect = 0u;
 561:.\Generated_Source\PSoC5/UART_3.c ****                 #if( (UART_3_RX_INTERRUPT_ENABLED) && (UART_3_FLOW_CONTROL != 0u) )
 562:.\Generated_Source\PSoC5/UART_3.c ****                     /* When Hardware Flow Control selected - return RX mask */
 563:.\Generated_Source\PSoC5/UART_3.c ****                     #if( UART_3_HD_ENABLED )
 564:.\Generated_Source\PSoC5/UART_3.c ****                         if((UART_3_CONTROL_REG & UART_3_CTRL_HD_SEND) == 0u)
 565:.\Generated_Source\PSoC5/UART_3.c ****                         {   /* In Half duplex mode return RX mask only if
 566:.\Generated_Source\PSoC5/UART_3.c ****                             *  RX configuration set, otherwise
 567:.\Generated_Source\PSoC5/UART_3.c ****                             *  mask will be returned in LoadRxConfig() API.
 568:.\Generated_Source\PSoC5/UART_3.c ****                             */
 569:.\Generated_Source\PSoC5/UART_3.c ****                             UART_3_RXSTATUS_MASK_REG |= UART_3_RX_STS_FIFO_NOTEMPTY;
 570:.\Generated_Source\PSoC5/UART_3.c ****                         }
 571:.\Generated_Source\PSoC5/UART_3.c ****                     #else
 572:.\Generated_Source\PSoC5/UART_3.c ****                         UART_3_RXSTATUS_MASK_REG |= UART_3_RX_STS_FIFO_NOTEMPTY;
 573:.\Generated_Source\PSoC5/UART_3.c ****                     #endif /* end UART_3_HD_ENABLED */
 574:.\Generated_Source\PSoC5/UART_3.c ****                 #endif /* UART_3_RX_INTERRUPT_ENABLED and Hardware flow control*/
 575:.\Generated_Source\PSoC5/UART_3.c ****             }
 576:.\Generated_Source\PSoC5/UART_3.c **** 
 577:.\Generated_Source\PSoC5/UART_3.c ****         }
 578:.\Generated_Source\PSoC5/UART_3.c ****         else
 579:.\Generated_Source\PSoC5/UART_3.c ****         {   rxStatus = UART_3_RXSTATUS_REG;
 580:.\Generated_Source\PSoC5/UART_3.c ****             if((rxStatus & UART_3_RX_STS_FIFO_NOTEMPTY) != 0u)
 581:.\Generated_Source\PSoC5/UART_3.c ****             {   /* Read received data from FIFO */
 582:.\Generated_Source\PSoC5/UART_3.c ****                 rxData = UART_3_RXDATA_REG;
 583:.\Generated_Source\PSoC5/UART_3.c ****                 /*Check status on error*/
 584:.\Generated_Source\PSoC5/UART_3.c ****                 if((rxStatus & (UART_3_RX_STS_BREAK | UART_3_RX_STS_PAR_ERROR |
 585:.\Generated_Source\PSoC5/UART_3.c ****                                 UART_3_RX_STS_STOP_ERROR | UART_3_RX_STS_OVERRUN)) != 0u)
 586:.\Generated_Source\PSoC5/UART_3.c ****                 {
 587:.\Generated_Source\PSoC5/UART_3.c ****                     rxData = 0u;
 588:.\Generated_Source\PSoC5/UART_3.c ****                 }
 589:.\Generated_Source\PSoC5/UART_3.c ****             }
 590:.\Generated_Source\PSoC5/UART_3.c ****         }
 591:.\Generated_Source\PSoC5/UART_3.c **** 
 592:.\Generated_Source\PSoC5/UART_3.c ****         UART_3_EnableRxInt();
ARM GAS  C:\Users\kingi\AppData\Local\Temp\ccQc3vxb.s 			page 17


 593:.\Generated_Source\PSoC5/UART_3.c **** 
 594:.\Generated_Source\PSoC5/UART_3.c ****     #else
 595:.\Generated_Source\PSoC5/UART_3.c **** 
 596:.\Generated_Source\PSoC5/UART_3.c ****         rxStatus =UART_3_RXSTATUS_REG;
 597:.\Generated_Source\PSoC5/UART_3.c ****         if((rxStatus & UART_3_RX_STS_FIFO_NOTEMPTY) != 0u)
 598:.\Generated_Source\PSoC5/UART_3.c ****         {
 599:.\Generated_Source\PSoC5/UART_3.c ****             /* Read received data from FIFO */
 600:.\Generated_Source\PSoC5/UART_3.c ****             rxData = UART_3_RXDATA_REG;
 601:.\Generated_Source\PSoC5/UART_3.c **** 
 602:.\Generated_Source\PSoC5/UART_3.c ****             /*Check status on error*/
 603:.\Generated_Source\PSoC5/UART_3.c ****             if((rxStatus & (UART_3_RX_STS_BREAK | UART_3_RX_STS_PAR_ERROR |
 604:.\Generated_Source\PSoC5/UART_3.c ****                             UART_3_RX_STS_STOP_ERROR | UART_3_RX_STS_OVERRUN)) != 0u)
 605:.\Generated_Source\PSoC5/UART_3.c ****             {
 606:.\Generated_Source\PSoC5/UART_3.c ****                 rxData = 0u;
 607:.\Generated_Source\PSoC5/UART_3.c ****             }
 608:.\Generated_Source\PSoC5/UART_3.c ****         }
 609:.\Generated_Source\PSoC5/UART_3.c ****     #endif /* (UART_3_RX_INTERRUPT_ENABLED) */
 610:.\Generated_Source\PSoC5/UART_3.c **** 
 611:.\Generated_Source\PSoC5/UART_3.c ****         return(rxData);
 612:.\Generated_Source\PSoC5/UART_3.c ****     }
 613:.\Generated_Source\PSoC5/UART_3.c **** 
 614:.\Generated_Source\PSoC5/UART_3.c **** 
 615:.\Generated_Source\PSoC5/UART_3.c ****     /*******************************************************************************
 616:.\Generated_Source\PSoC5/UART_3.c ****     * Function Name: UART_3_GetByte
 617:.\Generated_Source\PSoC5/UART_3.c ****     ********************************************************************************
 618:.\Generated_Source\PSoC5/UART_3.c ****     *
 619:.\Generated_Source\PSoC5/UART_3.c ****     * Summary:
 620:.\Generated_Source\PSoC5/UART_3.c ****     *  Reads UART RX buffer immediately, returns received character and error
 621:.\Generated_Source\PSoC5/UART_3.c ****     *  condition.
 622:.\Generated_Source\PSoC5/UART_3.c ****     *
 623:.\Generated_Source\PSoC5/UART_3.c ****     * Parameters:
 624:.\Generated_Source\PSoC5/UART_3.c ****     *  None.
 625:.\Generated_Source\PSoC5/UART_3.c ****     *
 626:.\Generated_Source\PSoC5/UART_3.c ****     * Return:
 627:.\Generated_Source\PSoC5/UART_3.c ****     *  MSB contains status and LSB contains UART RX data. If the MSB is nonzero,
 628:.\Generated_Source\PSoC5/UART_3.c ****     *  an error has occurred.
 629:.\Generated_Source\PSoC5/UART_3.c ****     *
 630:.\Generated_Source\PSoC5/UART_3.c ****     * Reentrant:
 631:.\Generated_Source\PSoC5/UART_3.c ****     *  No.
 632:.\Generated_Source\PSoC5/UART_3.c ****     *
 633:.\Generated_Source\PSoC5/UART_3.c ****     *******************************************************************************/
 634:.\Generated_Source\PSoC5/UART_3.c ****     uint16 UART_3_GetByte(void) 
 635:.\Generated_Source\PSoC5/UART_3.c ****     {
 636:.\Generated_Source\PSoC5/UART_3.c ****         
 637:.\Generated_Source\PSoC5/UART_3.c ****     #if (UART_3_RX_INTERRUPT_ENABLED)
 638:.\Generated_Source\PSoC5/UART_3.c ****         uint16 locErrorStatus;
 639:.\Generated_Source\PSoC5/UART_3.c ****         /* Protect variables that could change on interrupt */
 640:.\Generated_Source\PSoC5/UART_3.c ****         UART_3_DisableRxInt();
 641:.\Generated_Source\PSoC5/UART_3.c ****         locErrorStatus = (uint16)UART_3_errorStatus;
 642:.\Generated_Source\PSoC5/UART_3.c ****         UART_3_errorStatus = 0u;
 643:.\Generated_Source\PSoC5/UART_3.c ****         UART_3_EnableRxInt();
 644:.\Generated_Source\PSoC5/UART_3.c ****         return ( (uint16)(locErrorStatus << 8u) | UART_3_ReadRxData() );
 645:.\Generated_Source\PSoC5/UART_3.c ****     #else
 646:.\Generated_Source\PSoC5/UART_3.c ****         return ( ((uint16)UART_3_ReadRxStatus() << 8u) | UART_3_ReadRxData() );
 647:.\Generated_Source\PSoC5/UART_3.c ****     #endif /* UART_3_RX_INTERRUPT_ENABLED */
 648:.\Generated_Source\PSoC5/UART_3.c ****         
 649:.\Generated_Source\PSoC5/UART_3.c ****     }
ARM GAS  C:\Users\kingi\AppData\Local\Temp\ccQc3vxb.s 			page 18


 650:.\Generated_Source\PSoC5/UART_3.c **** 
 651:.\Generated_Source\PSoC5/UART_3.c **** 
 652:.\Generated_Source\PSoC5/UART_3.c ****     /*******************************************************************************
 653:.\Generated_Source\PSoC5/UART_3.c ****     * Function Name: UART_3_GetRxBufferSize
 654:.\Generated_Source\PSoC5/UART_3.c ****     ********************************************************************************
 655:.\Generated_Source\PSoC5/UART_3.c ****     *
 656:.\Generated_Source\PSoC5/UART_3.c ****     * Summary:
 657:.\Generated_Source\PSoC5/UART_3.c ****     *  Returns the number of received bytes available in the RX buffer.
 658:.\Generated_Source\PSoC5/UART_3.c ****     *  * RX software buffer is disabled (RX Buffer Size parameter is equal to 4): 
 659:.\Generated_Source\PSoC5/UART_3.c ****     *    returns 0 for empty RX FIFO or 1 for not empty RX FIFO.
 660:.\Generated_Source\PSoC5/UART_3.c ****     *  * RX software buffer is enabled: returns the number of bytes available in 
 661:.\Generated_Source\PSoC5/UART_3.c ****     *    the RX software buffer. Bytes available in the RX FIFO do not take to 
 662:.\Generated_Source\PSoC5/UART_3.c ****     *    account.
 663:.\Generated_Source\PSoC5/UART_3.c ****     *
 664:.\Generated_Source\PSoC5/UART_3.c ****     * Parameters:
 665:.\Generated_Source\PSoC5/UART_3.c ****     *  None.
 666:.\Generated_Source\PSoC5/UART_3.c ****     *
 667:.\Generated_Source\PSoC5/UART_3.c ****     * Return:
 668:.\Generated_Source\PSoC5/UART_3.c ****     *  uint8: Number of bytes in the RX buffer. 
 669:.\Generated_Source\PSoC5/UART_3.c ****     *    Return value type depends on RX Buffer Size parameter.
 670:.\Generated_Source\PSoC5/UART_3.c ****     *
 671:.\Generated_Source\PSoC5/UART_3.c ****     * Global Variables:
 672:.\Generated_Source\PSoC5/UART_3.c ****     *  UART_3_rxBufferWrite - used to calculate left bytes.
 673:.\Generated_Source\PSoC5/UART_3.c ****     *  UART_3_rxBufferRead - used to calculate left bytes.
 674:.\Generated_Source\PSoC5/UART_3.c ****     *  UART_3_rxBufferLoopDetect - checked to decide left bytes amount.
 675:.\Generated_Source\PSoC5/UART_3.c ****     *
 676:.\Generated_Source\PSoC5/UART_3.c ****     * Reentrant:
 677:.\Generated_Source\PSoC5/UART_3.c ****     *  No.
 678:.\Generated_Source\PSoC5/UART_3.c ****     *
 679:.\Generated_Source\PSoC5/UART_3.c ****     * Theory:
 680:.\Generated_Source\PSoC5/UART_3.c ****     *  Allows the user to find out how full the RX Buffer is.
 681:.\Generated_Source\PSoC5/UART_3.c ****     *
 682:.\Generated_Source\PSoC5/UART_3.c ****     *******************************************************************************/
 683:.\Generated_Source\PSoC5/UART_3.c ****     uint8 UART_3_GetRxBufferSize(void)
 684:.\Generated_Source\PSoC5/UART_3.c ****                                                             
 685:.\Generated_Source\PSoC5/UART_3.c ****     {
 686:.\Generated_Source\PSoC5/UART_3.c ****         uint8 size;
 687:.\Generated_Source\PSoC5/UART_3.c **** 
 688:.\Generated_Source\PSoC5/UART_3.c ****     #if (UART_3_RX_INTERRUPT_ENABLED)
 689:.\Generated_Source\PSoC5/UART_3.c **** 
 690:.\Generated_Source\PSoC5/UART_3.c ****         /* Protect variables that could change on interrupt */
 691:.\Generated_Source\PSoC5/UART_3.c ****         UART_3_DisableRxInt();
 692:.\Generated_Source\PSoC5/UART_3.c **** 
 693:.\Generated_Source\PSoC5/UART_3.c ****         if(UART_3_rxBufferRead == UART_3_rxBufferWrite)
 694:.\Generated_Source\PSoC5/UART_3.c ****         {
 695:.\Generated_Source\PSoC5/UART_3.c ****             if(UART_3_rxBufferLoopDetect != 0u)
 696:.\Generated_Source\PSoC5/UART_3.c ****             {
 697:.\Generated_Source\PSoC5/UART_3.c ****                 size = UART_3_RX_BUFFER_SIZE;
 698:.\Generated_Source\PSoC5/UART_3.c ****             }
 699:.\Generated_Source\PSoC5/UART_3.c ****             else
 700:.\Generated_Source\PSoC5/UART_3.c ****             {
 701:.\Generated_Source\PSoC5/UART_3.c ****                 size = 0u;
 702:.\Generated_Source\PSoC5/UART_3.c ****             }
 703:.\Generated_Source\PSoC5/UART_3.c ****         }
 704:.\Generated_Source\PSoC5/UART_3.c ****         else if(UART_3_rxBufferRead < UART_3_rxBufferWrite)
 705:.\Generated_Source\PSoC5/UART_3.c ****         {
 706:.\Generated_Source\PSoC5/UART_3.c ****             size = (UART_3_rxBufferWrite - UART_3_rxBufferRead);
ARM GAS  C:\Users\kingi\AppData\Local\Temp\ccQc3vxb.s 			page 19


 707:.\Generated_Source\PSoC5/UART_3.c ****         }
 708:.\Generated_Source\PSoC5/UART_3.c ****         else
 709:.\Generated_Source\PSoC5/UART_3.c ****         {
 710:.\Generated_Source\PSoC5/UART_3.c ****             size = (UART_3_RX_BUFFER_SIZE - UART_3_rxBufferRead) + UART_3_rxBufferWrite;
 711:.\Generated_Source\PSoC5/UART_3.c ****         }
 712:.\Generated_Source\PSoC5/UART_3.c **** 
 713:.\Generated_Source\PSoC5/UART_3.c ****         UART_3_EnableRxInt();
 714:.\Generated_Source\PSoC5/UART_3.c **** 
 715:.\Generated_Source\PSoC5/UART_3.c ****     #else
 716:.\Generated_Source\PSoC5/UART_3.c **** 
 717:.\Generated_Source\PSoC5/UART_3.c ****         /* We can only know if there is data in the fifo. */
 718:.\Generated_Source\PSoC5/UART_3.c ****         size = ((UART_3_RXSTATUS_REG & UART_3_RX_STS_FIFO_NOTEMPTY) != 0u) ? 1u : 0u;
 719:.\Generated_Source\PSoC5/UART_3.c **** 
 720:.\Generated_Source\PSoC5/UART_3.c ****     #endif /* (UART_3_RX_INTERRUPT_ENABLED) */
 721:.\Generated_Source\PSoC5/UART_3.c **** 
 722:.\Generated_Source\PSoC5/UART_3.c ****         return(size);
 723:.\Generated_Source\PSoC5/UART_3.c ****     }
 724:.\Generated_Source\PSoC5/UART_3.c **** 
 725:.\Generated_Source\PSoC5/UART_3.c **** 
 726:.\Generated_Source\PSoC5/UART_3.c ****     /*******************************************************************************
 727:.\Generated_Source\PSoC5/UART_3.c ****     * Function Name: UART_3_ClearRxBuffer
 728:.\Generated_Source\PSoC5/UART_3.c ****     ********************************************************************************
 729:.\Generated_Source\PSoC5/UART_3.c ****     *
 730:.\Generated_Source\PSoC5/UART_3.c ****     * Summary:
 731:.\Generated_Source\PSoC5/UART_3.c ****     *  Clears the receiver memory buffer and hardware RX FIFO of all received data.
 732:.\Generated_Source\PSoC5/UART_3.c ****     *
 733:.\Generated_Source\PSoC5/UART_3.c ****     * Parameters:
 734:.\Generated_Source\PSoC5/UART_3.c ****     *  None.
 735:.\Generated_Source\PSoC5/UART_3.c ****     *
 736:.\Generated_Source\PSoC5/UART_3.c ****     * Return:
 737:.\Generated_Source\PSoC5/UART_3.c ****     *  None.
 738:.\Generated_Source\PSoC5/UART_3.c ****     *
 739:.\Generated_Source\PSoC5/UART_3.c ****     * Global Variables:
 740:.\Generated_Source\PSoC5/UART_3.c ****     *  UART_3_rxBufferWrite - cleared to zero.
 741:.\Generated_Source\PSoC5/UART_3.c ****     *  UART_3_rxBufferRead - cleared to zero.
 742:.\Generated_Source\PSoC5/UART_3.c ****     *  UART_3_rxBufferLoopDetect - cleared to zero.
 743:.\Generated_Source\PSoC5/UART_3.c ****     *  UART_3_rxBufferOverflow - cleared to zero.
 744:.\Generated_Source\PSoC5/UART_3.c ****     *
 745:.\Generated_Source\PSoC5/UART_3.c ****     * Reentrant:
 746:.\Generated_Source\PSoC5/UART_3.c ****     *  No.
 747:.\Generated_Source\PSoC5/UART_3.c ****     *
 748:.\Generated_Source\PSoC5/UART_3.c ****     * Theory:
 749:.\Generated_Source\PSoC5/UART_3.c ****     *  Setting the pointers to zero makes the system believe there is no data to
 750:.\Generated_Source\PSoC5/UART_3.c ****     *  read and writing will resume at address 0 overwriting any data that may
 751:.\Generated_Source\PSoC5/UART_3.c ****     *  have remained in the RAM.
 752:.\Generated_Source\PSoC5/UART_3.c ****     *
 753:.\Generated_Source\PSoC5/UART_3.c ****     * Side Effects:
 754:.\Generated_Source\PSoC5/UART_3.c ****     *  Any received data not read from the RAM or FIFO buffer will be lost.
 755:.\Generated_Source\PSoC5/UART_3.c ****     *
 756:.\Generated_Source\PSoC5/UART_3.c ****     *******************************************************************************/
 757:.\Generated_Source\PSoC5/UART_3.c ****     void UART_3_ClearRxBuffer(void) 
 758:.\Generated_Source\PSoC5/UART_3.c ****     {
 759:.\Generated_Source\PSoC5/UART_3.c ****         uint8 enableInterrupts;
 760:.\Generated_Source\PSoC5/UART_3.c **** 
 761:.\Generated_Source\PSoC5/UART_3.c ****         /* Clear the HW FIFO */
 762:.\Generated_Source\PSoC5/UART_3.c ****         enableInterrupts = CyEnterCriticalSection();
 763:.\Generated_Source\PSoC5/UART_3.c ****         UART_3_RXDATA_AUX_CTL_REG |= (uint8)  UART_3_RX_FIFO_CLR;
ARM GAS  C:\Users\kingi\AppData\Local\Temp\ccQc3vxb.s 			page 20


 764:.\Generated_Source\PSoC5/UART_3.c ****         UART_3_RXDATA_AUX_CTL_REG &= (uint8) ~UART_3_RX_FIFO_CLR;
 765:.\Generated_Source\PSoC5/UART_3.c ****         CyExitCriticalSection(enableInterrupts);
 766:.\Generated_Source\PSoC5/UART_3.c **** 
 767:.\Generated_Source\PSoC5/UART_3.c ****     #if (UART_3_RX_INTERRUPT_ENABLED)
 768:.\Generated_Source\PSoC5/UART_3.c **** 
 769:.\Generated_Source\PSoC5/UART_3.c ****         /* Protect variables that could change on interrupt. */
 770:.\Generated_Source\PSoC5/UART_3.c ****         UART_3_DisableRxInt();
 771:.\Generated_Source\PSoC5/UART_3.c **** 
 772:.\Generated_Source\PSoC5/UART_3.c ****         UART_3_rxBufferRead = 0u;
 773:.\Generated_Source\PSoC5/UART_3.c ****         UART_3_rxBufferWrite = 0u;
 774:.\Generated_Source\PSoC5/UART_3.c ****         UART_3_rxBufferLoopDetect = 0u;
 775:.\Generated_Source\PSoC5/UART_3.c ****         UART_3_rxBufferOverflow = 0u;
 776:.\Generated_Source\PSoC5/UART_3.c **** 
 777:.\Generated_Source\PSoC5/UART_3.c ****         UART_3_EnableRxInt();
 778:.\Generated_Source\PSoC5/UART_3.c **** 
 779:.\Generated_Source\PSoC5/UART_3.c ****     #endif /* (UART_3_RX_INTERRUPT_ENABLED) */
 780:.\Generated_Source\PSoC5/UART_3.c **** 
 781:.\Generated_Source\PSoC5/UART_3.c ****     }
 782:.\Generated_Source\PSoC5/UART_3.c **** 
 783:.\Generated_Source\PSoC5/UART_3.c **** 
 784:.\Generated_Source\PSoC5/UART_3.c ****     /*******************************************************************************
 785:.\Generated_Source\PSoC5/UART_3.c ****     * Function Name: UART_3_SetRxAddressMode
 786:.\Generated_Source\PSoC5/UART_3.c ****     ********************************************************************************
 787:.\Generated_Source\PSoC5/UART_3.c ****     *
 788:.\Generated_Source\PSoC5/UART_3.c ****     * Summary:
 789:.\Generated_Source\PSoC5/UART_3.c ****     *  Sets the software controlled Addressing mode used by the RX portion of the
 790:.\Generated_Source\PSoC5/UART_3.c ****     *  UART.
 791:.\Generated_Source\PSoC5/UART_3.c ****     *
 792:.\Generated_Source\PSoC5/UART_3.c ****     * Parameters:
 793:.\Generated_Source\PSoC5/UART_3.c ****     *  addressMode: Enumerated value indicating the mode of RX addressing
 794:.\Generated_Source\PSoC5/UART_3.c ****     *  UART_3__B_UART__AM_SW_BYTE_BYTE -  Software Byte-by-Byte address
 795:.\Generated_Source\PSoC5/UART_3.c ****     *                                               detection
 796:.\Generated_Source\PSoC5/UART_3.c ****     *  UART_3__B_UART__AM_SW_DETECT_TO_BUFFER - Software Detect to Buffer
 797:.\Generated_Source\PSoC5/UART_3.c ****     *                                               address detection
 798:.\Generated_Source\PSoC5/UART_3.c ****     *  UART_3__B_UART__AM_HW_BYTE_BY_BYTE - Hardware Byte-by-Byte address
 799:.\Generated_Source\PSoC5/UART_3.c ****     *                                               detection
 800:.\Generated_Source\PSoC5/UART_3.c ****     *  UART_3__B_UART__AM_HW_DETECT_TO_BUFFER - Hardware Detect to Buffer
 801:.\Generated_Source\PSoC5/UART_3.c ****     *                                               address detection
 802:.\Generated_Source\PSoC5/UART_3.c ****     *  UART_3__B_UART__AM_NONE - No address detection
 803:.\Generated_Source\PSoC5/UART_3.c ****     *
 804:.\Generated_Source\PSoC5/UART_3.c ****     * Return:
 805:.\Generated_Source\PSoC5/UART_3.c ****     *  None.
 806:.\Generated_Source\PSoC5/UART_3.c ****     *
 807:.\Generated_Source\PSoC5/UART_3.c ****     * Global Variables:
 808:.\Generated_Source\PSoC5/UART_3.c ****     *  UART_3_rxAddressMode - the parameter stored in this variable for
 809:.\Generated_Source\PSoC5/UART_3.c ****     *   the farther usage in RX ISR.
 810:.\Generated_Source\PSoC5/UART_3.c ****     *  UART_3_rxAddressDetected - set to initial state (0).
 811:.\Generated_Source\PSoC5/UART_3.c ****     *
 812:.\Generated_Source\PSoC5/UART_3.c ****     *******************************************************************************/
 813:.\Generated_Source\PSoC5/UART_3.c ****     void UART_3_SetRxAddressMode(uint8 addressMode)
 814:.\Generated_Source\PSoC5/UART_3.c ****                                                         
 815:.\Generated_Source\PSoC5/UART_3.c ****     {
 816:.\Generated_Source\PSoC5/UART_3.c ****         #if(UART_3_RXHW_ADDRESS_ENABLED)
 817:.\Generated_Source\PSoC5/UART_3.c ****             #if(UART_3_CONTROL_REG_REMOVED)
 818:.\Generated_Source\PSoC5/UART_3.c ****                 if(0u != addressMode)
 819:.\Generated_Source\PSoC5/UART_3.c ****                 {
 820:.\Generated_Source\PSoC5/UART_3.c ****                     /* Suppress compiler warning */
ARM GAS  C:\Users\kingi\AppData\Local\Temp\ccQc3vxb.s 			page 21


 821:.\Generated_Source\PSoC5/UART_3.c ****                 }
 822:.\Generated_Source\PSoC5/UART_3.c ****             #else /* UART_3_CONTROL_REG_REMOVED */
 823:.\Generated_Source\PSoC5/UART_3.c ****                 uint8 tmpCtrl;
 824:.\Generated_Source\PSoC5/UART_3.c ****                 tmpCtrl = UART_3_CONTROL_REG & (uint8)~UART_3_CTRL_RXADDR_MODE_MASK;
 825:.\Generated_Source\PSoC5/UART_3.c ****                 tmpCtrl |= (uint8)(addressMode << UART_3_CTRL_RXADDR_MODE0_SHIFT);
 826:.\Generated_Source\PSoC5/UART_3.c ****                 UART_3_CONTROL_REG = tmpCtrl;
 827:.\Generated_Source\PSoC5/UART_3.c **** 
 828:.\Generated_Source\PSoC5/UART_3.c ****                 #if(UART_3_RX_INTERRUPT_ENABLED && \
 829:.\Generated_Source\PSoC5/UART_3.c ****                    (UART_3_RXBUFFERSIZE > UART_3_FIFO_LENGTH) )
 830:.\Generated_Source\PSoC5/UART_3.c ****                     UART_3_rxAddressMode = addressMode;
 831:.\Generated_Source\PSoC5/UART_3.c ****                     UART_3_rxAddressDetected = 0u;
 832:.\Generated_Source\PSoC5/UART_3.c ****                 #endif /* End UART_3_RXBUFFERSIZE > UART_3_FIFO_LENGTH*/
 833:.\Generated_Source\PSoC5/UART_3.c ****             #endif /* End UART_3_CONTROL_REG_REMOVED */
 834:.\Generated_Source\PSoC5/UART_3.c ****         #else /* UART_3_RXHW_ADDRESS_ENABLED */
 835:.\Generated_Source\PSoC5/UART_3.c ****             if(0u != addressMode)
 836:.\Generated_Source\PSoC5/UART_3.c ****             {
 837:.\Generated_Source\PSoC5/UART_3.c ****                 /* Suppress compiler warning */
 838:.\Generated_Source\PSoC5/UART_3.c ****             }
 839:.\Generated_Source\PSoC5/UART_3.c ****         #endif /* End UART_3_RXHW_ADDRESS_ENABLED */
 840:.\Generated_Source\PSoC5/UART_3.c ****     }
 841:.\Generated_Source\PSoC5/UART_3.c **** 
 842:.\Generated_Source\PSoC5/UART_3.c **** 
 843:.\Generated_Source\PSoC5/UART_3.c ****     /*******************************************************************************
 844:.\Generated_Source\PSoC5/UART_3.c ****     * Function Name: UART_3_SetRxAddress1
 845:.\Generated_Source\PSoC5/UART_3.c ****     ********************************************************************************
 846:.\Generated_Source\PSoC5/UART_3.c ****     *
 847:.\Generated_Source\PSoC5/UART_3.c ****     * Summary:
 848:.\Generated_Source\PSoC5/UART_3.c ****     *  Sets the first of two hardware-detectable receiver addresses.
 849:.\Generated_Source\PSoC5/UART_3.c ****     *
 850:.\Generated_Source\PSoC5/UART_3.c ****     * Parameters:
 851:.\Generated_Source\PSoC5/UART_3.c ****     *  address: Address #1 for hardware address detection.
 852:.\Generated_Source\PSoC5/UART_3.c ****     *
 853:.\Generated_Source\PSoC5/UART_3.c ****     * Return:
 854:.\Generated_Source\PSoC5/UART_3.c ****     *  None.
 855:.\Generated_Source\PSoC5/UART_3.c ****     *
 856:.\Generated_Source\PSoC5/UART_3.c ****     *******************************************************************************/
 857:.\Generated_Source\PSoC5/UART_3.c ****     void UART_3_SetRxAddress1(uint8 address) 
 858:.\Generated_Source\PSoC5/UART_3.c ****     {
 859:.\Generated_Source\PSoC5/UART_3.c ****         UART_3_RXADDRESS1_REG = address;
 860:.\Generated_Source\PSoC5/UART_3.c ****     }
 861:.\Generated_Source\PSoC5/UART_3.c **** 
 862:.\Generated_Source\PSoC5/UART_3.c **** 
 863:.\Generated_Source\PSoC5/UART_3.c ****     /*******************************************************************************
 864:.\Generated_Source\PSoC5/UART_3.c ****     * Function Name: UART_3_SetRxAddress2
 865:.\Generated_Source\PSoC5/UART_3.c ****     ********************************************************************************
 866:.\Generated_Source\PSoC5/UART_3.c ****     *
 867:.\Generated_Source\PSoC5/UART_3.c ****     * Summary:
 868:.\Generated_Source\PSoC5/UART_3.c ****     *  Sets the second of two hardware-detectable receiver addresses.
 869:.\Generated_Source\PSoC5/UART_3.c ****     *
 870:.\Generated_Source\PSoC5/UART_3.c ****     * Parameters:
 871:.\Generated_Source\PSoC5/UART_3.c ****     *  address: Address #2 for hardware address detection.
 872:.\Generated_Source\PSoC5/UART_3.c ****     *
 873:.\Generated_Source\PSoC5/UART_3.c ****     * Return:
 874:.\Generated_Source\PSoC5/UART_3.c ****     *  None.
 875:.\Generated_Source\PSoC5/UART_3.c ****     *
 876:.\Generated_Source\PSoC5/UART_3.c ****     *******************************************************************************/
 877:.\Generated_Source\PSoC5/UART_3.c ****     void UART_3_SetRxAddress2(uint8 address) 
ARM GAS  C:\Users\kingi\AppData\Local\Temp\ccQc3vxb.s 			page 22


 878:.\Generated_Source\PSoC5/UART_3.c ****     {
 879:.\Generated_Source\PSoC5/UART_3.c ****         UART_3_RXADDRESS2_REG = address;
 880:.\Generated_Source\PSoC5/UART_3.c ****     }
 881:.\Generated_Source\PSoC5/UART_3.c **** 
 882:.\Generated_Source\PSoC5/UART_3.c **** #endif  /* UART_3_RX_ENABLED || UART_3_HD_ENABLED*/
 883:.\Generated_Source\PSoC5/UART_3.c **** 
 884:.\Generated_Source\PSoC5/UART_3.c **** 
 885:.\Generated_Source\PSoC5/UART_3.c **** #if( (UART_3_TX_ENABLED) || (UART_3_HD_ENABLED) )
 886:.\Generated_Source\PSoC5/UART_3.c ****     /*******************************************************************************
 887:.\Generated_Source\PSoC5/UART_3.c ****     * Function Name: UART_3_SetTxInterruptMode
 888:.\Generated_Source\PSoC5/UART_3.c ****     ********************************************************************************
 889:.\Generated_Source\PSoC5/UART_3.c ****     *
 890:.\Generated_Source\PSoC5/UART_3.c ****     * Summary:
 891:.\Generated_Source\PSoC5/UART_3.c ****     *  Configures the TX interrupt sources to be enabled, but does not enable the
 892:.\Generated_Source\PSoC5/UART_3.c ****     *  interrupt.
 893:.\Generated_Source\PSoC5/UART_3.c ****     *
 894:.\Generated_Source\PSoC5/UART_3.c ****     * Parameters:
 895:.\Generated_Source\PSoC5/UART_3.c ****     *  intSrc: Bit field containing the TX interrupt sources to enable
 896:.\Generated_Source\PSoC5/UART_3.c ****     *   UART_3_TX_STS_COMPLETE        Interrupt on TX byte complete
 897:.\Generated_Source\PSoC5/UART_3.c ****     *   UART_3_TX_STS_FIFO_EMPTY      Interrupt when TX FIFO is empty
 898:.\Generated_Source\PSoC5/UART_3.c ****     *   UART_3_TX_STS_FIFO_FULL       Interrupt when TX FIFO is full
 899:.\Generated_Source\PSoC5/UART_3.c ****     *   UART_3_TX_STS_FIFO_NOT_FULL   Interrupt when TX FIFO is not full
 900:.\Generated_Source\PSoC5/UART_3.c ****     *
 901:.\Generated_Source\PSoC5/UART_3.c ****     * Return:
 902:.\Generated_Source\PSoC5/UART_3.c ****     *  None.
 903:.\Generated_Source\PSoC5/UART_3.c ****     *
 904:.\Generated_Source\PSoC5/UART_3.c ****     * Theory:
 905:.\Generated_Source\PSoC5/UART_3.c ****     *  Enables the output of specific status bits to the interrupt controller
 906:.\Generated_Source\PSoC5/UART_3.c ****     *
 907:.\Generated_Source\PSoC5/UART_3.c ****     *******************************************************************************/
 908:.\Generated_Source\PSoC5/UART_3.c ****     void UART_3_SetTxInterruptMode(uint8 intSrc) 
 909:.\Generated_Source\PSoC5/UART_3.c ****     {
 321              		.loc 1 909 0
 322              		.cfi_startproc
 323              		@ args = 0, pretend = 0, frame = 8
 324              		@ frame_needed = 1, uses_anonymous_args = 0
 325              		@ link register save eliminated.
 326 0000 80B4     		push	{r7}
 327              		.cfi_def_cfa_offset 4
 328              		.cfi_offset 7, -4
 329 0002 83B0     		sub	sp, sp, #12
 330              		.cfi_def_cfa_offset 16
 331 0004 00AF     		add	r7, sp, #0
 332              		.cfi_def_cfa_register 7
 333 0006 0346     		mov	r3, r0
 334 0008 FB71     		strb	r3, [r7, #7]
 910:.\Generated_Source\PSoC5/UART_3.c ****         UART_3_TXSTATUS_MASK_REG = intSrc;
 335              		.loc 1 910 0
 336 000a 044A     		ldr	r2, .L18
 337 000c FB79     		ldrb	r3, [r7, #7]
 338 000e 1370     		strb	r3, [r2]
 911:.\Generated_Source\PSoC5/UART_3.c ****     }
 339              		.loc 1 911 0
 340 0010 0C37     		adds	r7, r7, #12
 341              		.cfi_def_cfa_offset 4
 342 0012 BD46     		mov	sp, r7
 343              		.cfi_def_cfa_register 13
ARM GAS  C:\Users\kingi\AppData\Local\Temp\ccQc3vxb.s 			page 23


 344              		@ sp needed
 345 0014 5DF8047B 		ldr	r7, [sp], #4
 346              		.cfi_restore 7
 347              		.cfi_def_cfa_offset 0
 348 0018 7047     		bx	lr
 349              	.L19:
 350 001a 00BF     		.align	2
 351              	.L18:
 352 001c 86650040 		.word	1073767814
 353              		.cfi_endproc
 354              	.LFE6:
 355              		.size	UART_3_SetTxInterruptMode, .-UART_3_SetTxInterruptMode
 356              		.section	.text.UART_3_WriteTxData,"ax",%progbits
 357              		.align	2
 358              		.global	UART_3_WriteTxData
 359              		.thumb
 360              		.thumb_func
 361              		.type	UART_3_WriteTxData, %function
 362              	UART_3_WriteTxData:
 363              	.LFB7:
 912:.\Generated_Source\PSoC5/UART_3.c **** 
 913:.\Generated_Source\PSoC5/UART_3.c **** 
 914:.\Generated_Source\PSoC5/UART_3.c ****     /*******************************************************************************
 915:.\Generated_Source\PSoC5/UART_3.c ****     * Function Name: UART_3_WriteTxData
 916:.\Generated_Source\PSoC5/UART_3.c ****     ********************************************************************************
 917:.\Generated_Source\PSoC5/UART_3.c ****     *
 918:.\Generated_Source\PSoC5/UART_3.c ****     * Summary:
 919:.\Generated_Source\PSoC5/UART_3.c ****     *  Places a byte of data into the transmit buffer to be sent when the bus is
 920:.\Generated_Source\PSoC5/UART_3.c ****     *  available without checking the TX status register. You must check status
 921:.\Generated_Source\PSoC5/UART_3.c ****     *  separately.
 922:.\Generated_Source\PSoC5/UART_3.c ****     *
 923:.\Generated_Source\PSoC5/UART_3.c ****     * Parameters:
 924:.\Generated_Source\PSoC5/UART_3.c ****     *  txDataByte: data byte
 925:.\Generated_Source\PSoC5/UART_3.c ****     *
 926:.\Generated_Source\PSoC5/UART_3.c ****     * Return:
 927:.\Generated_Source\PSoC5/UART_3.c ****     * None.
 928:.\Generated_Source\PSoC5/UART_3.c ****     *
 929:.\Generated_Source\PSoC5/UART_3.c ****     * Global Variables:
 930:.\Generated_Source\PSoC5/UART_3.c ****     *  UART_3_txBuffer - RAM buffer pointer for save data for transmission
 931:.\Generated_Source\PSoC5/UART_3.c ****     *  UART_3_txBufferWrite - cyclic index for write to txBuffer,
 932:.\Generated_Source\PSoC5/UART_3.c ****     *    incremented after each byte saved to buffer.
 933:.\Generated_Source\PSoC5/UART_3.c ****     *  UART_3_txBufferRead - cyclic index for read from txBuffer,
 934:.\Generated_Source\PSoC5/UART_3.c ****     *    checked to identify the condition to write to FIFO directly or to TX buffer
 935:.\Generated_Source\PSoC5/UART_3.c ****     *  UART_3_initVar - checked to identify that the component has been
 936:.\Generated_Source\PSoC5/UART_3.c ****     *    initialized.
 937:.\Generated_Source\PSoC5/UART_3.c ****     *
 938:.\Generated_Source\PSoC5/UART_3.c ****     * Reentrant:
 939:.\Generated_Source\PSoC5/UART_3.c ****     *  No.
 940:.\Generated_Source\PSoC5/UART_3.c ****     *
 941:.\Generated_Source\PSoC5/UART_3.c ****     *******************************************************************************/
 942:.\Generated_Source\PSoC5/UART_3.c ****     void UART_3_WriteTxData(uint8 txDataByte) 
 943:.\Generated_Source\PSoC5/UART_3.c ****     {
 364              		.loc 1 943 0
 365              		.cfi_startproc
 366              		@ args = 0, pretend = 0, frame = 8
 367              		@ frame_needed = 1, uses_anonymous_args = 0
 368              		@ link register save eliminated.
ARM GAS  C:\Users\kingi\AppData\Local\Temp\ccQc3vxb.s 			page 24


 369 0000 80B4     		push	{r7}
 370              		.cfi_def_cfa_offset 4
 371              		.cfi_offset 7, -4
 372 0002 83B0     		sub	sp, sp, #12
 373              		.cfi_def_cfa_offset 16
 374 0004 00AF     		add	r7, sp, #0
 375              		.cfi_def_cfa_register 7
 376 0006 0346     		mov	r3, r0
 377 0008 FB71     		strb	r3, [r7, #7]
 944:.\Generated_Source\PSoC5/UART_3.c ****         /* If not Initialized then skip this function*/
 945:.\Generated_Source\PSoC5/UART_3.c ****         if(UART_3_initVar != 0u)
 378              		.loc 1 945 0
 379 000a 1A4B     		ldr	r3, .L25
 380 000c 1B78     		ldrb	r3, [r3]	@ zero_extendqisi2
 381 000e 002B     		cmp	r3, #0
 382 0010 2AD0     		beq	.L20
 946:.\Generated_Source\PSoC5/UART_3.c ****         {
 947:.\Generated_Source\PSoC5/UART_3.c ****         #if (UART_3_TX_INTERRUPT_ENABLED)
 948:.\Generated_Source\PSoC5/UART_3.c **** 
 949:.\Generated_Source\PSoC5/UART_3.c ****             /* Protect variables that could change on interrupt. */
 950:.\Generated_Source\PSoC5/UART_3.c ****             UART_3_DisableTxInt();
 383              		.loc 1 950 0
 384 0012 194B     		ldr	r3, .L25+4
 385 0014 1022     		movs	r2, #16
 386 0016 1A60     		str	r2, [r3]
 951:.\Generated_Source\PSoC5/UART_3.c **** 
 952:.\Generated_Source\PSoC5/UART_3.c ****             if( (UART_3_txBufferRead == UART_3_txBufferWrite) &&
 387              		.loc 1 952 0
 388 0018 184B     		ldr	r3, .L25+8
 389 001a 1B78     		ldrb	r3, [r3]
 390 001c DAB2     		uxtb	r2, r3
 391 001e 184B     		ldr	r3, .L25+12
 392 0020 1B78     		ldrb	r3, [r3]	@ zero_extendqisi2
 393 0022 9A42     		cmp	r2, r3
 394 0024 0AD1     		bne	.L22
 953:.\Generated_Source\PSoC5/UART_3.c ****                 ((UART_3_TXSTATUS_REG & UART_3_TX_STS_FIFO_FULL) == 0u) )
 395              		.loc 1 953 0 discriminator 1
 396 0026 174B     		ldr	r3, .L25+16
 397 0028 1B78     		ldrb	r3, [r3]
 398 002a DBB2     		uxtb	r3, r3
 399 002c 03F00403 		and	r3, r3, #4
 952:.\Generated_Source\PSoC5/UART_3.c ****                 ((UART_3_TXSTATUS_REG & UART_3_TX_STS_FIFO_FULL) == 0u) )
 400              		.loc 1 952 0 discriminator 1
 401 0030 002B     		cmp	r3, #0
 402 0032 03D1     		bne	.L22
 954:.\Generated_Source\PSoC5/UART_3.c ****             {
 955:.\Generated_Source\PSoC5/UART_3.c ****                 /* Add directly to the FIFO. */
 956:.\Generated_Source\PSoC5/UART_3.c ****                 UART_3_TXDATA_REG = txDataByte;
 403              		.loc 1 956 0
 404 0034 144A     		ldr	r2, .L25+20
 405 0036 FB79     		ldrb	r3, [r7, #7]
 406 0038 1370     		strb	r3, [r2]
 407 003a 12E0     		b	.L23
 408              	.L22:
 957:.\Generated_Source\PSoC5/UART_3.c ****             }
 958:.\Generated_Source\PSoC5/UART_3.c ****             else
 959:.\Generated_Source\PSoC5/UART_3.c ****             {
ARM GAS  C:\Users\kingi\AppData\Local\Temp\ccQc3vxb.s 			page 25


 960:.\Generated_Source\PSoC5/UART_3.c ****                 if(UART_3_txBufferWrite >= UART_3_TX_BUFFER_SIZE)
 409              		.loc 1 960 0
 410 003c 104B     		ldr	r3, .L25+12
 411 003e 1B78     		ldrb	r3, [r3]	@ zero_extendqisi2
 412 0040 1A2B     		cmp	r3, #26
 413 0042 02D9     		bls	.L24
 961:.\Generated_Source\PSoC5/UART_3.c ****                 {
 962:.\Generated_Source\PSoC5/UART_3.c ****                     UART_3_txBufferWrite = 0u;
 414              		.loc 1 962 0
 415 0044 0E4B     		ldr	r3, .L25+12
 416 0046 0022     		movs	r2, #0
 417 0048 1A70     		strb	r2, [r3]
 418              	.L24:
 963:.\Generated_Source\PSoC5/UART_3.c ****                 }
 964:.\Generated_Source\PSoC5/UART_3.c **** 
 965:.\Generated_Source\PSoC5/UART_3.c ****                 UART_3_txBuffer[UART_3_txBufferWrite] = txDataByte;
 419              		.loc 1 965 0
 420 004a 0D4B     		ldr	r3, .L25+12
 421 004c 1B78     		ldrb	r3, [r3]	@ zero_extendqisi2
 422 004e 1946     		mov	r1, r3
 423 0050 0E4A     		ldr	r2, .L25+24
 424 0052 FB79     		ldrb	r3, [r7, #7]
 425 0054 5354     		strb	r3, [r2, r1]
 966:.\Generated_Source\PSoC5/UART_3.c **** 
 967:.\Generated_Source\PSoC5/UART_3.c ****                 /* Add to the software buffer. */
 968:.\Generated_Source\PSoC5/UART_3.c ****                 UART_3_txBufferWrite++;
 426              		.loc 1 968 0
 427 0056 0A4B     		ldr	r3, .L25+12
 428 0058 1B78     		ldrb	r3, [r3]	@ zero_extendqisi2
 429 005a 0133     		adds	r3, r3, #1
 430 005c DAB2     		uxtb	r2, r3
 431 005e 084B     		ldr	r3, .L25+12
 432 0060 1A70     		strb	r2, [r3]
 433              	.L23:
 969:.\Generated_Source\PSoC5/UART_3.c ****             }
 970:.\Generated_Source\PSoC5/UART_3.c **** 
 971:.\Generated_Source\PSoC5/UART_3.c ****             UART_3_EnableTxInt();
 434              		.loc 1 971 0
 435 0062 0B4B     		ldr	r3, .L25+28
 436 0064 1022     		movs	r2, #16
 437 0066 1A60     		str	r2, [r3]
 438              	.L20:
 972:.\Generated_Source\PSoC5/UART_3.c **** 
 973:.\Generated_Source\PSoC5/UART_3.c ****         #else
 974:.\Generated_Source\PSoC5/UART_3.c **** 
 975:.\Generated_Source\PSoC5/UART_3.c ****             /* Add directly to the FIFO. */
 976:.\Generated_Source\PSoC5/UART_3.c ****             UART_3_TXDATA_REG = txDataByte;
 977:.\Generated_Source\PSoC5/UART_3.c **** 
 978:.\Generated_Source\PSoC5/UART_3.c ****         #endif /*(UART_3_TX_INTERRUPT_ENABLED) */
 979:.\Generated_Source\PSoC5/UART_3.c ****         }
 980:.\Generated_Source\PSoC5/UART_3.c ****     }
 439              		.loc 1 980 0
 440 0068 0C37     		adds	r7, r7, #12
 441              		.cfi_def_cfa_offset 4
 442 006a BD46     		mov	sp, r7
 443              		.cfi_def_cfa_register 13
 444              		@ sp needed
ARM GAS  C:\Users\kingi\AppData\Local\Temp\ccQc3vxb.s 			page 26


 445 006c 5DF8047B 		ldr	r7, [sp], #4
 446              		.cfi_restore 7
 447              		.cfi_def_cfa_offset 0
 448 0070 7047     		bx	lr
 449              	.L26:
 450 0072 00BF     		.align	2
 451              	.L25:
 452 0074 00000000 		.word	UART_3_initVar
 453 0078 80E100E0 		.word	-536813184
 454 007c 00000000 		.word	UART_3_txBufferRead
 455 0080 00000000 		.word	UART_3_txBufferWrite
 456 0084 66650040 		.word	1073767782
 457 0088 46650040 		.word	1073767750
 458 008c 00000000 		.word	UART_3_txBuffer
 459 0090 00E100E0 		.word	-536813312
 460              		.cfi_endproc
 461              	.LFE7:
 462              		.size	UART_3_WriteTxData, .-UART_3_WriteTxData
 463              		.section	.text.UART_3_ReadTxStatus,"ax",%progbits
 464              		.align	2
 465              		.global	UART_3_ReadTxStatus
 466              		.thumb
 467              		.thumb_func
 468              		.type	UART_3_ReadTxStatus, %function
 469              	UART_3_ReadTxStatus:
 470              	.LFB8:
 981:.\Generated_Source\PSoC5/UART_3.c **** 
 982:.\Generated_Source\PSoC5/UART_3.c **** 
 983:.\Generated_Source\PSoC5/UART_3.c ****     /*******************************************************************************
 984:.\Generated_Source\PSoC5/UART_3.c ****     * Function Name: UART_3_ReadTxStatus
 985:.\Generated_Source\PSoC5/UART_3.c ****     ********************************************************************************
 986:.\Generated_Source\PSoC5/UART_3.c ****     *
 987:.\Generated_Source\PSoC5/UART_3.c ****     * Summary:
 988:.\Generated_Source\PSoC5/UART_3.c ****     *  Reads the status register for the TX portion of the UART.
 989:.\Generated_Source\PSoC5/UART_3.c ****     *
 990:.\Generated_Source\PSoC5/UART_3.c ****     * Parameters:
 991:.\Generated_Source\PSoC5/UART_3.c ****     *  None.
 992:.\Generated_Source\PSoC5/UART_3.c ****     *
 993:.\Generated_Source\PSoC5/UART_3.c ****     * Return:
 994:.\Generated_Source\PSoC5/UART_3.c ****     *  Contents of the status register
 995:.\Generated_Source\PSoC5/UART_3.c ****     *
 996:.\Generated_Source\PSoC5/UART_3.c ****     * Theory:
 997:.\Generated_Source\PSoC5/UART_3.c ****     *  This function reads the TX status register, which is cleared on read.
 998:.\Generated_Source\PSoC5/UART_3.c ****     *  It is up to the user to handle all bits in this return value accordingly,
 999:.\Generated_Source\PSoC5/UART_3.c ****     *  even if the bit was not enabled as an interrupt source the event happened
1000:.\Generated_Source\PSoC5/UART_3.c ****     *  and must be handled accordingly.
1001:.\Generated_Source\PSoC5/UART_3.c ****     *
1002:.\Generated_Source\PSoC5/UART_3.c ****     *******************************************************************************/
1003:.\Generated_Source\PSoC5/UART_3.c ****     uint8 UART_3_ReadTxStatus(void) 
1004:.\Generated_Source\PSoC5/UART_3.c ****     {
 471              		.loc 1 1004 0
 472              		.cfi_startproc
 473              		@ args = 0, pretend = 0, frame = 0
 474              		@ frame_needed = 1, uses_anonymous_args = 0
 475              		@ link register save eliminated.
 476 0000 80B4     		push	{r7}
 477              		.cfi_def_cfa_offset 4
ARM GAS  C:\Users\kingi\AppData\Local\Temp\ccQc3vxb.s 			page 27


 478              		.cfi_offset 7, -4
 479 0002 00AF     		add	r7, sp, #0
 480              		.cfi_def_cfa_register 7
1005:.\Generated_Source\PSoC5/UART_3.c ****         return(UART_3_TXSTATUS_REG);
 481              		.loc 1 1005 0
 482 0004 034B     		ldr	r3, .L29
 483 0006 1B78     		ldrb	r3, [r3]
 484 0008 DBB2     		uxtb	r3, r3
1006:.\Generated_Source\PSoC5/UART_3.c ****     }
 485              		.loc 1 1006 0
 486 000a 1846     		mov	r0, r3
 487 000c BD46     		mov	sp, r7
 488              		.cfi_def_cfa_register 13
 489              		@ sp needed
 490 000e 5DF8047B 		ldr	r7, [sp], #4
 491              		.cfi_restore 7
 492              		.cfi_def_cfa_offset 0
 493 0012 7047     		bx	lr
 494              	.L30:
 495              		.align	2
 496              	.L29:
 497 0014 66650040 		.word	1073767782
 498              		.cfi_endproc
 499              	.LFE8:
 500              		.size	UART_3_ReadTxStatus, .-UART_3_ReadTxStatus
 501              		.section	.text.UART_3_PutChar,"ax",%progbits
 502              		.align	2
 503              		.global	UART_3_PutChar
 504              		.thumb
 505              		.thumb_func
 506              		.type	UART_3_PutChar, %function
 507              	UART_3_PutChar:
 508              	.LFB9:
1007:.\Generated_Source\PSoC5/UART_3.c **** 
1008:.\Generated_Source\PSoC5/UART_3.c **** 
1009:.\Generated_Source\PSoC5/UART_3.c ****     /*******************************************************************************
1010:.\Generated_Source\PSoC5/UART_3.c ****     * Function Name: UART_3_PutChar
1011:.\Generated_Source\PSoC5/UART_3.c ****     ********************************************************************************
1012:.\Generated_Source\PSoC5/UART_3.c ****     *
1013:.\Generated_Source\PSoC5/UART_3.c ****     * Summary:
1014:.\Generated_Source\PSoC5/UART_3.c ****     *  Puts a byte of data into the transmit buffer to be sent when the bus is
1015:.\Generated_Source\PSoC5/UART_3.c ****     *  available. This is a blocking API that waits until the TX buffer has room to
1016:.\Generated_Source\PSoC5/UART_3.c ****     *  hold the data.
1017:.\Generated_Source\PSoC5/UART_3.c ****     *
1018:.\Generated_Source\PSoC5/UART_3.c ****     * Parameters:
1019:.\Generated_Source\PSoC5/UART_3.c ****     *  txDataByte: Byte containing the data to transmit
1020:.\Generated_Source\PSoC5/UART_3.c ****     *
1021:.\Generated_Source\PSoC5/UART_3.c ****     * Return:
1022:.\Generated_Source\PSoC5/UART_3.c ****     *  None.
1023:.\Generated_Source\PSoC5/UART_3.c ****     *
1024:.\Generated_Source\PSoC5/UART_3.c ****     * Global Variables:
1025:.\Generated_Source\PSoC5/UART_3.c ****     *  UART_3_txBuffer - RAM buffer pointer for save data for transmission
1026:.\Generated_Source\PSoC5/UART_3.c ****     *  UART_3_txBufferWrite - cyclic index for write to txBuffer,
1027:.\Generated_Source\PSoC5/UART_3.c ****     *     checked to identify free space in txBuffer and incremented after each byte
1028:.\Generated_Source\PSoC5/UART_3.c ****     *     saved to buffer.
1029:.\Generated_Source\PSoC5/UART_3.c ****     *  UART_3_txBufferRead - cyclic index for read from txBuffer,
1030:.\Generated_Source\PSoC5/UART_3.c ****     *     checked to identify free space in txBuffer.
ARM GAS  C:\Users\kingi\AppData\Local\Temp\ccQc3vxb.s 			page 28


1031:.\Generated_Source\PSoC5/UART_3.c ****     *  UART_3_initVar - checked to identify that the component has been
1032:.\Generated_Source\PSoC5/UART_3.c ****     *     initialized.
1033:.\Generated_Source\PSoC5/UART_3.c ****     *
1034:.\Generated_Source\PSoC5/UART_3.c ****     * Reentrant:
1035:.\Generated_Source\PSoC5/UART_3.c ****     *  No.
1036:.\Generated_Source\PSoC5/UART_3.c ****     *
1037:.\Generated_Source\PSoC5/UART_3.c ****     * Theory:
1038:.\Generated_Source\PSoC5/UART_3.c ****     *  Allows the user to transmit any byte of data in a single transfer
1039:.\Generated_Source\PSoC5/UART_3.c ****     *
1040:.\Generated_Source\PSoC5/UART_3.c ****     *******************************************************************************/
1041:.\Generated_Source\PSoC5/UART_3.c ****     void UART_3_PutChar(uint8 txDataByte) 
1042:.\Generated_Source\PSoC5/UART_3.c ****     {
 509              		.loc 1 1042 0
 510              		.cfi_startproc
 511              		@ args = 0, pretend = 0, frame = 16
 512              		@ frame_needed = 1, uses_anonymous_args = 0
 513              		@ link register save eliminated.
 514 0000 80B4     		push	{r7}
 515              		.cfi_def_cfa_offset 4
 516              		.cfi_offset 7, -4
 517 0002 85B0     		sub	sp, sp, #20
 518              		.cfi_def_cfa_offset 24
 519 0004 00AF     		add	r7, sp, #0
 520              		.cfi_def_cfa_register 7
 521 0006 0346     		mov	r3, r0
 522 0008 FB71     		strb	r3, [r7, #7]
 523              	.L34:
1043:.\Generated_Source\PSoC5/UART_3.c ****     #if (UART_3_TX_INTERRUPT_ENABLED)
1044:.\Generated_Source\PSoC5/UART_3.c ****         /* The temporary output pointer is used since it takes two instructions
1045:.\Generated_Source\PSoC5/UART_3.c ****         *  to increment with a wrap, and we can't risk doing that with the real
1046:.\Generated_Source\PSoC5/UART_3.c ****         *  pointer and getting an interrupt in between instructions.
1047:.\Generated_Source\PSoC5/UART_3.c ****         */
1048:.\Generated_Source\PSoC5/UART_3.c ****         uint8 locTxBufferWrite;
1049:.\Generated_Source\PSoC5/UART_3.c ****         uint8 locTxBufferRead;
1050:.\Generated_Source\PSoC5/UART_3.c **** 
1051:.\Generated_Source\PSoC5/UART_3.c ****         do
1052:.\Generated_Source\PSoC5/UART_3.c ****         { /* Block if software buffer is full, so we don't overwrite. */
1053:.\Generated_Source\PSoC5/UART_3.c **** 
1054:.\Generated_Source\PSoC5/UART_3.c ****         #if ((UART_3_TX_BUFFER_SIZE > UART_3_MAX_BYTE_VALUE) && (CY_PSOC3))
1055:.\Generated_Source\PSoC5/UART_3.c ****             /* Disable TX interrupt to protect variables from modification */
1056:.\Generated_Source\PSoC5/UART_3.c ****             UART_3_DisableTxInt();
1057:.\Generated_Source\PSoC5/UART_3.c ****         #endif /* (UART_3_TX_BUFFER_SIZE > UART_3_MAX_BYTE_VALUE) && (CY_PSOC3) */
1058:.\Generated_Source\PSoC5/UART_3.c **** 
1059:.\Generated_Source\PSoC5/UART_3.c ****             locTxBufferWrite = UART_3_txBufferWrite;
 524              		.loc 1 1059 0
 525 000a 254B     		ldr	r3, .L38
 526 000c 1B78     		ldrb	r3, [r3]
 527 000e FB73     		strb	r3, [r7, #15]
1060:.\Generated_Source\PSoC5/UART_3.c ****             locTxBufferRead  = UART_3_txBufferRead;
 528              		.loc 1 1060 0
 529 0010 244B     		ldr	r3, .L38+4
 530 0012 1B78     		ldrb	r3, [r3]
 531 0014 BB73     		strb	r3, [r7, #14]
1061:.\Generated_Source\PSoC5/UART_3.c **** 
1062:.\Generated_Source\PSoC5/UART_3.c ****         #if ((UART_3_TX_BUFFER_SIZE > UART_3_MAX_BYTE_VALUE) && (CY_PSOC3))
1063:.\Generated_Source\PSoC5/UART_3.c ****             /* Enable interrupt to continue transmission */
1064:.\Generated_Source\PSoC5/UART_3.c ****             UART_3_EnableTxInt();
ARM GAS  C:\Users\kingi\AppData\Local\Temp\ccQc3vxb.s 			page 29


1065:.\Generated_Source\PSoC5/UART_3.c ****         #endif /* (UART_3_TX_BUFFER_SIZE > UART_3_MAX_BYTE_VALUE) && (CY_PSOC3) */
1066:.\Generated_Source\PSoC5/UART_3.c ****         }
1067:.\Generated_Source\PSoC5/UART_3.c ****         while( (locTxBufferWrite < locTxBufferRead) ? (locTxBufferWrite == (locTxBufferRead - 1u)) 
 532              		.loc 1 1067 0
 533 0016 FA7B     		ldrb	r2, [r7, #15]	@ zero_extendqisi2
 534 0018 BB7B     		ldrb	r3, [r7, #14]	@ zero_extendqisi2
 535 001a 9A42     		cmp	r2, r3
 536 001c 08D2     		bcs	.L32
 537              		.loc 1 1067 0 is_stmt 0 discriminator 1
 538 001e FA7B     		ldrb	r2, [r7, #15]	@ zero_extendqisi2
 539 0020 BB7B     		ldrb	r3, [r7, #14]	@ zero_extendqisi2
 540 0022 013B     		subs	r3, r3, #1
 541 0024 9A42     		cmp	r2, r3
 542 0026 0CBF     		ite	eq
 543 0028 0123     		moveq	r3, #1
 544 002a 0023     		movne	r3, #0
 545 002c DBB2     		uxtb	r3, r3
 546 002e 07E0     		b	.L33
 547              	.L32:
1068:.\Generated_Source\PSoC5/UART_3.c ****                                 ((locTxBufferWrite - locTxBufferRead) ==
 548              		.loc 1 1068 0 is_stmt 1 discriminator 2
 549 0030 FA7B     		ldrb	r2, [r7, #15]	@ zero_extendqisi2
 550 0032 BB7B     		ldrb	r3, [r7, #14]	@ zero_extendqisi2
 551 0034 D31A     		subs	r3, r2, r3
1067:.\Generated_Source\PSoC5/UART_3.c ****                                 ((locTxBufferWrite - locTxBufferRead) ==
 552              		.loc 1 1067 0 discriminator 2
 553 0036 1A2B     		cmp	r3, #26
 554 0038 0CBF     		ite	eq
 555 003a 0123     		moveq	r3, #1
 556 003c 0023     		movne	r3, #0
 557 003e DBB2     		uxtb	r3, r3
 558              	.L33:
1069:.\Generated_Source\PSoC5/UART_3.c ****                                 (uint8)(UART_3_TX_BUFFER_SIZE - 1u)) );
 559              		.loc 1 1069 0
 560 0040 002B     		cmp	r3, #0
 561 0042 E2D1     		bne	.L34
1070:.\Generated_Source\PSoC5/UART_3.c **** 
1071:.\Generated_Source\PSoC5/UART_3.c ****         if( (locTxBufferRead == locTxBufferWrite) &&
 562              		.loc 1 1071 0
 563 0044 BA7B     		ldrb	r2, [r7, #14]	@ zero_extendqisi2
 564 0046 FB7B     		ldrb	r3, [r7, #15]	@ zero_extendqisi2
 565 0048 9A42     		cmp	r2, r3
 566 004a 0AD1     		bne	.L35
1072:.\Generated_Source\PSoC5/UART_3.c ****             ((UART_3_TXSTATUS_REG & UART_3_TX_STS_FIFO_FULL) == 0u) )
 567              		.loc 1 1072 0 discriminator 1
 568 004c 164B     		ldr	r3, .L38+8
 569 004e 1B78     		ldrb	r3, [r3]
 570 0050 DBB2     		uxtb	r3, r3
 571 0052 03F00403 		and	r3, r3, #4
1071:.\Generated_Source\PSoC5/UART_3.c ****             ((UART_3_TXSTATUS_REG & UART_3_TX_STS_FIFO_FULL) == 0u) )
 572              		.loc 1 1071 0 discriminator 1
 573 0056 002B     		cmp	r3, #0
 574 0058 03D1     		bne	.L35
1073:.\Generated_Source\PSoC5/UART_3.c ****         {
1074:.\Generated_Source\PSoC5/UART_3.c ****             /* Add directly to the FIFO */
1075:.\Generated_Source\PSoC5/UART_3.c ****             UART_3_TXDATA_REG = txDataByte;
 575              		.loc 1 1075 0
ARM GAS  C:\Users\kingi\AppData\Local\Temp\ccQc3vxb.s 			page 30


 576 005a 144A     		ldr	r2, .L38+12
 577 005c FB79     		ldrb	r3, [r7, #7]
 578 005e 1370     		strb	r3, [r2]
 579 0060 18E0     		b	.L31
 580              	.L35:
1076:.\Generated_Source\PSoC5/UART_3.c ****         }
1077:.\Generated_Source\PSoC5/UART_3.c ****         else
1078:.\Generated_Source\PSoC5/UART_3.c ****         {
1079:.\Generated_Source\PSoC5/UART_3.c ****             if(locTxBufferWrite >= UART_3_TX_BUFFER_SIZE)
 581              		.loc 1 1079 0
 582 0062 FB7B     		ldrb	r3, [r7, #15]	@ zero_extendqisi2
 583 0064 1A2B     		cmp	r3, #26
 584 0066 01D9     		bls	.L37
1080:.\Generated_Source\PSoC5/UART_3.c ****             {
1081:.\Generated_Source\PSoC5/UART_3.c ****                 locTxBufferWrite = 0u;
 585              		.loc 1 1081 0
 586 0068 0023     		movs	r3, #0
 587 006a FB73     		strb	r3, [r7, #15]
 588              	.L37:
1082:.\Generated_Source\PSoC5/UART_3.c ****             }
1083:.\Generated_Source\PSoC5/UART_3.c ****             /* Add to the software buffer. */
1084:.\Generated_Source\PSoC5/UART_3.c ****             UART_3_txBuffer[locTxBufferWrite] = txDataByte;
 589              		.loc 1 1084 0
 590 006c FB7B     		ldrb	r3, [r7, #15]	@ zero_extendqisi2
 591 006e 1049     		ldr	r1, .L38+16
 592 0070 FA79     		ldrb	r2, [r7, #7]
 593 0072 CA54     		strb	r2, [r1, r3]
1085:.\Generated_Source\PSoC5/UART_3.c ****             locTxBufferWrite++;
 594              		.loc 1 1085 0
 595 0074 FB7B     		ldrb	r3, [r7, #15]	@ zero_extendqisi2
 596 0076 0133     		adds	r3, r3, #1
 597 0078 FB73     		strb	r3, [r7, #15]
1086:.\Generated_Source\PSoC5/UART_3.c **** 
1087:.\Generated_Source\PSoC5/UART_3.c ****             /* Finally, update the real output pointer */
1088:.\Generated_Source\PSoC5/UART_3.c ****         #if ((UART_3_TX_BUFFER_SIZE > UART_3_MAX_BYTE_VALUE) && (CY_PSOC3))
1089:.\Generated_Source\PSoC5/UART_3.c ****             UART_3_DisableTxInt();
1090:.\Generated_Source\PSoC5/UART_3.c ****         #endif /* (UART_3_TX_BUFFER_SIZE > UART_3_MAX_BYTE_VALUE) && (CY_PSOC3) */
1091:.\Generated_Source\PSoC5/UART_3.c **** 
1092:.\Generated_Source\PSoC5/UART_3.c ****             UART_3_txBufferWrite = locTxBufferWrite;
 598              		.loc 1 1092 0
 599 007a 094A     		ldr	r2, .L38
 600 007c FB7B     		ldrb	r3, [r7, #15]
 601 007e 1370     		strb	r3, [r2]
1093:.\Generated_Source\PSoC5/UART_3.c **** 
1094:.\Generated_Source\PSoC5/UART_3.c ****         #if ((UART_3_TX_BUFFER_SIZE > UART_3_MAX_BYTE_VALUE) && (CY_PSOC3))
1095:.\Generated_Source\PSoC5/UART_3.c ****             UART_3_EnableTxInt();
1096:.\Generated_Source\PSoC5/UART_3.c ****         #endif /* (UART_3_TX_BUFFER_SIZE > UART_3_MAX_BYTE_VALUE) && (CY_PSOC3) */
1097:.\Generated_Source\PSoC5/UART_3.c **** 
1098:.\Generated_Source\PSoC5/UART_3.c ****             if(0u != (UART_3_TXSTATUS_REG & UART_3_TX_STS_FIFO_EMPTY))
 602              		.loc 1 1098 0
 603 0080 094B     		ldr	r3, .L38+8
 604 0082 1B78     		ldrb	r3, [r3]
 605 0084 DBB2     		uxtb	r3, r3
 606 0086 03F00203 		and	r3, r3, #2
 607 008a 002B     		cmp	r3, #0
 608 008c 02D0     		beq	.L31
1099:.\Generated_Source\PSoC5/UART_3.c ****             {
ARM GAS  C:\Users\kingi\AppData\Local\Temp\ccQc3vxb.s 			page 31


1100:.\Generated_Source\PSoC5/UART_3.c ****                 /* Trigger TX interrupt to send software buffer */
1101:.\Generated_Source\PSoC5/UART_3.c ****                 UART_3_SetPendingTxInt();
 609              		.loc 1 1101 0
 610 008e 094B     		ldr	r3, .L38+20
 611 0090 1022     		movs	r2, #16
 612 0092 1A60     		str	r2, [r3]
 613              	.L31:
1102:.\Generated_Source\PSoC5/UART_3.c ****             }
1103:.\Generated_Source\PSoC5/UART_3.c ****         }
1104:.\Generated_Source\PSoC5/UART_3.c **** 
1105:.\Generated_Source\PSoC5/UART_3.c ****     #else
1106:.\Generated_Source\PSoC5/UART_3.c **** 
1107:.\Generated_Source\PSoC5/UART_3.c ****         while((UART_3_TXSTATUS_REG & UART_3_TX_STS_FIFO_FULL) != 0u)
1108:.\Generated_Source\PSoC5/UART_3.c ****         {
1109:.\Generated_Source\PSoC5/UART_3.c ****             /* Wait for room in the FIFO */
1110:.\Generated_Source\PSoC5/UART_3.c ****         }
1111:.\Generated_Source\PSoC5/UART_3.c **** 
1112:.\Generated_Source\PSoC5/UART_3.c ****         /* Add directly to the FIFO */
1113:.\Generated_Source\PSoC5/UART_3.c ****         UART_3_TXDATA_REG = txDataByte;
1114:.\Generated_Source\PSoC5/UART_3.c **** 
1115:.\Generated_Source\PSoC5/UART_3.c ****     #endif /* UART_3_TX_INTERRUPT_ENABLED */
1116:.\Generated_Source\PSoC5/UART_3.c ****     }
 614              		.loc 1 1116 0
 615 0094 1437     		adds	r7, r7, #20
 616              		.cfi_def_cfa_offset 4
 617 0096 BD46     		mov	sp, r7
 618              		.cfi_def_cfa_register 13
 619              		@ sp needed
 620 0098 5DF8047B 		ldr	r7, [sp], #4
 621              		.cfi_restore 7
 622              		.cfi_def_cfa_offset 0
 623 009c 7047     		bx	lr
 624              	.L39:
 625 009e 00BF     		.align	2
 626              	.L38:
 627 00a0 00000000 		.word	UART_3_txBufferWrite
 628 00a4 00000000 		.word	UART_3_txBufferRead
 629 00a8 66650040 		.word	1073767782
 630 00ac 46650040 		.word	1073767750
 631 00b0 00000000 		.word	UART_3_txBuffer
 632 00b4 00E200E0 		.word	-536813056
 633              		.cfi_endproc
 634              	.LFE9:
 635              		.size	UART_3_PutChar, .-UART_3_PutChar
 636              		.section	.text.UART_3_PutString,"ax",%progbits
 637              		.align	2
 638              		.global	UART_3_PutString
 639              		.thumb
 640              		.thumb_func
 641              		.type	UART_3_PutString, %function
 642              	UART_3_PutString:
 643              	.LFB10:
1117:.\Generated_Source\PSoC5/UART_3.c **** 
1118:.\Generated_Source\PSoC5/UART_3.c **** 
1119:.\Generated_Source\PSoC5/UART_3.c ****     /*******************************************************************************
1120:.\Generated_Source\PSoC5/UART_3.c ****     * Function Name: UART_3_PutString
1121:.\Generated_Source\PSoC5/UART_3.c ****     ********************************************************************************
ARM GAS  C:\Users\kingi\AppData\Local\Temp\ccQc3vxb.s 			page 32


1122:.\Generated_Source\PSoC5/UART_3.c ****     *
1123:.\Generated_Source\PSoC5/UART_3.c ****     * Summary:
1124:.\Generated_Source\PSoC5/UART_3.c ****     *  Sends a NULL terminated string to the TX buffer for transmission.
1125:.\Generated_Source\PSoC5/UART_3.c ****     *
1126:.\Generated_Source\PSoC5/UART_3.c ****     * Parameters:
1127:.\Generated_Source\PSoC5/UART_3.c ****     *  string[]: Pointer to the null terminated string array residing in RAM or ROM
1128:.\Generated_Source\PSoC5/UART_3.c ****     *
1129:.\Generated_Source\PSoC5/UART_3.c ****     * Return:
1130:.\Generated_Source\PSoC5/UART_3.c ****     *  None.
1131:.\Generated_Source\PSoC5/UART_3.c ****     *
1132:.\Generated_Source\PSoC5/UART_3.c ****     * Global Variables:
1133:.\Generated_Source\PSoC5/UART_3.c ****     *  UART_3_initVar - checked to identify that the component has been
1134:.\Generated_Source\PSoC5/UART_3.c ****     *     initialized.
1135:.\Generated_Source\PSoC5/UART_3.c ****     *
1136:.\Generated_Source\PSoC5/UART_3.c ****     * Reentrant:
1137:.\Generated_Source\PSoC5/UART_3.c ****     *  No.
1138:.\Generated_Source\PSoC5/UART_3.c ****     *
1139:.\Generated_Source\PSoC5/UART_3.c ****     * Theory:
1140:.\Generated_Source\PSoC5/UART_3.c ****     *  If there is not enough memory in the TX buffer for the entire string, this
1141:.\Generated_Source\PSoC5/UART_3.c ****     *  function blocks until the last character of the string is loaded into the
1142:.\Generated_Source\PSoC5/UART_3.c ****     *  TX buffer.
1143:.\Generated_Source\PSoC5/UART_3.c ****     *
1144:.\Generated_Source\PSoC5/UART_3.c ****     *******************************************************************************/
1145:.\Generated_Source\PSoC5/UART_3.c ****     void UART_3_PutString(const char8 string[]) 
1146:.\Generated_Source\PSoC5/UART_3.c ****     {
 644              		.loc 1 1146 0
 645              		.cfi_startproc
 646              		@ args = 0, pretend = 0, frame = 16
 647              		@ frame_needed = 1, uses_anonymous_args = 0
 648 0000 80B5     		push	{r7, lr}
 649              		.cfi_def_cfa_offset 8
 650              		.cfi_offset 7, -8
 651              		.cfi_offset 14, -4
 652 0002 84B0     		sub	sp, sp, #16
 653              		.cfi_def_cfa_offset 24
 654 0004 00AF     		add	r7, sp, #0
 655              		.cfi_def_cfa_register 7
 656 0006 7860     		str	r0, [r7, #4]
1147:.\Generated_Source\PSoC5/UART_3.c ****         uint16 bufIndex = 0u;
 657              		.loc 1 1147 0
 658 0008 0023     		movs	r3, #0
 659 000a FB81     		strh	r3, [r7, #14]	@ movhi
1148:.\Generated_Source\PSoC5/UART_3.c **** 
1149:.\Generated_Source\PSoC5/UART_3.c ****         /* If not Initialized then skip this function */
1150:.\Generated_Source\PSoC5/UART_3.c ****         if(UART_3_initVar != 0u)
 660              		.loc 1 1150 0
 661 000c 0B4B     		ldr	r3, .L44
 662 000e 1B78     		ldrb	r3, [r3]	@ zero_extendqisi2
 663 0010 002B     		cmp	r3, #0
 664 0012 10D0     		beq	.L40
1151:.\Generated_Source\PSoC5/UART_3.c ****         {
1152:.\Generated_Source\PSoC5/UART_3.c ****             /* This is a blocking function, it will not exit until all data is sent */
1153:.\Generated_Source\PSoC5/UART_3.c ****             while(string[bufIndex] != (char8) 0)
 665              		.loc 1 1153 0
 666 0014 09E0     		b	.L42
 667              	.L43:
1154:.\Generated_Source\PSoC5/UART_3.c ****             {
ARM GAS  C:\Users\kingi\AppData\Local\Temp\ccQc3vxb.s 			page 33


1155:.\Generated_Source\PSoC5/UART_3.c ****                 UART_3_PutChar((uint8)string[bufIndex]);
 668              		.loc 1 1155 0
 669 0016 FB89     		ldrh	r3, [r7, #14]
 670 0018 7A68     		ldr	r2, [r7, #4]
 671 001a 1344     		add	r3, r3, r2
 672 001c 1B78     		ldrb	r3, [r3]	@ zero_extendqisi2
 673 001e 1846     		mov	r0, r3
 674 0020 FFF7FEFF 		bl	UART_3_PutChar
1156:.\Generated_Source\PSoC5/UART_3.c ****                 bufIndex++;
 675              		.loc 1 1156 0
 676 0024 FB89     		ldrh	r3, [r7, #14]
 677 0026 0133     		adds	r3, r3, #1
 678 0028 FB81     		strh	r3, [r7, #14]	@ movhi
 679              	.L42:
1153:.\Generated_Source\PSoC5/UART_3.c ****             {
 680              		.loc 1 1153 0
 681 002a FB89     		ldrh	r3, [r7, #14]
 682 002c 7A68     		ldr	r2, [r7, #4]
 683 002e 1344     		add	r3, r3, r2
 684 0030 1B78     		ldrb	r3, [r3]	@ zero_extendqisi2
 685 0032 002B     		cmp	r3, #0
 686 0034 EFD1     		bne	.L43
 687              	.L40:
1157:.\Generated_Source\PSoC5/UART_3.c ****             }
1158:.\Generated_Source\PSoC5/UART_3.c ****         }
1159:.\Generated_Source\PSoC5/UART_3.c ****     }
 688              		.loc 1 1159 0
 689 0036 1037     		adds	r7, r7, #16
 690              		.cfi_def_cfa_offset 8
 691 0038 BD46     		mov	sp, r7
 692              		.cfi_def_cfa_register 13
 693              		@ sp needed
 694 003a 80BD     		pop	{r7, pc}
 695              	.L45:
 696              		.align	2
 697              	.L44:
 698 003c 00000000 		.word	UART_3_initVar
 699              		.cfi_endproc
 700              	.LFE10:
 701              		.size	UART_3_PutString, .-UART_3_PutString
 702              		.section	.text.UART_3_PutArray,"ax",%progbits
 703              		.align	2
 704              		.global	UART_3_PutArray
 705              		.thumb
 706              		.thumb_func
 707              		.type	UART_3_PutArray, %function
 708              	UART_3_PutArray:
 709              	.LFB11:
1160:.\Generated_Source\PSoC5/UART_3.c **** 
1161:.\Generated_Source\PSoC5/UART_3.c **** 
1162:.\Generated_Source\PSoC5/UART_3.c ****     /*******************************************************************************
1163:.\Generated_Source\PSoC5/UART_3.c ****     * Function Name: UART_3_PutArray
1164:.\Generated_Source\PSoC5/UART_3.c ****     ********************************************************************************
1165:.\Generated_Source\PSoC5/UART_3.c ****     *
1166:.\Generated_Source\PSoC5/UART_3.c ****     * Summary:
1167:.\Generated_Source\PSoC5/UART_3.c ****     *  Places N bytes of data from a memory array into the TX buffer for
1168:.\Generated_Source\PSoC5/UART_3.c ****     *  transmission.
ARM GAS  C:\Users\kingi\AppData\Local\Temp\ccQc3vxb.s 			page 34


1169:.\Generated_Source\PSoC5/UART_3.c ****     *
1170:.\Generated_Source\PSoC5/UART_3.c ****     * Parameters:
1171:.\Generated_Source\PSoC5/UART_3.c ****     *  string[]: Address of the memory array residing in RAM or ROM.
1172:.\Generated_Source\PSoC5/UART_3.c ****     *  byteCount: Number of bytes to be transmitted. The type depends on TX Buffer
1173:.\Generated_Source\PSoC5/UART_3.c ****     *             Size parameter.
1174:.\Generated_Source\PSoC5/UART_3.c ****     *
1175:.\Generated_Source\PSoC5/UART_3.c ****     * Return:
1176:.\Generated_Source\PSoC5/UART_3.c ****     *  None.
1177:.\Generated_Source\PSoC5/UART_3.c ****     *
1178:.\Generated_Source\PSoC5/UART_3.c ****     * Global Variables:
1179:.\Generated_Source\PSoC5/UART_3.c ****     *  UART_3_initVar - checked to identify that the component has been
1180:.\Generated_Source\PSoC5/UART_3.c ****     *     initialized.
1181:.\Generated_Source\PSoC5/UART_3.c ****     *
1182:.\Generated_Source\PSoC5/UART_3.c ****     * Reentrant:
1183:.\Generated_Source\PSoC5/UART_3.c ****     *  No.
1184:.\Generated_Source\PSoC5/UART_3.c ****     *
1185:.\Generated_Source\PSoC5/UART_3.c ****     * Theory:
1186:.\Generated_Source\PSoC5/UART_3.c ****     *  If there is not enough memory in the TX buffer for the entire string, this
1187:.\Generated_Source\PSoC5/UART_3.c ****     *  function blocks until the last character of the string is loaded into the
1188:.\Generated_Source\PSoC5/UART_3.c ****     *  TX buffer.
1189:.\Generated_Source\PSoC5/UART_3.c ****     *
1190:.\Generated_Source\PSoC5/UART_3.c ****     *******************************************************************************/
1191:.\Generated_Source\PSoC5/UART_3.c ****     void UART_3_PutArray(const uint8 string[], uint8 byteCount)
1192:.\Generated_Source\PSoC5/UART_3.c ****                                                                     
1193:.\Generated_Source\PSoC5/UART_3.c ****     {
 710              		.loc 1 1193 0
 711              		.cfi_startproc
 712              		@ args = 0, pretend = 0, frame = 16
 713              		@ frame_needed = 1, uses_anonymous_args = 0
 714 0000 80B5     		push	{r7, lr}
 715              		.cfi_def_cfa_offset 8
 716              		.cfi_offset 7, -8
 717              		.cfi_offset 14, -4
 718 0002 84B0     		sub	sp, sp, #16
 719              		.cfi_def_cfa_offset 24
 720 0004 00AF     		add	r7, sp, #0
 721              		.cfi_def_cfa_register 7
 722 0006 7860     		str	r0, [r7, #4]
 723 0008 0B46     		mov	r3, r1
 724 000a FB70     		strb	r3, [r7, #3]
1194:.\Generated_Source\PSoC5/UART_3.c ****         uint8 bufIndex = 0u;
 725              		.loc 1 1194 0
 726 000c 0023     		movs	r3, #0
 727 000e FB73     		strb	r3, [r7, #15]
1195:.\Generated_Source\PSoC5/UART_3.c **** 
1196:.\Generated_Source\PSoC5/UART_3.c ****         /* If not Initialized then skip this function */
1197:.\Generated_Source\PSoC5/UART_3.c ****         if(UART_3_initVar != 0u)
 728              		.loc 1 1197 0
 729 0010 0A4B     		ldr	r3, .L50
 730 0012 1B78     		ldrb	r3, [r3]	@ zero_extendqisi2
 731 0014 002B     		cmp	r3, #0
 732 0016 0ED0     		beq	.L46
1198:.\Generated_Source\PSoC5/UART_3.c ****         {
1199:.\Generated_Source\PSoC5/UART_3.c ****             while(bufIndex < byteCount)
 733              		.loc 1 1199 0
 734 0018 09E0     		b	.L48
 735              	.L49:
ARM GAS  C:\Users\kingi\AppData\Local\Temp\ccQc3vxb.s 			page 35


1200:.\Generated_Source\PSoC5/UART_3.c ****             {
1201:.\Generated_Source\PSoC5/UART_3.c ****                 UART_3_PutChar(string[bufIndex]);
 736              		.loc 1 1201 0
 737 001a FB7B     		ldrb	r3, [r7, #15]	@ zero_extendqisi2
 738 001c 7A68     		ldr	r2, [r7, #4]
 739 001e 1344     		add	r3, r3, r2
 740 0020 1B78     		ldrb	r3, [r3]	@ zero_extendqisi2
 741 0022 1846     		mov	r0, r3
 742 0024 FFF7FEFF 		bl	UART_3_PutChar
1202:.\Generated_Source\PSoC5/UART_3.c ****                 bufIndex++;
 743              		.loc 1 1202 0
 744 0028 FB7B     		ldrb	r3, [r7, #15]	@ zero_extendqisi2
 745 002a 0133     		adds	r3, r3, #1
 746 002c FB73     		strb	r3, [r7, #15]
 747              	.L48:
1199:.\Generated_Source\PSoC5/UART_3.c ****             {
 748              		.loc 1 1199 0
 749 002e FA7B     		ldrb	r2, [r7, #15]	@ zero_extendqisi2
 750 0030 FB78     		ldrb	r3, [r7, #3]	@ zero_extendqisi2
 751 0032 9A42     		cmp	r2, r3
 752 0034 F1D3     		bcc	.L49
 753              	.L46:
1203:.\Generated_Source\PSoC5/UART_3.c ****             }
1204:.\Generated_Source\PSoC5/UART_3.c ****         }
1205:.\Generated_Source\PSoC5/UART_3.c ****     }
 754              		.loc 1 1205 0
 755 0036 1037     		adds	r7, r7, #16
 756              		.cfi_def_cfa_offset 8
 757 0038 BD46     		mov	sp, r7
 758              		.cfi_def_cfa_register 13
 759              		@ sp needed
 760 003a 80BD     		pop	{r7, pc}
 761              	.L51:
 762              		.align	2
 763              	.L50:
 764 003c 00000000 		.word	UART_3_initVar
 765              		.cfi_endproc
 766              	.LFE11:
 767              		.size	UART_3_PutArray, .-UART_3_PutArray
 768              		.section	.text.UART_3_PutCRLF,"ax",%progbits
 769              		.align	2
 770              		.global	UART_3_PutCRLF
 771              		.thumb
 772              		.thumb_func
 773              		.type	UART_3_PutCRLF, %function
 774              	UART_3_PutCRLF:
 775              	.LFB12:
1206:.\Generated_Source\PSoC5/UART_3.c **** 
1207:.\Generated_Source\PSoC5/UART_3.c **** 
1208:.\Generated_Source\PSoC5/UART_3.c ****     /*******************************************************************************
1209:.\Generated_Source\PSoC5/UART_3.c ****     * Function Name: UART_3_PutCRLF
1210:.\Generated_Source\PSoC5/UART_3.c ****     ********************************************************************************
1211:.\Generated_Source\PSoC5/UART_3.c ****     *
1212:.\Generated_Source\PSoC5/UART_3.c ****     * Summary:
1213:.\Generated_Source\PSoC5/UART_3.c ****     *  Writes a byte of data followed by a carriage return (0x0D) and line feed
1214:.\Generated_Source\PSoC5/UART_3.c ****     *  (0x0A) to the transmit buffer.
1215:.\Generated_Source\PSoC5/UART_3.c ****     *
ARM GAS  C:\Users\kingi\AppData\Local\Temp\ccQc3vxb.s 			page 36


1216:.\Generated_Source\PSoC5/UART_3.c ****     * Parameters:
1217:.\Generated_Source\PSoC5/UART_3.c ****     *  txDataByte: Data byte to transmit before the carriage return and line feed.
1218:.\Generated_Source\PSoC5/UART_3.c ****     *
1219:.\Generated_Source\PSoC5/UART_3.c ****     * Return:
1220:.\Generated_Source\PSoC5/UART_3.c ****     *  None.
1221:.\Generated_Source\PSoC5/UART_3.c ****     *
1222:.\Generated_Source\PSoC5/UART_3.c ****     * Global Variables:
1223:.\Generated_Source\PSoC5/UART_3.c ****     *  UART_3_initVar - checked to identify that the component has been
1224:.\Generated_Source\PSoC5/UART_3.c ****     *     initialized.
1225:.\Generated_Source\PSoC5/UART_3.c ****     *
1226:.\Generated_Source\PSoC5/UART_3.c ****     * Reentrant:
1227:.\Generated_Source\PSoC5/UART_3.c ****     *  No.
1228:.\Generated_Source\PSoC5/UART_3.c ****     *
1229:.\Generated_Source\PSoC5/UART_3.c ****     *******************************************************************************/
1230:.\Generated_Source\PSoC5/UART_3.c ****     void UART_3_PutCRLF(uint8 txDataByte) 
1231:.\Generated_Source\PSoC5/UART_3.c ****     {
 776              		.loc 1 1231 0
 777              		.cfi_startproc
 778              		@ args = 0, pretend = 0, frame = 8
 779              		@ frame_needed = 1, uses_anonymous_args = 0
 780 0000 80B5     		push	{r7, lr}
 781              		.cfi_def_cfa_offset 8
 782              		.cfi_offset 7, -8
 783              		.cfi_offset 14, -4
 784 0002 82B0     		sub	sp, sp, #8
 785              		.cfi_def_cfa_offset 16
 786 0004 00AF     		add	r7, sp, #0
 787              		.cfi_def_cfa_register 7
 788 0006 0346     		mov	r3, r0
 789 0008 FB71     		strb	r3, [r7, #7]
1232:.\Generated_Source\PSoC5/UART_3.c ****         /* If not Initialized then skip this function */
1233:.\Generated_Source\PSoC5/UART_3.c ****         if(UART_3_initVar != 0u)
 790              		.loc 1 1233 0
 791 000a 084B     		ldr	r3, .L54
 792 000c 1B78     		ldrb	r3, [r3]	@ zero_extendqisi2
 793 000e 002B     		cmp	r3, #0
 794 0010 09D0     		beq	.L52
1234:.\Generated_Source\PSoC5/UART_3.c ****         {
1235:.\Generated_Source\PSoC5/UART_3.c ****             UART_3_PutChar(txDataByte);
 795              		.loc 1 1235 0
 796 0012 FB79     		ldrb	r3, [r7, #7]	@ zero_extendqisi2
 797 0014 1846     		mov	r0, r3
 798 0016 FFF7FEFF 		bl	UART_3_PutChar
1236:.\Generated_Source\PSoC5/UART_3.c ****             UART_3_PutChar(0x0Du);
 799              		.loc 1 1236 0
 800 001a 0D20     		movs	r0, #13
 801 001c FFF7FEFF 		bl	UART_3_PutChar
1237:.\Generated_Source\PSoC5/UART_3.c ****             UART_3_PutChar(0x0Au);
 802              		.loc 1 1237 0
 803 0020 0A20     		movs	r0, #10
 804 0022 FFF7FEFF 		bl	UART_3_PutChar
 805              	.L52:
1238:.\Generated_Source\PSoC5/UART_3.c ****         }
1239:.\Generated_Source\PSoC5/UART_3.c ****     }
 806              		.loc 1 1239 0
 807 0026 0837     		adds	r7, r7, #8
 808              		.cfi_def_cfa_offset 8
ARM GAS  C:\Users\kingi\AppData\Local\Temp\ccQc3vxb.s 			page 37


 809 0028 BD46     		mov	sp, r7
 810              		.cfi_def_cfa_register 13
 811              		@ sp needed
 812 002a 80BD     		pop	{r7, pc}
 813              	.L55:
 814              		.align	2
 815              	.L54:
 816 002c 00000000 		.word	UART_3_initVar
 817              		.cfi_endproc
 818              	.LFE12:
 819              		.size	UART_3_PutCRLF, .-UART_3_PutCRLF
 820              		.section	.text.UART_3_GetTxBufferSize,"ax",%progbits
 821              		.align	2
 822              		.global	UART_3_GetTxBufferSize
 823              		.thumb
 824              		.thumb_func
 825              		.type	UART_3_GetTxBufferSize, %function
 826              	UART_3_GetTxBufferSize:
 827              	.LFB13:
1240:.\Generated_Source\PSoC5/UART_3.c **** 
1241:.\Generated_Source\PSoC5/UART_3.c **** 
1242:.\Generated_Source\PSoC5/UART_3.c ****     /*******************************************************************************
1243:.\Generated_Source\PSoC5/UART_3.c ****     * Function Name: UART_3_GetTxBufferSize
1244:.\Generated_Source\PSoC5/UART_3.c ****     ********************************************************************************
1245:.\Generated_Source\PSoC5/UART_3.c ****     *
1246:.\Generated_Source\PSoC5/UART_3.c ****     * Summary:
1247:.\Generated_Source\PSoC5/UART_3.c ****     *  Returns the number of bytes in the TX buffer which are waiting to be 
1248:.\Generated_Source\PSoC5/UART_3.c ****     *  transmitted.
1249:.\Generated_Source\PSoC5/UART_3.c ****     *  * TX software buffer is disabled (TX Buffer Size parameter is equal to 4): 
1250:.\Generated_Source\PSoC5/UART_3.c ****     *    returns 0 for empty TX FIFO, 1 for not full TX FIFO or 4 for full TX FIFO.
1251:.\Generated_Source\PSoC5/UART_3.c ****     *  * TX software buffer is enabled: returns the number of bytes in the TX 
1252:.\Generated_Source\PSoC5/UART_3.c ****     *    software buffer which are waiting to be transmitted. Bytes available in the
1253:.\Generated_Source\PSoC5/UART_3.c ****     *    TX FIFO do not count.
1254:.\Generated_Source\PSoC5/UART_3.c ****     *
1255:.\Generated_Source\PSoC5/UART_3.c ****     * Parameters:
1256:.\Generated_Source\PSoC5/UART_3.c ****     *  None.
1257:.\Generated_Source\PSoC5/UART_3.c ****     *
1258:.\Generated_Source\PSoC5/UART_3.c ****     * Return:
1259:.\Generated_Source\PSoC5/UART_3.c ****     *  Number of bytes used in the TX buffer. Return value type depends on the TX 
1260:.\Generated_Source\PSoC5/UART_3.c ****     *  Buffer Size parameter.
1261:.\Generated_Source\PSoC5/UART_3.c ****     *
1262:.\Generated_Source\PSoC5/UART_3.c ****     * Global Variables:
1263:.\Generated_Source\PSoC5/UART_3.c ****     *  UART_3_txBufferWrite - used to calculate left space.
1264:.\Generated_Source\PSoC5/UART_3.c ****     *  UART_3_txBufferRead - used to calculate left space.
1265:.\Generated_Source\PSoC5/UART_3.c ****     *
1266:.\Generated_Source\PSoC5/UART_3.c ****     * Reentrant:
1267:.\Generated_Source\PSoC5/UART_3.c ****     *  No.
1268:.\Generated_Source\PSoC5/UART_3.c ****     *
1269:.\Generated_Source\PSoC5/UART_3.c ****     * Theory:
1270:.\Generated_Source\PSoC5/UART_3.c ****     *  Allows the user to find out how full the TX Buffer is.
1271:.\Generated_Source\PSoC5/UART_3.c ****     *
1272:.\Generated_Source\PSoC5/UART_3.c ****     *******************************************************************************/
1273:.\Generated_Source\PSoC5/UART_3.c ****     uint8 UART_3_GetTxBufferSize(void)
1274:.\Generated_Source\PSoC5/UART_3.c ****                                                             
1275:.\Generated_Source\PSoC5/UART_3.c ****     {
 828              		.loc 1 1275 0
 829              		.cfi_startproc
ARM GAS  C:\Users\kingi\AppData\Local\Temp\ccQc3vxb.s 			page 38


 830              		@ args = 0, pretend = 0, frame = 8
 831              		@ frame_needed = 1, uses_anonymous_args = 0
 832              		@ link register save eliminated.
 833 0000 80B4     		push	{r7}
 834              		.cfi_def_cfa_offset 4
 835              		.cfi_offset 7, -4
 836 0002 83B0     		sub	sp, sp, #12
 837              		.cfi_def_cfa_offset 16
 838 0004 00AF     		add	r7, sp, #0
 839              		.cfi_def_cfa_register 7
1276:.\Generated_Source\PSoC5/UART_3.c ****         uint8 size;
1277:.\Generated_Source\PSoC5/UART_3.c **** 
1278:.\Generated_Source\PSoC5/UART_3.c ****     #if (UART_3_TX_INTERRUPT_ENABLED)
1279:.\Generated_Source\PSoC5/UART_3.c **** 
1280:.\Generated_Source\PSoC5/UART_3.c ****         /* Protect variables that could change on interrupt. */
1281:.\Generated_Source\PSoC5/UART_3.c ****         UART_3_DisableTxInt();
 840              		.loc 1 1281 0
 841 0006 174B     		ldr	r3, .L61
 842 0008 1022     		movs	r2, #16
 843 000a 1A60     		str	r2, [r3]
1282:.\Generated_Source\PSoC5/UART_3.c **** 
1283:.\Generated_Source\PSoC5/UART_3.c ****         if(UART_3_txBufferRead == UART_3_txBufferWrite)
 844              		.loc 1 1283 0
 845 000c 164B     		ldr	r3, .L61+4
 846 000e 1B78     		ldrb	r3, [r3]
 847 0010 DAB2     		uxtb	r2, r3
 848 0012 164B     		ldr	r3, .L61+8
 849 0014 1B78     		ldrb	r3, [r3]	@ zero_extendqisi2
 850 0016 9A42     		cmp	r2, r3
 851 0018 02D1     		bne	.L57
1284:.\Generated_Source\PSoC5/UART_3.c ****         {
1285:.\Generated_Source\PSoC5/UART_3.c ****             size = 0u;
 852              		.loc 1 1285 0
 853 001a 0023     		movs	r3, #0
 854 001c FB71     		strb	r3, [r7, #7]
 855 001e 17E0     		b	.L58
 856              	.L57:
1286:.\Generated_Source\PSoC5/UART_3.c ****         }
1287:.\Generated_Source\PSoC5/UART_3.c ****         else if(UART_3_txBufferRead < UART_3_txBufferWrite)
 857              		.loc 1 1287 0
 858 0020 114B     		ldr	r3, .L61+4
 859 0022 1B78     		ldrb	r3, [r3]
 860 0024 DAB2     		uxtb	r2, r3
 861 0026 114B     		ldr	r3, .L61+8
 862 0028 1B78     		ldrb	r3, [r3]	@ zero_extendqisi2
 863 002a 9A42     		cmp	r2, r3
 864 002c 07D2     		bcs	.L59
1288:.\Generated_Source\PSoC5/UART_3.c ****         {
1289:.\Generated_Source\PSoC5/UART_3.c ****             size = (UART_3_txBufferWrite - UART_3_txBufferRead);
 865              		.loc 1 1289 0
 866 002e 0F4B     		ldr	r3, .L61+8
 867 0030 1A78     		ldrb	r2, [r3]	@ zero_extendqisi2
 868 0032 0D4B     		ldr	r3, .L61+4
 869 0034 1B78     		ldrb	r3, [r3]
 870 0036 DBB2     		uxtb	r3, r3
 871 0038 D31A     		subs	r3, r2, r3
 872 003a FB71     		strb	r3, [r7, #7]
ARM GAS  C:\Users\kingi\AppData\Local\Temp\ccQc3vxb.s 			page 39


 873 003c 08E0     		b	.L58
 874              	.L59:
1290:.\Generated_Source\PSoC5/UART_3.c ****         }
1291:.\Generated_Source\PSoC5/UART_3.c ****         else
1292:.\Generated_Source\PSoC5/UART_3.c ****         {
1293:.\Generated_Source\PSoC5/UART_3.c ****             size = (UART_3_TX_BUFFER_SIZE - UART_3_txBufferRead) +
 875              		.loc 1 1293 0
 876 003e 0B4B     		ldr	r3, .L61+8
 877 0040 1A78     		ldrb	r2, [r3]	@ zero_extendqisi2
 878 0042 094B     		ldr	r3, .L61+4
 879 0044 1B78     		ldrb	r3, [r3]
 880 0046 DBB2     		uxtb	r3, r3
 881 0048 D31A     		subs	r3, r2, r3
 882 004a DBB2     		uxtb	r3, r3
 883 004c 1B33     		adds	r3, r3, #27
 884 004e FB71     		strb	r3, [r7, #7]
 885              	.L58:
1294:.\Generated_Source\PSoC5/UART_3.c ****                     UART_3_txBufferWrite;
1295:.\Generated_Source\PSoC5/UART_3.c ****         }
1296:.\Generated_Source\PSoC5/UART_3.c **** 
1297:.\Generated_Source\PSoC5/UART_3.c ****         UART_3_EnableTxInt();
 886              		.loc 1 1297 0
 887 0050 074B     		ldr	r3, .L61+12
 888 0052 1022     		movs	r2, #16
 889 0054 1A60     		str	r2, [r3]
1298:.\Generated_Source\PSoC5/UART_3.c **** 
1299:.\Generated_Source\PSoC5/UART_3.c ****     #else
1300:.\Generated_Source\PSoC5/UART_3.c **** 
1301:.\Generated_Source\PSoC5/UART_3.c ****         size = UART_3_TXSTATUS_REG;
1302:.\Generated_Source\PSoC5/UART_3.c **** 
1303:.\Generated_Source\PSoC5/UART_3.c ****         /* Is the fifo is full. */
1304:.\Generated_Source\PSoC5/UART_3.c ****         if((size & UART_3_TX_STS_FIFO_FULL) != 0u)
1305:.\Generated_Source\PSoC5/UART_3.c ****         {
1306:.\Generated_Source\PSoC5/UART_3.c ****             size = UART_3_FIFO_LENGTH;
1307:.\Generated_Source\PSoC5/UART_3.c ****         }
1308:.\Generated_Source\PSoC5/UART_3.c ****         else if((size & UART_3_TX_STS_FIFO_EMPTY) != 0u)
1309:.\Generated_Source\PSoC5/UART_3.c ****         {
1310:.\Generated_Source\PSoC5/UART_3.c ****             size = 0u;
1311:.\Generated_Source\PSoC5/UART_3.c ****         }
1312:.\Generated_Source\PSoC5/UART_3.c ****         else
1313:.\Generated_Source\PSoC5/UART_3.c ****         {
1314:.\Generated_Source\PSoC5/UART_3.c ****             /* We only know there is data in the fifo. */
1315:.\Generated_Source\PSoC5/UART_3.c ****             size = 1u;
1316:.\Generated_Source\PSoC5/UART_3.c ****         }
1317:.\Generated_Source\PSoC5/UART_3.c **** 
1318:.\Generated_Source\PSoC5/UART_3.c ****     #endif /* (UART_3_TX_INTERRUPT_ENABLED) */
1319:.\Generated_Source\PSoC5/UART_3.c **** 
1320:.\Generated_Source\PSoC5/UART_3.c ****     return(size);
 890              		.loc 1 1320 0
 891 0056 FB79     		ldrb	r3, [r7, #7]	@ zero_extendqisi2
1321:.\Generated_Source\PSoC5/UART_3.c ****     }
 892              		.loc 1 1321 0
 893 0058 1846     		mov	r0, r3
 894 005a 0C37     		adds	r7, r7, #12
 895              		.cfi_def_cfa_offset 4
 896 005c BD46     		mov	sp, r7
 897              		.cfi_def_cfa_register 13
ARM GAS  C:\Users\kingi\AppData\Local\Temp\ccQc3vxb.s 			page 40


 898              		@ sp needed
 899 005e 5DF8047B 		ldr	r7, [sp], #4
 900              		.cfi_restore 7
 901              		.cfi_def_cfa_offset 0
 902 0062 7047     		bx	lr
 903              	.L62:
 904              		.align	2
 905              	.L61:
 906 0064 80E100E0 		.word	-536813184
 907 0068 00000000 		.word	UART_3_txBufferRead
 908 006c 00000000 		.word	UART_3_txBufferWrite
 909 0070 00E100E0 		.word	-536813312
 910              		.cfi_endproc
 911              	.LFE13:
 912              		.size	UART_3_GetTxBufferSize, .-UART_3_GetTxBufferSize
 913              		.section	.text.UART_3_ClearTxBuffer,"ax",%progbits
 914              		.align	2
 915              		.global	UART_3_ClearTxBuffer
 916              		.thumb
 917              		.thumb_func
 918              		.type	UART_3_ClearTxBuffer, %function
 919              	UART_3_ClearTxBuffer:
 920              	.LFB14:
1322:.\Generated_Source\PSoC5/UART_3.c **** 
1323:.\Generated_Source\PSoC5/UART_3.c **** 
1324:.\Generated_Source\PSoC5/UART_3.c ****     /*******************************************************************************
1325:.\Generated_Source\PSoC5/UART_3.c ****     * Function Name: UART_3_ClearTxBuffer
1326:.\Generated_Source\PSoC5/UART_3.c ****     ********************************************************************************
1327:.\Generated_Source\PSoC5/UART_3.c ****     *
1328:.\Generated_Source\PSoC5/UART_3.c ****     * Summary:
1329:.\Generated_Source\PSoC5/UART_3.c ****     *  Clears all data from the TX buffer and hardware TX FIFO.
1330:.\Generated_Source\PSoC5/UART_3.c ****     *
1331:.\Generated_Source\PSoC5/UART_3.c ****     * Parameters:
1332:.\Generated_Source\PSoC5/UART_3.c ****     *  None.
1333:.\Generated_Source\PSoC5/UART_3.c ****     *
1334:.\Generated_Source\PSoC5/UART_3.c ****     * Return:
1335:.\Generated_Source\PSoC5/UART_3.c ****     *  None.
1336:.\Generated_Source\PSoC5/UART_3.c ****     *
1337:.\Generated_Source\PSoC5/UART_3.c ****     * Global Variables:
1338:.\Generated_Source\PSoC5/UART_3.c ****     *  UART_3_txBufferWrite - cleared to zero.
1339:.\Generated_Source\PSoC5/UART_3.c ****     *  UART_3_txBufferRead - cleared to zero.
1340:.\Generated_Source\PSoC5/UART_3.c ****     *
1341:.\Generated_Source\PSoC5/UART_3.c ****     * Reentrant:
1342:.\Generated_Source\PSoC5/UART_3.c ****     *  No.
1343:.\Generated_Source\PSoC5/UART_3.c ****     *
1344:.\Generated_Source\PSoC5/UART_3.c ****     * Theory:
1345:.\Generated_Source\PSoC5/UART_3.c ****     *  Setting the pointers to zero makes the system believe there is no data to
1346:.\Generated_Source\PSoC5/UART_3.c ****     *  read and writing will resume at address 0 overwriting any data that may have
1347:.\Generated_Source\PSoC5/UART_3.c ****     *  remained in the RAM.
1348:.\Generated_Source\PSoC5/UART_3.c ****     *
1349:.\Generated_Source\PSoC5/UART_3.c ****     * Side Effects:
1350:.\Generated_Source\PSoC5/UART_3.c ****     *  Data waiting in the transmit buffer is not sent; a byte that is currently
1351:.\Generated_Source\PSoC5/UART_3.c ****     *  transmitting finishes transmitting.
1352:.\Generated_Source\PSoC5/UART_3.c ****     *
1353:.\Generated_Source\PSoC5/UART_3.c ****     *******************************************************************************/
1354:.\Generated_Source\PSoC5/UART_3.c ****     void UART_3_ClearTxBuffer(void) 
1355:.\Generated_Source\PSoC5/UART_3.c ****     {
ARM GAS  C:\Users\kingi\AppData\Local\Temp\ccQc3vxb.s 			page 41


 921              		.loc 1 1355 0
 922              		.cfi_startproc
 923              		@ args = 0, pretend = 0, frame = 8
 924              		@ frame_needed = 1, uses_anonymous_args = 0
 925 0000 80B5     		push	{r7, lr}
 926              		.cfi_def_cfa_offset 8
 927              		.cfi_offset 7, -8
 928              		.cfi_offset 14, -4
 929 0002 82B0     		sub	sp, sp, #8
 930              		.cfi_def_cfa_offset 16
 931 0004 00AF     		add	r7, sp, #0
 932              		.cfi_def_cfa_register 7
1356:.\Generated_Source\PSoC5/UART_3.c ****         uint8 enableInterrupts;
1357:.\Generated_Source\PSoC5/UART_3.c **** 
1358:.\Generated_Source\PSoC5/UART_3.c ****         enableInterrupts = CyEnterCriticalSection();
 933              		.loc 1 1358 0
 934 0006 FFF7FEFF 		bl	CyEnterCriticalSection
 935 000a 0346     		mov	r3, r0
 936 000c FB71     		strb	r3, [r7, #7]
1359:.\Generated_Source\PSoC5/UART_3.c ****         /* Clear the HW FIFO */
1360:.\Generated_Source\PSoC5/UART_3.c ****         UART_3_TXDATA_AUX_CTL_REG |= (uint8)  UART_3_TX_FIFO_CLR;
 937              		.loc 1 1360 0
 938 000e 114A     		ldr	r2, .L64
 939 0010 104B     		ldr	r3, .L64
 940 0012 1B78     		ldrb	r3, [r3]
 941 0014 DBB2     		uxtb	r3, r3
 942 0016 43F00103 		orr	r3, r3, #1
 943 001a DBB2     		uxtb	r3, r3
 944 001c 1370     		strb	r3, [r2]
1361:.\Generated_Source\PSoC5/UART_3.c ****         UART_3_TXDATA_AUX_CTL_REG &= (uint8) ~UART_3_TX_FIFO_CLR;
 945              		.loc 1 1361 0
 946 001e 0D4A     		ldr	r2, .L64
 947 0020 0C4B     		ldr	r3, .L64
 948 0022 1B78     		ldrb	r3, [r3]
 949 0024 DBB2     		uxtb	r3, r3
 950 0026 23F00103 		bic	r3, r3, #1
 951 002a DBB2     		uxtb	r3, r3
 952 002c 1370     		strb	r3, [r2]
1362:.\Generated_Source\PSoC5/UART_3.c ****         CyExitCriticalSection(enableInterrupts);
 953              		.loc 1 1362 0
 954 002e FB79     		ldrb	r3, [r7, #7]	@ zero_extendqisi2
 955 0030 1846     		mov	r0, r3
 956 0032 FFF7FEFF 		bl	CyExitCriticalSection
1363:.\Generated_Source\PSoC5/UART_3.c **** 
1364:.\Generated_Source\PSoC5/UART_3.c ****     #if (UART_3_TX_INTERRUPT_ENABLED)
1365:.\Generated_Source\PSoC5/UART_3.c **** 
1366:.\Generated_Source\PSoC5/UART_3.c ****         /* Protect variables that could change on interrupt. */
1367:.\Generated_Source\PSoC5/UART_3.c ****         UART_3_DisableTxInt();
 957              		.loc 1 1367 0
 958 0036 084B     		ldr	r3, .L64+4
 959 0038 1022     		movs	r2, #16
 960 003a 1A60     		str	r2, [r3]
1368:.\Generated_Source\PSoC5/UART_3.c **** 
1369:.\Generated_Source\PSoC5/UART_3.c ****         UART_3_txBufferRead = 0u;
 961              		.loc 1 1369 0
 962 003c 074B     		ldr	r3, .L64+8
 963 003e 0022     		movs	r2, #0
ARM GAS  C:\Users\kingi\AppData\Local\Temp\ccQc3vxb.s 			page 42


 964 0040 1A70     		strb	r2, [r3]
1370:.\Generated_Source\PSoC5/UART_3.c ****         UART_3_txBufferWrite = 0u;
 965              		.loc 1 1370 0
 966 0042 074B     		ldr	r3, .L64+12
 967 0044 0022     		movs	r2, #0
 968 0046 1A70     		strb	r2, [r3]
1371:.\Generated_Source\PSoC5/UART_3.c **** 
1372:.\Generated_Source\PSoC5/UART_3.c ****         /* Enable Tx interrupt. */
1373:.\Generated_Source\PSoC5/UART_3.c ****         UART_3_EnableTxInt();
 969              		.loc 1 1373 0
 970 0048 064B     		ldr	r3, .L64+16
 971 004a 1022     		movs	r2, #16
 972 004c 1A60     		str	r2, [r3]
1374:.\Generated_Source\PSoC5/UART_3.c **** 
1375:.\Generated_Source\PSoC5/UART_3.c ****     #endif /* (UART_3_TX_INTERRUPT_ENABLED) */
1376:.\Generated_Source\PSoC5/UART_3.c ****     }
 973              		.loc 1 1376 0
 974 004e 0837     		adds	r7, r7, #8
 975              		.cfi_def_cfa_offset 8
 976 0050 BD46     		mov	sp, r7
 977              		.cfi_def_cfa_register 13
 978              		@ sp needed
 979 0052 80BD     		pop	{r7, pc}
 980              	.L65:
 981              		.align	2
 982              	.L64:
 983 0054 96650040 		.word	1073767830
 984 0058 80E100E0 		.word	-536813184
 985 005c 00000000 		.word	UART_3_txBufferRead
 986 0060 00000000 		.word	UART_3_txBufferWrite
 987 0064 00E100E0 		.word	-536813312
 988              		.cfi_endproc
 989              	.LFE14:
 990              		.size	UART_3_ClearTxBuffer, .-UART_3_ClearTxBuffer
 991              		.section	.text.UART_3_SendBreak,"ax",%progbits
 992              		.align	2
 993              		.global	UART_3_SendBreak
 994              		.thumb
 995              		.thumb_func
 996              		.type	UART_3_SendBreak, %function
 997              	UART_3_SendBreak:
 998              	.LFB15:
1377:.\Generated_Source\PSoC5/UART_3.c **** 
1378:.\Generated_Source\PSoC5/UART_3.c **** 
1379:.\Generated_Source\PSoC5/UART_3.c ****     /*******************************************************************************
1380:.\Generated_Source\PSoC5/UART_3.c ****     * Function Name: UART_3_SendBreak
1381:.\Generated_Source\PSoC5/UART_3.c ****     ********************************************************************************
1382:.\Generated_Source\PSoC5/UART_3.c ****     *
1383:.\Generated_Source\PSoC5/UART_3.c ****     * Summary:
1384:.\Generated_Source\PSoC5/UART_3.c ****     *  Transmits a break signal on the bus.
1385:.\Generated_Source\PSoC5/UART_3.c ****     *
1386:.\Generated_Source\PSoC5/UART_3.c ****     * Parameters:
1387:.\Generated_Source\PSoC5/UART_3.c ****     *  uint8 retMode:  Send Break return mode. See the following table for options.
1388:.\Generated_Source\PSoC5/UART_3.c ****     *   UART_3_SEND_BREAK - Initialize registers for break, send the Break
1389:.\Generated_Source\PSoC5/UART_3.c ****     *       signal and return immediately.
1390:.\Generated_Source\PSoC5/UART_3.c ****     *   UART_3_WAIT_FOR_COMPLETE_REINIT - Wait until break transmission is
1391:.\Generated_Source\PSoC5/UART_3.c ****     *       complete, reinitialize registers to normal transmission mode then return
ARM GAS  C:\Users\kingi\AppData\Local\Temp\ccQc3vxb.s 			page 43


1392:.\Generated_Source\PSoC5/UART_3.c ****     *   UART_3_REINIT - Reinitialize registers to normal transmission mode
1393:.\Generated_Source\PSoC5/UART_3.c ****     *       then return.
1394:.\Generated_Source\PSoC5/UART_3.c ****     *   UART_3_SEND_WAIT_REINIT - Performs both options: 
1395:.\Generated_Source\PSoC5/UART_3.c ****     *      UART_3_SEND_BREAK and UART_3_WAIT_FOR_COMPLETE_REINIT.
1396:.\Generated_Source\PSoC5/UART_3.c ****     *      This option is recommended for most cases.
1397:.\Generated_Source\PSoC5/UART_3.c ****     *
1398:.\Generated_Source\PSoC5/UART_3.c ****     * Return:
1399:.\Generated_Source\PSoC5/UART_3.c ****     *  None.
1400:.\Generated_Source\PSoC5/UART_3.c ****     *
1401:.\Generated_Source\PSoC5/UART_3.c ****     * Global Variables:
1402:.\Generated_Source\PSoC5/UART_3.c ****     *  UART_3_initVar - checked to identify that the component has been
1403:.\Generated_Source\PSoC5/UART_3.c ****     *     initialized.
1404:.\Generated_Source\PSoC5/UART_3.c ****     *  txPeriod - static variable, used for keeping TX period configuration.
1405:.\Generated_Source\PSoC5/UART_3.c ****     *
1406:.\Generated_Source\PSoC5/UART_3.c ****     * Reentrant:
1407:.\Generated_Source\PSoC5/UART_3.c ****     *  No.
1408:.\Generated_Source\PSoC5/UART_3.c ****     *
1409:.\Generated_Source\PSoC5/UART_3.c ****     * Theory:
1410:.\Generated_Source\PSoC5/UART_3.c ****     *  SendBreak function initializes registers to send 13-bit break signal. It is
1411:.\Generated_Source\PSoC5/UART_3.c ****     *  important to return the registers configuration to normal for continue 8-bit
1412:.\Generated_Source\PSoC5/UART_3.c ****     *  operation.
1413:.\Generated_Source\PSoC5/UART_3.c ****     *  There are 3 variants for this API usage:
1414:.\Generated_Source\PSoC5/UART_3.c ****     *  1) SendBreak(3) - function will send the Break signal and take care on the
1415:.\Generated_Source\PSoC5/UART_3.c ****     *     configuration returning. Function will block CPU until transmission
1416:.\Generated_Source\PSoC5/UART_3.c ****     *     complete.
1417:.\Generated_Source\PSoC5/UART_3.c ****     *  2) User may want to use blocking time if UART configured to the low speed
1418:.\Generated_Source\PSoC5/UART_3.c ****     *     operation
1419:.\Generated_Source\PSoC5/UART_3.c ****     *     Example for this case:
1420:.\Generated_Source\PSoC5/UART_3.c ****     *     SendBreak(0);     - initialize Break signal transmission
1421:.\Generated_Source\PSoC5/UART_3.c ****     *         Add your code here to use CPU time
1422:.\Generated_Source\PSoC5/UART_3.c ****     *     SendBreak(1);     - complete Break operation
1423:.\Generated_Source\PSoC5/UART_3.c ****     *  3) Same to 2) but user may want to initialize and use the interrupt to
1424:.\Generated_Source\PSoC5/UART_3.c ****     *     complete break operation.
1425:.\Generated_Source\PSoC5/UART_3.c ****     *     Example for this case:
1426:.\Generated_Source\PSoC5/UART_3.c ****     *     Initialize TX interrupt with "TX - On TX Complete" parameter
1427:.\Generated_Source\PSoC5/UART_3.c ****     *     SendBreak(0);     - initialize Break signal transmission
1428:.\Generated_Source\PSoC5/UART_3.c ****     *         Add your code here to use CPU time
1429:.\Generated_Source\PSoC5/UART_3.c ****     *     When interrupt appear with UART_3_TX_STS_COMPLETE status:
1430:.\Generated_Source\PSoC5/UART_3.c ****     *     SendBreak(2);     - complete Break operation
1431:.\Generated_Source\PSoC5/UART_3.c ****     *
1432:.\Generated_Source\PSoC5/UART_3.c ****     * Side Effects:
1433:.\Generated_Source\PSoC5/UART_3.c ****     *  The UART_3_SendBreak() function initializes registers to send a
1434:.\Generated_Source\PSoC5/UART_3.c ****     *  break signal.
1435:.\Generated_Source\PSoC5/UART_3.c ****     *  Break signal length depends on the break signal bits configuration.
1436:.\Generated_Source\PSoC5/UART_3.c ****     *  The register configuration should be reinitialized before normal 8-bit
1437:.\Generated_Source\PSoC5/UART_3.c ****     *  communication can continue.
1438:.\Generated_Source\PSoC5/UART_3.c ****     *
1439:.\Generated_Source\PSoC5/UART_3.c ****     *******************************************************************************/
1440:.\Generated_Source\PSoC5/UART_3.c ****     void UART_3_SendBreak(uint8 retMode) 
1441:.\Generated_Source\PSoC5/UART_3.c ****     {
 999              		.loc 1 1441 0
 1000              		.cfi_startproc
 1001              		@ args = 0, pretend = 0, frame = 16
 1002              		@ frame_needed = 1, uses_anonymous_args = 0
 1003              		@ link register save eliminated.
 1004 0000 80B4     		push	{r7}
 1005              		.cfi_def_cfa_offset 4
ARM GAS  C:\Users\kingi\AppData\Local\Temp\ccQc3vxb.s 			page 44


 1006              		.cfi_offset 7, -4
 1007 0002 85B0     		sub	sp, sp, #20
 1008              		.cfi_def_cfa_offset 24
 1009 0004 00AF     		add	r7, sp, #0
 1010              		.cfi_def_cfa_register 7
 1011 0006 0346     		mov	r3, r0
 1012 0008 FB71     		strb	r3, [r7, #7]
1442:.\Generated_Source\PSoC5/UART_3.c **** 
1443:.\Generated_Source\PSoC5/UART_3.c ****         /* If not Initialized then skip this function*/
1444:.\Generated_Source\PSoC5/UART_3.c ****         if(UART_3_initVar != 0u)
 1013              		.loc 1 1444 0
 1014 000a 1F4B     		ldr	r3, .L74
 1015 000c 1B78     		ldrb	r3, [r3]	@ zero_extendqisi2
 1016 000e 002B     		cmp	r3, #0
 1017 0010 35D0     		beq	.L66
 1018              	.LBB2:
1445:.\Generated_Source\PSoC5/UART_3.c ****         {
1446:.\Generated_Source\PSoC5/UART_3.c ****             /* Set the Counter to 13-bits and transmit a 00 byte */
1447:.\Generated_Source\PSoC5/UART_3.c ****             /* When that is done then reset the counter value back */
1448:.\Generated_Source\PSoC5/UART_3.c ****             uint8 tmpStat;
1449:.\Generated_Source\PSoC5/UART_3.c **** 
1450:.\Generated_Source\PSoC5/UART_3.c ****         #if(UART_3_HD_ENABLED) /* Half Duplex mode*/
1451:.\Generated_Source\PSoC5/UART_3.c **** 
1452:.\Generated_Source\PSoC5/UART_3.c ****             if( (retMode == UART_3_SEND_BREAK) ||
1453:.\Generated_Source\PSoC5/UART_3.c ****                 (retMode == UART_3_SEND_WAIT_REINIT ) )
1454:.\Generated_Source\PSoC5/UART_3.c ****             {
1455:.\Generated_Source\PSoC5/UART_3.c ****                 /* CTRL_HD_SEND_BREAK - sends break bits in HD mode */
1456:.\Generated_Source\PSoC5/UART_3.c ****                 UART_3_WriteControlRegister(UART_3_ReadControlRegister() |
1457:.\Generated_Source\PSoC5/UART_3.c ****                                                       UART_3_CTRL_HD_SEND_BREAK);
1458:.\Generated_Source\PSoC5/UART_3.c ****                 /* Send zeros */
1459:.\Generated_Source\PSoC5/UART_3.c ****                 UART_3_TXDATA_REG = 0u;
1460:.\Generated_Source\PSoC5/UART_3.c **** 
1461:.\Generated_Source\PSoC5/UART_3.c ****                 do /* Wait until transmit starts */
1462:.\Generated_Source\PSoC5/UART_3.c ****                 {
1463:.\Generated_Source\PSoC5/UART_3.c ****                     tmpStat = UART_3_TXSTATUS_REG;
1464:.\Generated_Source\PSoC5/UART_3.c ****                 }
1465:.\Generated_Source\PSoC5/UART_3.c ****                 while((tmpStat & UART_3_TX_STS_FIFO_EMPTY) != 0u);
1466:.\Generated_Source\PSoC5/UART_3.c ****             }
1467:.\Generated_Source\PSoC5/UART_3.c **** 
1468:.\Generated_Source\PSoC5/UART_3.c ****             if( (retMode == UART_3_WAIT_FOR_COMPLETE_REINIT) ||
1469:.\Generated_Source\PSoC5/UART_3.c ****                 (retMode == UART_3_SEND_WAIT_REINIT) )
1470:.\Generated_Source\PSoC5/UART_3.c ****             {
1471:.\Generated_Source\PSoC5/UART_3.c ****                 do /* Wait until transmit complete */
1472:.\Generated_Source\PSoC5/UART_3.c ****                 {
1473:.\Generated_Source\PSoC5/UART_3.c ****                     tmpStat = UART_3_TXSTATUS_REG;
1474:.\Generated_Source\PSoC5/UART_3.c ****                 }
1475:.\Generated_Source\PSoC5/UART_3.c ****                 while(((uint8)~tmpStat & UART_3_TX_STS_COMPLETE) != 0u);
1476:.\Generated_Source\PSoC5/UART_3.c ****             }
1477:.\Generated_Source\PSoC5/UART_3.c **** 
1478:.\Generated_Source\PSoC5/UART_3.c ****             if( (retMode == UART_3_WAIT_FOR_COMPLETE_REINIT) ||
1479:.\Generated_Source\PSoC5/UART_3.c ****                 (retMode == UART_3_REINIT) ||
1480:.\Generated_Source\PSoC5/UART_3.c ****                 (retMode == UART_3_SEND_WAIT_REINIT) )
1481:.\Generated_Source\PSoC5/UART_3.c ****             {
1482:.\Generated_Source\PSoC5/UART_3.c ****                 UART_3_WriteControlRegister(UART_3_ReadControlRegister() &
1483:.\Generated_Source\PSoC5/UART_3.c ****                                               (uint8)~UART_3_CTRL_HD_SEND_BREAK);
1484:.\Generated_Source\PSoC5/UART_3.c ****             }
1485:.\Generated_Source\PSoC5/UART_3.c **** 
ARM GAS  C:\Users\kingi\AppData\Local\Temp\ccQc3vxb.s 			page 45


1486:.\Generated_Source\PSoC5/UART_3.c ****         #else /* UART_3_HD_ENABLED Full Duplex mode */
1487:.\Generated_Source\PSoC5/UART_3.c **** 
1488:.\Generated_Source\PSoC5/UART_3.c ****             static uint8 txPeriod;
1489:.\Generated_Source\PSoC5/UART_3.c **** 
1490:.\Generated_Source\PSoC5/UART_3.c ****             if( (retMode == UART_3_SEND_BREAK) ||
 1019              		.loc 1 1490 0
 1020 0012 FB79     		ldrb	r3, [r7, #7]	@ zero_extendqisi2
 1021 0014 002B     		cmp	r3, #0
 1022 0016 02D0     		beq	.L68
 1023              		.loc 1 1490 0 is_stmt 0 discriminator 1
 1024 0018 FB79     		ldrb	r3, [r7, #7]	@ zero_extendqisi2
 1025 001a 032B     		cmp	r3, #3
 1026 001c 12D1     		bne	.L69
 1027              	.L68:
1491:.\Generated_Source\PSoC5/UART_3.c ****                 (retMode == UART_3_SEND_WAIT_REINIT) )
1492:.\Generated_Source\PSoC5/UART_3.c ****             {
1493:.\Generated_Source\PSoC5/UART_3.c ****                 /* CTRL_HD_SEND_BREAK - skip to send parity bit at Break signal in Full Duplex mode
1494:.\Generated_Source\PSoC5/UART_3.c ****                 #if( (UART_3_PARITY_TYPE != UART_3__B_UART__NONE_REVB) || \
1495:.\Generated_Source\PSoC5/UART_3.c ****                                     (UART_3_PARITY_TYPE_SW != 0u) )
1496:.\Generated_Source\PSoC5/UART_3.c ****                     UART_3_WriteControlRegister(UART_3_ReadControlRegister() |
1497:.\Generated_Source\PSoC5/UART_3.c ****                                                           UART_3_CTRL_HD_SEND_BREAK);
1498:.\Generated_Source\PSoC5/UART_3.c ****                 #endif /* End UART_3_PARITY_TYPE != UART_3__B_UART__NONE_REVB  */
1499:.\Generated_Source\PSoC5/UART_3.c **** 
1500:.\Generated_Source\PSoC5/UART_3.c ****                 #if(UART_3_TXCLKGEN_DP)
1501:.\Generated_Source\PSoC5/UART_3.c ****                     txPeriod = UART_3_TXBITCLKTX_COMPLETE_REG;
 1028              		.loc 1 1501 0 is_stmt 1
 1029 001e 1B4B     		ldr	r3, .L74+4
 1030 0020 1B78     		ldrb	r3, [r3]
 1031 0022 DAB2     		uxtb	r2, r3
 1032 0024 1A4B     		ldr	r3, .L74+8
 1033 0026 1A70     		strb	r2, [r3]
1502:.\Generated_Source\PSoC5/UART_3.c ****                     UART_3_TXBITCLKTX_COMPLETE_REG = UART_3_TXBITCTR_BREAKBITS;
 1034              		.loc 1 1502 0
 1035 0028 184B     		ldr	r3, .L74+4
 1036 002a 6722     		movs	r2, #103
 1037 002c 1A70     		strb	r2, [r3]
1503:.\Generated_Source\PSoC5/UART_3.c ****                 #else
1504:.\Generated_Source\PSoC5/UART_3.c ****                     txPeriod = UART_3_TXBITCTR_PERIOD_REG;
1505:.\Generated_Source\PSoC5/UART_3.c ****                     UART_3_TXBITCTR_PERIOD_REG = UART_3_TXBITCTR_BREAKBITS8X;
1506:.\Generated_Source\PSoC5/UART_3.c ****                 #endif /* End UART_3_TXCLKGEN_DP */
1507:.\Generated_Source\PSoC5/UART_3.c **** 
1508:.\Generated_Source\PSoC5/UART_3.c ****                 /* Send zeros */
1509:.\Generated_Source\PSoC5/UART_3.c ****                 UART_3_TXDATA_REG = 0u;
 1038              		.loc 1 1509 0
 1039 002e 194B     		ldr	r3, .L74+12
 1040 0030 0022     		movs	r2, #0
 1041 0032 1A70     		strb	r2, [r3]
 1042              	.L70:
1510:.\Generated_Source\PSoC5/UART_3.c **** 
1511:.\Generated_Source\PSoC5/UART_3.c ****                 do /* Wait until transmit starts */
1512:.\Generated_Source\PSoC5/UART_3.c ****                 {
1513:.\Generated_Source\PSoC5/UART_3.c ****                     tmpStat = UART_3_TXSTATUS_REG;
 1043              		.loc 1 1513 0 discriminator 1
 1044 0034 184B     		ldr	r3, .L74+16
 1045 0036 1B78     		ldrb	r3, [r3]
 1046 0038 FB73     		strb	r3, [r7, #15]
1514:.\Generated_Source\PSoC5/UART_3.c ****                 }
ARM GAS  C:\Users\kingi\AppData\Local\Temp\ccQc3vxb.s 			page 46


1515:.\Generated_Source\PSoC5/UART_3.c ****                 while((tmpStat & UART_3_TX_STS_FIFO_EMPTY) != 0u);
 1047              		.loc 1 1515 0 discriminator 1
 1048 003a FB7B     		ldrb	r3, [r7, #15]	@ zero_extendqisi2
 1049 003c 03F00203 		and	r3, r3, #2
 1050 0040 002B     		cmp	r3, #0
 1051 0042 F7D1     		bne	.L70
 1052              	.L69:
1516:.\Generated_Source\PSoC5/UART_3.c ****             }
1517:.\Generated_Source\PSoC5/UART_3.c **** 
1518:.\Generated_Source\PSoC5/UART_3.c ****             if( (retMode == UART_3_WAIT_FOR_COMPLETE_REINIT) ||
 1053              		.loc 1 1518 0
 1054 0044 FB79     		ldrb	r3, [r7, #7]	@ zero_extendqisi2
 1055 0046 012B     		cmp	r3, #1
 1056 0048 02D0     		beq	.L71
 1057              		.loc 1 1518 0 is_stmt 0 discriminator 1
 1058 004a FB79     		ldrb	r3, [r7, #7]	@ zero_extendqisi2
 1059 004c 032B     		cmp	r3, #3
 1060 004e 09D1     		bne	.L72
 1061              	.L71:
1519:.\Generated_Source\PSoC5/UART_3.c ****                 (retMode == UART_3_SEND_WAIT_REINIT) )
1520:.\Generated_Source\PSoC5/UART_3.c ****             {
1521:.\Generated_Source\PSoC5/UART_3.c ****                 do /* Wait until transmit complete */
1522:.\Generated_Source\PSoC5/UART_3.c ****                 {
1523:.\Generated_Source\PSoC5/UART_3.c ****                     tmpStat = UART_3_TXSTATUS_REG;
 1062              		.loc 1 1523 0 is_stmt 1 discriminator 1
 1063 0050 114B     		ldr	r3, .L74+16
 1064 0052 1B78     		ldrb	r3, [r3]
 1065 0054 FB73     		strb	r3, [r7, #15]
1524:.\Generated_Source\PSoC5/UART_3.c ****                 }
1525:.\Generated_Source\PSoC5/UART_3.c ****                 while(((uint8)~tmpStat & UART_3_TX_STS_COMPLETE) != 0u);
 1066              		.loc 1 1525 0 discriminator 1
 1067 0056 FB7B     		ldrb	r3, [r7, #15]
 1068 0058 DB43     		mvns	r3, r3
 1069 005a DBB2     		uxtb	r3, r3
 1070 005c 03F00103 		and	r3, r3, #1
 1071 0060 002B     		cmp	r3, #0
 1072 0062 F5D1     		bne	.L71
 1073              	.L72:
1526:.\Generated_Source\PSoC5/UART_3.c ****             }
1527:.\Generated_Source\PSoC5/UART_3.c **** 
1528:.\Generated_Source\PSoC5/UART_3.c ****             if( (retMode == UART_3_WAIT_FOR_COMPLETE_REINIT) ||
 1074              		.loc 1 1528 0
 1075 0064 FB79     		ldrb	r3, [r7, #7]	@ zero_extendqisi2
 1076 0066 012B     		cmp	r3, #1
 1077 0068 05D0     		beq	.L73
 1078              		.loc 1 1528 0 is_stmt 0 discriminator 1
 1079 006a FB79     		ldrb	r3, [r7, #7]	@ zero_extendqisi2
 1080 006c 022B     		cmp	r3, #2
 1081 006e 02D0     		beq	.L73
1529:.\Generated_Source\PSoC5/UART_3.c ****                 (retMode == UART_3_REINIT) ||
 1082              		.loc 1 1529 0 is_stmt 1
 1083 0070 FB79     		ldrb	r3, [r7, #7]	@ zero_extendqisi2
 1084 0072 032B     		cmp	r3, #3
 1085 0074 03D1     		bne	.L66
 1086              	.L73:
1530:.\Generated_Source\PSoC5/UART_3.c ****                 (retMode == UART_3_SEND_WAIT_REINIT) )
1531:.\Generated_Source\PSoC5/UART_3.c ****             {
ARM GAS  C:\Users\kingi\AppData\Local\Temp\ccQc3vxb.s 			page 47


1532:.\Generated_Source\PSoC5/UART_3.c **** 
1533:.\Generated_Source\PSoC5/UART_3.c ****             #if(UART_3_TXCLKGEN_DP)
1534:.\Generated_Source\PSoC5/UART_3.c ****                 UART_3_TXBITCLKTX_COMPLETE_REG = txPeriod;
 1087              		.loc 1 1534 0
 1088 0076 054B     		ldr	r3, .L74+4
 1089 0078 054A     		ldr	r2, .L74+8
 1090 007a 1278     		ldrb	r2, [r2]	@ zero_extendqisi2
 1091 007c 1A70     		strb	r2, [r3]
 1092              	.L66:
 1093              	.LBE2:
1535:.\Generated_Source\PSoC5/UART_3.c ****             #else
1536:.\Generated_Source\PSoC5/UART_3.c ****                 UART_3_TXBITCTR_PERIOD_REG = txPeriod;
1537:.\Generated_Source\PSoC5/UART_3.c ****             #endif /* End UART_3_TXCLKGEN_DP */
1538:.\Generated_Source\PSoC5/UART_3.c **** 
1539:.\Generated_Source\PSoC5/UART_3.c ****             #if( (UART_3_PARITY_TYPE != UART_3__B_UART__NONE_REVB) || \
1540:.\Generated_Source\PSoC5/UART_3.c ****                  (UART_3_PARITY_TYPE_SW != 0u) )
1541:.\Generated_Source\PSoC5/UART_3.c ****                 UART_3_WriteControlRegister(UART_3_ReadControlRegister() &
1542:.\Generated_Source\PSoC5/UART_3.c ****                                                       (uint8) ~UART_3_CTRL_HD_SEND_BREAK);
1543:.\Generated_Source\PSoC5/UART_3.c ****             #endif /* End UART_3_PARITY_TYPE != NONE */
1544:.\Generated_Source\PSoC5/UART_3.c ****             }
1545:.\Generated_Source\PSoC5/UART_3.c ****         #endif    /* End UART_3_HD_ENABLED */
1546:.\Generated_Source\PSoC5/UART_3.c ****         }
1547:.\Generated_Source\PSoC5/UART_3.c ****     }
 1094              		.loc 1 1547 0
 1095 007e 1437     		adds	r7, r7, #20
 1096              		.cfi_def_cfa_offset 4
 1097 0080 BD46     		mov	sp, r7
 1098              		.cfi_def_cfa_register 13
 1099              		@ sp needed
 1100 0082 5DF8047B 		ldr	r7, [sp], #4
 1101              		.cfi_restore 7
 1102              		.cfi_def_cfa_offset 0
 1103 0086 7047     		bx	lr
 1104              	.L75:
 1105              		.align	2
 1106              	.L74:
 1107 0088 00000000 		.word	UART_3_initVar
 1108 008c 35650040 		.word	1073767733
 1109 0090 03000000 		.word	txPeriod.4942
 1110 0094 46650040 		.word	1073767750
 1111 0098 66650040 		.word	1073767782
 1112              		.cfi_endproc
 1113              	.LFE15:
 1114              		.size	UART_3_SendBreak, .-UART_3_SendBreak
 1115              		.section	.text.UART_3_SetTxAddressMode,"ax",%progbits
 1116              		.align	2
 1117              		.global	UART_3_SetTxAddressMode
 1118              		.thumb
 1119              		.thumb_func
 1120              		.type	UART_3_SetTxAddressMode, %function
 1121              	UART_3_SetTxAddressMode:
 1122              	.LFB16:
1548:.\Generated_Source\PSoC5/UART_3.c **** 
1549:.\Generated_Source\PSoC5/UART_3.c **** 
1550:.\Generated_Source\PSoC5/UART_3.c ****     /*******************************************************************************
1551:.\Generated_Source\PSoC5/UART_3.c ****     * Function Name: UART_3_SetTxAddressMode
1552:.\Generated_Source\PSoC5/UART_3.c ****     ********************************************************************************
ARM GAS  C:\Users\kingi\AppData\Local\Temp\ccQc3vxb.s 			page 48


1553:.\Generated_Source\PSoC5/UART_3.c ****     *
1554:.\Generated_Source\PSoC5/UART_3.c ****     * Summary:
1555:.\Generated_Source\PSoC5/UART_3.c ****     *  Configures the transmitter to signal the next bytes is address or data.
1556:.\Generated_Source\PSoC5/UART_3.c ****     *
1557:.\Generated_Source\PSoC5/UART_3.c ****     * Parameters:
1558:.\Generated_Source\PSoC5/UART_3.c ****     *  addressMode: 
1559:.\Generated_Source\PSoC5/UART_3.c ****     *       UART_3_SET_SPACE - Configure the transmitter to send the next
1560:.\Generated_Source\PSoC5/UART_3.c ****     *                                    byte as a data.
1561:.\Generated_Source\PSoC5/UART_3.c ****     *       UART_3_SET_MARK  - Configure the transmitter to send the next
1562:.\Generated_Source\PSoC5/UART_3.c ****     *                                    byte as an address.
1563:.\Generated_Source\PSoC5/UART_3.c ****     *
1564:.\Generated_Source\PSoC5/UART_3.c ****     * Return:
1565:.\Generated_Source\PSoC5/UART_3.c ****     *  None.
1566:.\Generated_Source\PSoC5/UART_3.c ****     *
1567:.\Generated_Source\PSoC5/UART_3.c ****     * Side Effects:
1568:.\Generated_Source\PSoC5/UART_3.c ****     *  This function sets and clears UART_3_CTRL_MARK bit in the Control
1569:.\Generated_Source\PSoC5/UART_3.c ****     *  register.
1570:.\Generated_Source\PSoC5/UART_3.c ****     *
1571:.\Generated_Source\PSoC5/UART_3.c ****     *******************************************************************************/
1572:.\Generated_Source\PSoC5/UART_3.c ****     void UART_3_SetTxAddressMode(uint8 addressMode) 
1573:.\Generated_Source\PSoC5/UART_3.c ****     {
 1123              		.loc 1 1573 0
 1124              		.cfi_startproc
 1125              		@ args = 0, pretend = 0, frame = 8
 1126              		@ frame_needed = 1, uses_anonymous_args = 0
 1127              		@ link register save eliminated.
 1128 0000 80B4     		push	{r7}
 1129              		.cfi_def_cfa_offset 4
 1130              		.cfi_offset 7, -4
 1131 0002 83B0     		sub	sp, sp, #12
 1132              		.cfi_def_cfa_offset 16
 1133 0004 00AF     		add	r7, sp, #0
 1134              		.cfi_def_cfa_register 7
 1135 0006 0346     		mov	r3, r0
 1136 0008 FB71     		strb	r3, [r7, #7]
1574:.\Generated_Source\PSoC5/UART_3.c ****         /* Mark/Space sending enable */
1575:.\Generated_Source\PSoC5/UART_3.c ****         if(addressMode != 0u)
1576:.\Generated_Source\PSoC5/UART_3.c ****         {
1577:.\Generated_Source\PSoC5/UART_3.c ****         #if( UART_3_CONTROL_REG_REMOVED == 0u )
1578:.\Generated_Source\PSoC5/UART_3.c ****             UART_3_WriteControlRegister(UART_3_ReadControlRegister() |
1579:.\Generated_Source\PSoC5/UART_3.c ****                                                   UART_3_CTRL_MARK);
1580:.\Generated_Source\PSoC5/UART_3.c ****         #endif /* End UART_3_CONTROL_REG_REMOVED == 0u */
1581:.\Generated_Source\PSoC5/UART_3.c ****         }
1582:.\Generated_Source\PSoC5/UART_3.c ****         else
1583:.\Generated_Source\PSoC5/UART_3.c ****         {
1584:.\Generated_Source\PSoC5/UART_3.c ****         #if( UART_3_CONTROL_REG_REMOVED == 0u )
1585:.\Generated_Source\PSoC5/UART_3.c ****             UART_3_WriteControlRegister(UART_3_ReadControlRegister() &
1586:.\Generated_Source\PSoC5/UART_3.c ****                                                   (uint8) ~UART_3_CTRL_MARK);
1587:.\Generated_Source\PSoC5/UART_3.c ****         #endif /* End UART_3_CONTROL_REG_REMOVED == 0u */
1588:.\Generated_Source\PSoC5/UART_3.c ****         }
1589:.\Generated_Source\PSoC5/UART_3.c ****     }
 1137              		.loc 1 1589 0
 1138 000a 0C37     		adds	r7, r7, #12
 1139              		.cfi_def_cfa_offset 4
 1140 000c BD46     		mov	sp, r7
 1141              		.cfi_def_cfa_register 13
 1142              		@ sp needed
ARM GAS  C:\Users\kingi\AppData\Local\Temp\ccQc3vxb.s 			page 49


 1143 000e 5DF8047B 		ldr	r7, [sp], #4
 1144              		.cfi_restore 7
 1145              		.cfi_def_cfa_offset 0
 1146 0012 7047     		bx	lr
 1147              		.cfi_endproc
 1148              	.LFE16:
 1149              		.size	UART_3_SetTxAddressMode, .-UART_3_SetTxAddressMode
 1150              		.bss
 1151              	txPeriod.4942:
 1152 0003 00       		.space	1
 1153              		.text
 1154              	.Letext0:
 1155              		.file 2 ".\\Generated_Source\\PSoC5\\cytypes.h"