******************************************************************************
                  TI ARM Linker PC v5.0.4                      
******************************************************************************
>> Linked Mon Aug 28 14:25:29 2017

OUTPUT FILE NAME:   <temperature_1506.out>
ENTRY POINT SYMBOL: "_c_int00"  address: 000017a5


MEMORY CONFIGURATION

         name            origin    length      used     unused   attr    fill
----------------------  --------  ---------  --------  --------  ----  --------
  FLASH                 00000000   00040000  0000238e  0003dc72  R  X
  SRAM                  20000000   00008000  0000022c  00007dd4  RW X


SEGMENT ALLOCATION MAP

run origin  load origin   length   init length attrs members
----------  ----------- ---------- ----------- ----- -------
00000000    00000000    00002390   00002390    r-x
  00000000    00000000    0000026c   0000026c    r-- .intvecs
  0000026c    0000026c    0000199a   0000199a    r-x .text
  00001c08    00001c08    00000740   00000740    r-- .const
  00002348    00002348    00000048   00000048    r-- .cinit
20000000    20000000    00000200   00000000    rw-
  20000000    20000000    00000200   00000000    rw- .stack
20000200    20000200    0000002c   00000028    rw-
  20000200    20000200    00000028   00000028    rw- .data
  20000228    20000228    00000004   00000000    rw- .bss


SECTION ALLOCATION MAP

 output                                  attributes/
section   page    origin      length       input sections
--------  ----  ----------  ----------   ----------------
.intvecs   0    00000000    0000026c     
                  00000000    0000026c     startup_ccs.obj (.intvecs)

.init_array 
*          0    00000000    00000000     UNINITIALIZED

.text      0    0000026c    0000199a     
                  0000026c    00000418     temperature.obj (.text:main)
                  00000684    00000266     grlib-cm4f.lib : string.obj (.text:GrFontGlyphRender)
                  000008ea    00000002     cfal96x64x16.obj (.text:CFAL96x64x16Flush)
                  000008ec    000001d8     driverlib-cm4f.lib : sysctl.obj (.text:SysCtlClockGet)
                  00000ac4    000001b6     rtsv7M4_T_le_v4SPD16_eabi.lib : fd_add_t2.obj (.text)
                  00000c7a    00000002     startup_ccs.obj (.text:FaultISR)
                  00000c7c    00000160     cfal96x64x16.obj (.text:CFAL96x64x16Init)
                  00000ddc    00000138     cfal96x64x16.obj (.text:CFAL96x64x16PixelDrawMultiple)
                  00000f14    00000136     rtsv7M4_T_le_v4SPD16_eabi.lib : fd_div_t2.obj (.text)
                  0000104a    000000fc                                   : fd_mul_t2.obj (.text)
                  00001146    000000c4     grlib-cm4f.lib : string.obj (.text:GrDefaultStringRenderer)
                  0000120a    0000009c     rtsv7M4_T_le_v4SPD16_eabi.lib : memcpy_t2.obj (.text)
                  000012a6    0000009a     grlib-cm4f.lib : rectangle.obj (.text:GrRectFill)
                  00001340    00000094     rtsv7M4_T_le_v4SPD16_eabi.lib : auto_init.obj (.text)
                  000013d4    00000092     cfal96x64x16.obj (.text:CFAL96x64x16LineDrawV)
                  00001466    0000006c     cfal96x64x16.obj (.text:CFAL96x64x16LineDrawH)
                  000014d2    00000068     grlib-cm4f.lib : string.obj (.text:GrStringWidthGet)
                  0000153a    00000066                    : rectangle.obj (.text:GrRectDraw)
                  000015a0    00000064                    : context.obj (.text:GrContextInit)
                  00001604    0000005e     rtsv7M4_T_le_v4SPD16_eabi.lib : copy_decompress_rle.obj (.text)
                  00001662    0000005c     grlib-cm4f.lib : string.obj (.text:FontWideGlyphDataGet)
                  000016be    00000002     startup_ccs.obj (.text:IntDefaultHandler)
                  000016c0    0000004c     cfal96x64x16.obj (.text:CFAL96x64x16WriteCommand)
                  0000170c    0000004c     cfal96x64x16.obj (.text:CFAL96x64x16WriteData)
                  00001758    0000004a     grlib-cm4f.lib : string.obj (.text:UpdateContextCharMapping)
                  000017a2    00000002     startup_ccs.obj (.text:NmiSR)
                  000017a4    00000048     rtsv7M4_T_le_v4SPD16_eabi.lib : boot.obj (.text)
                  000017ec    00000048                                   : fd_toi_t2.obj (.text)
                  00001834    00000046     grlib-cm4f.lib : line.obj (.text:GrLineDrawH)
                  0000187a    00000046                    : line.obj (.text:GrLineDrawV)
                  000018c0    00000044     rtsv7M4_T_le_v4SPD16_eabi.lib : cpy_tbl.obj (.text)
                  00001904    00000040                                   : exit.obj (.text)
                  00001944    0000003a     grlib-cm4f.lib : string.obj (.text:FontGlyphDataGet)
                  0000197e    00000038     rtsv7M4_T_le_v4SPD16_eabi.lib : fs_tod_t2.obj (.text)
                  000019b6    00000032     cfal96x64x16.obj (.text:CFAL96x64x16PixelDraw)
                  000019e8    0000002e     driverlib-cm4f.lib : adc.obj (.text:ADCIntStatus)
                  00001a16    0000002a     cfal96x64x16.obj (.text:CFAL96x64x16RectFill)
                  00001a40    0000002a     grlib-cm4f.lib : string.obj (.text:GrFontBaselineGet)
                  00001a6a    00000028                    : string.obj (.text:GrStringNextCharGet)
                  00001a92    00000026                    : string.obj (.text:GrFontInfoGet)
                  00001ab8    00000024     temperature.obj (.text:UARTSend)
                  00001adc    00000022     grlib-cm4f.lib : string.obj (.text:GrFontGlyphDataGet)
                  00001afe    00000020     driverlib-cm4f.lib : adc.obj (.text:ADCSequenceDataGet)
                  00001b1e    0000001e     grlib-cm4f.lib : string.obj (.text:GrFontCodepageGet)
                  00001b3c    00000018     rtsv7M4_T_le_v4SPD16_eabi.lib : args_main.obj (.text)
                  00001b54    00000016     driverlib-cm4f.lib : adc.obj (.text:ADCProcessorTrigger)
                  00001b6a    00000016     cfal96x64x16.obj (.text:CFAL96x64x16ColorTranslate)
                  00001b80    00000014     rtsv7M4_T_le_v4SPD16_eabi.lib : _lock.obj (.text)
                  00001b94    00000012                                   : copy_zero_init.obj (.text:decompress:ZI)
                  00001ba6    00000002     --HOLE-- [fill = 0]
                  00001ba8    00000010     driverlib-cm4f.lib : fpu.obj (.text:FPUEnable)
                  00001bb8    00000010                        : fpu.obj (.text:FPULazyStackingEnable)
                  00001bc8    00000010     grlib-cm4f.lib : string.obj (.text:GrStringDraw)
                  00001bd8    0000000e     rtsv7M4_T_le_v4SPD16_eabi.lib : copy_decompress_none.obj (.text:decompress:none)
                  00001be6    00000008     grlib-cm4f.lib : charmap.obj (.text:GrMapISO8859_1_Unicode)
                  00001bee    00000006                    : string.obj (.text:GrContextFontSet)
                  00001bf4    00000006     startup_ccs.obj (.text:ResetISR)
                  00001bfa    00000006     driverlib-cm4f.lib : sysctl.obj (.text:SysCtlDelay)
                  00001c00    00000006     rtsv7M4_T_le_v4SPD16_eabi.lib : copy_decompress_rle.obj (.text:decompress:rle24)

.const     0    00001c08    00000740     
                  00001c08    0000055f     grlib-cm4f.lib : fontcm12.obj (.const:g_pucCm12Data)
                  00002167    00000001     --HOLE-- [fill = 0]
                  00002168    000000c8                    : fontcm12.obj (.const:g_sFontCm12)
                  00002230    0000006c     driverlib-cm4f.lib : sysctl.obj (.const:g_pulXtals)
                  0000229c    00000064     temperature.obj (.const:.string:$P$T0$1)
                  00002300    00000028     cfal96x64x16.obj (.const:g_sCFAL96x64x16)
                  00002328    00000010     temperature.obj (.const:.string)
                  00002338    00000010     grlib-cm4f.lib : context.obj (.const)

.cinit     0    00002348    00000048     
                  00002348    00000023     (.cinit..data.load) [load image, compression = rle]
                  0000236b    00000001     --HOLE-- [fill = 0]
                  0000236c    0000000c     (__TI_handler_table)
                  00002378    00000008     (.cinit..bss.load) [load image, compression = zero_init]
                  00002380    00000010     (__TI_cinit_table)

.stack     0    20000000    00000200     UNINITIALIZED
                  20000000    00000200     --HOLE--

.data      0    20000200    00000028     
                  20000200    00000013     cfal96x64x16.obj (.data)
                  20000213    00000001     --HOLE--
                  20000214    00000008     rtsv7M4_T_le_v4SPD16_eabi.lib : _lock.obj (.data)
                  2000021c    00000008                                   : exit.obj (.data)
                  20000224    00000004                                   : stkdepth_vars.obj (.data)

.bss       0    20000228    00000004     UNINITIALIZED
                  20000228    00000004     grlib-cm4f.lib : context.obj (.bss)


LINKER GENERATED COPY TABLES

__TI_cinit_table @ 00002380 records: 2, size/record: 8, table size: 16
	.data: load addr=00002348, load size=00000023 bytes, run addr=20000200, run size=00000028 bytes, compression=rle
	.bss: load addr=00002378, load size=00000008 bytes, run addr=20000228, run size=00000004 bytes, compression=zero_init


LINKER GENERATED HANDLER TABLE

__TI_handler_table @ 0000236c records: 3, size/record: 4, table size: 12
	index: 0, handler: __TI_decompress_rle24
	index: 1, handler: __TI_decompress_none
	index: 2, handler: __TI_zero_init


GLOBAL SYMBOLS: SORTED ALPHABETICALLY BY Name 

address    name
--------   ----
000019e9   ADCIntStatus
00001b55   ADCProcessorTrigger
00001aff   ADCSequenceDataGet
00001905   C$$EXIT
00000c7d   CFAL96x64x16Init
00001ba9   FPUEnable
00001bb9   FPULazyStackingEnable
00001bef   GrContextFontSet
000015a1   GrContextInit
00001147   GrDefaultStringRenderer
00001a41   GrFontBaselineGet
00001b1f   GrFontCodepageGet
00001add   GrFontGlyphDataGet
00000685   GrFontGlyphRender
00001a93   GrFontInfoGet
00001835   GrLineDrawH
0000187b   GrLineDrawV
00001be7   GrMapISO8859_1_Unicode
0000153b   GrRectDraw
000012a7   GrRectFill
00001bc9   GrStringDraw
00001a6b   GrStringNextCharGet
000014d3   GrStringWidthGet
00001bf5   ResetISR
UNDEFED    SHT$$INIT_ARRAY$$Base
UNDEFED    SHT$$INIT_ARRAY$$Limit
000008ed   SysCtlClockGet
00001bfb   SysCtlDelay
00001ab9   UARTSend
20000200   __STACK_END
00000200   __STACK_SIZE
20000200   __STACK_TOP
00002380   __TI_CINIT_Base
00002390   __TI_CINIT_Limit
0000236c   __TI_Handler_Table_Base
00002378   __TI_Handler_Table_Limit
00000001   __TI_args_main
00001341   __TI_auto_init
00001bd9   __TI_decompress_none
00001c01   __TI_decompress_rle24
00000000   __TI_static_base__
00001b95   __TI_zero_init
000017ed   __aeabi_d2iz
00000acf   __aeabi_dadd
00000f15   __aeabi_ddiv
0000104b   __aeabi_dmul
00000ac5   __aeabi_dsub
0000197f   __aeabi_f2d
0000120b   __aeabi_memcpy
0000120b   __aeabi_memcpy4
0000120b   __aeabi_memcpy8
ffffffff   __binit__
ffffffff   __c_args__
20000000   __stack
00001b3d   _args_main
000017a5   _c_int00
2000021c   _cleanup_ptr
20000220   _dtors_ptr
20000214   _lock
00001b8f   _nop
00001b87   _register_lock
00001b81   _register_unlock
20000218   _unlock
00001909   abort
ffffffff   binit
000018c1   copy_in
00001911   exit
00000000   g_pfnVectors
00002338   g_psDefaultCodePointMapTable
00002300   g_sCFAL96x64x16
00002168   g_sFontCm12
0000026d   main
20000224   main_func_sp
0000120b   memcpy


GLOBAL SYMBOLS: SORTED BY Symbol Address 

address    name
--------   ----
00000000   __TI_static_base__
00000000   g_pfnVectors
00000001   __TI_args_main
00000200   __STACK_SIZE
0000026d   main
00000685   GrFontGlyphRender
000008ed   SysCtlClockGet
00000ac5   __aeabi_dsub
00000acf   __aeabi_dadd
00000c7d   CFAL96x64x16Init
00000f15   __aeabi_ddiv
0000104b   __aeabi_dmul
00001147   GrDefaultStringRenderer
0000120b   __aeabi_memcpy
0000120b   __aeabi_memcpy4
0000120b   __aeabi_memcpy8
0000120b   memcpy
000012a7   GrRectFill
00001341   __TI_auto_init
000014d3   GrStringWidthGet
0000153b   GrRectDraw
000015a1   GrContextInit
000017a5   _c_int00
000017ed   __aeabi_d2iz
00001835   GrLineDrawH
0000187b   GrLineDrawV
000018c1   copy_in
00001905   C$$EXIT
00001909   abort
00001911   exit
0000197f   __aeabi_f2d
000019e9   ADCIntStatus
00001a41   GrFontBaselineGet
00001a6b   GrStringNextCharGet
00001a93   GrFontInfoGet
00001ab9   UARTSend
00001add   GrFontGlyphDataGet
00001aff   ADCSequenceDataGet
00001b1f   GrFontCodepageGet
00001b3d   _args_main
00001b55   ADCProcessorTrigger
00001b81   _register_unlock
00001b87   _register_lock
00001b8f   _nop
00001b95   __TI_zero_init
00001ba9   FPUEnable
00001bb9   FPULazyStackingEnable
00001bc9   GrStringDraw
00001bd9   __TI_decompress_none
00001be7   GrMapISO8859_1_Unicode
00001bef   GrContextFontSet
00001bf5   ResetISR
00001bfb   SysCtlDelay
00001c01   __TI_decompress_rle24
00002168   g_sFontCm12
00002300   g_sCFAL96x64x16
00002338   g_psDefaultCodePointMapTable
0000236c   __TI_Handler_Table_Base
00002378   __TI_Handler_Table_Limit
00002380   __TI_CINIT_Base
00002390   __TI_CINIT_Limit
20000000   __stack
20000200   __STACK_END
20000200   __STACK_TOP
20000214   _lock
20000218   _unlock
2000021c   _cleanup_ptr
20000220   _dtors_ptr
20000224   main_func_sp
ffffffff   __binit__
ffffffff   __c_args__
ffffffff   binit
UNDEFED    SHT$$INIT_ARRAY$$Base
UNDEFED    SHT$$INIT_ARRAY$$Limit

[74 symbols]
