ARM GAS  C:\Users\kingi\AppData\Local\Temp\ccdFO8Qx.s 			page 1


   1              		.syntax unified
   2              		.cpu cortex-m3
   3              		.fpu softvfp
   4              		.eabi_attribute 20, 1
   5              		.eabi_attribute 21, 1
   6              		.eabi_attribute 23, 3
   7              		.eabi_attribute 24, 1
   8              		.eabi_attribute 25, 1
   9              		.eabi_attribute 26, 1
  10              		.eabi_attribute 30, 6
  11              		.eabi_attribute 34, 1
  12              		.eabi_attribute 18, 4
  13              		.thumb
  14              		.file	"cyfitter_cfg.c"
  15              		.text
  16              	.Ltext0:
  17              		.cfi_sections	.debug_frame
  18              		.section	.text.CYMEMZERO,"ax",%progbits
  19              		.align	2
  20              		.thumb
  21              		.thumb_func
  22              		.type	CYMEMZERO, %function
  23              	CYMEMZERO:
  24              	.LFB0:
  25              		.file 1 ".\\Generated_Source\\PSoC5\\cyfitter_cfg.c"
   1:.\Generated_Source\PSoC5/cyfitter_cfg.c **** /*******************************************************************************
   2:.\Generated_Source\PSoC5/cyfitter_cfg.c **** * File Name: cyfitter_cfg.c
   3:.\Generated_Source\PSoC5/cyfitter_cfg.c **** * 
   4:.\Generated_Source\PSoC5/cyfitter_cfg.c **** * PSoC Creator  3.3 SP1
   5:.\Generated_Source\PSoC5/cyfitter_cfg.c **** *
   6:.\Generated_Source\PSoC5/cyfitter_cfg.c **** * Description:
   7:.\Generated_Source\PSoC5/cyfitter_cfg.c **** * This file contains device initialization code.
   8:.\Generated_Source\PSoC5/cyfitter_cfg.c **** * Except for the user defined sections in CyClockStartupError(), this file should not be modified.
   9:.\Generated_Source\PSoC5/cyfitter_cfg.c **** * This file is automatically generated by PSoC Creator.
  10:.\Generated_Source\PSoC5/cyfitter_cfg.c **** *
  11:.\Generated_Source\PSoC5/cyfitter_cfg.c **** ********************************************************************************
  12:.\Generated_Source\PSoC5/cyfitter_cfg.c **** * Copyright (c) 2007-2015 Cypress Semiconductor.  All rights reserved.
  13:.\Generated_Source\PSoC5/cyfitter_cfg.c **** * You may use this file only in accordance with the license, terms, conditions, 
  14:.\Generated_Source\PSoC5/cyfitter_cfg.c **** * disclaimers, and limitations in the end user license agreement accompanying 
  15:.\Generated_Source\PSoC5/cyfitter_cfg.c **** * the software package with which this file was provided.
  16:.\Generated_Source\PSoC5/cyfitter_cfg.c **** ********************************************************************************/
  17:.\Generated_Source\PSoC5/cyfitter_cfg.c **** 
  18:.\Generated_Source\PSoC5/cyfitter_cfg.c **** #include <string.h>
  19:.\Generated_Source\PSoC5/cyfitter_cfg.c **** #include "cytypes.h"
  20:.\Generated_Source\PSoC5/cyfitter_cfg.c **** #include "cydevice_trm.h"
  21:.\Generated_Source\PSoC5/cyfitter_cfg.c **** #include "cyfitter.h"
  22:.\Generated_Source\PSoC5/cyfitter_cfg.c **** #include "CyLib.h"
  23:.\Generated_Source\PSoC5/cyfitter_cfg.c **** #include "cyfitter_cfg.h"
  24:.\Generated_Source\PSoC5/cyfitter_cfg.c **** 
  25:.\Generated_Source\PSoC5/cyfitter_cfg.c **** #define CY_NEED_CYCLOCKSTARTUPERROR 1
  26:.\Generated_Source\PSoC5/cyfitter_cfg.c **** 
  27:.\Generated_Source\PSoC5/cyfitter_cfg.c **** 
  28:.\Generated_Source\PSoC5/cyfitter_cfg.c **** #if defined(__GNUC__) || defined(__ARMCC_VERSION)
  29:.\Generated_Source\PSoC5/cyfitter_cfg.c ****     #define CYPACKED 
  30:.\Generated_Source\PSoC5/cyfitter_cfg.c ****     #define CYPACKED_ATTR __attribute__ ((packed))
  31:.\Generated_Source\PSoC5/cyfitter_cfg.c ****     #define CYALIGNED __attribute__ ((aligned))
  32:.\Generated_Source\PSoC5/cyfitter_cfg.c ****     #define CY_CFG_UNUSED __attribute__ ((unused))
ARM GAS  C:\Users\kingi\AppData\Local\Temp\ccdFO8Qx.s 			page 2


  33:.\Generated_Source\PSoC5/cyfitter_cfg.c ****     #ifndef CY_CFG_SECTION
  34:.\Generated_Source\PSoC5/cyfitter_cfg.c ****         #define CY_CFG_SECTION __attribute__ ((section(".psocinit")))
  35:.\Generated_Source\PSoC5/cyfitter_cfg.c ****     #endif
  36:.\Generated_Source\PSoC5/cyfitter_cfg.c ****     
  37:.\Generated_Source\PSoC5/cyfitter_cfg.c ****     #if CYDEV_CONFIGURATION_DMA
  38:.\Generated_Source\PSoC5/cyfitter_cfg.c ****         #if (defined(__ARMCC_VERSION) || defined(__GNUC__))
  39:.\Generated_Source\PSoC5/cyfitter_cfg.c ****             #ifndef DMAINITSEC
  40:.\Generated_Source\PSoC5/cyfitter_cfg.c ****                 #define DMAINITSEC __attribute__ ((section(".dma_init")))
  41:.\Generated_Source\PSoC5/cyfitter_cfg.c ****             #endif
  42:.\Generated_Source\PSoC5/cyfitter_cfg.c ****         #elif defined(__ICCARM__)
  43:.\Generated_Source\PSoC5/cyfitter_cfg.c ****             #define DMAINITSEC _Pragma("location=\".dma_init\"")
  44:.\Generated_Source\PSoC5/cyfitter_cfg.c ****         #endif
  45:.\Generated_Source\PSoC5/cyfitter_cfg.c ****     #else
  46:.\Generated_Source\PSoC5/cyfitter_cfg.c ****         #define DMAINITSEC
  47:.\Generated_Source\PSoC5/cyfitter_cfg.c ****     #endif
  48:.\Generated_Source\PSoC5/cyfitter_cfg.c **** 
  49:.\Generated_Source\PSoC5/cyfitter_cfg.c ****     #if defined(__ARMCC_VERSION)
  50:.\Generated_Source\PSoC5/cyfitter_cfg.c ****         #define CY_CFG_MEMORY_BARRIER() __memory_changed()
  51:.\Generated_Source\PSoC5/cyfitter_cfg.c ****     #else
  52:.\Generated_Source\PSoC5/cyfitter_cfg.c ****         #define CY_CFG_MEMORY_BARRIER() __sync_synchronize()
  53:.\Generated_Source\PSoC5/cyfitter_cfg.c ****     #endif
  54:.\Generated_Source\PSoC5/cyfitter_cfg.c ****     
  55:.\Generated_Source\PSoC5/cyfitter_cfg.c **** #elif defined(__ICCARM__)
  56:.\Generated_Source\PSoC5/cyfitter_cfg.c ****     #include <intrinsics.h>
  57:.\Generated_Source\PSoC5/cyfitter_cfg.c **** 
  58:.\Generated_Source\PSoC5/cyfitter_cfg.c ****     #define CYPACKED __packed
  59:.\Generated_Source\PSoC5/cyfitter_cfg.c ****     #define CYPACKED_ATTR 
  60:.\Generated_Source\PSoC5/cyfitter_cfg.c ****     #define CYALIGNED _Pragma("data_alignment=4")
  61:.\Generated_Source\PSoC5/cyfitter_cfg.c ****     #define CY_CFG_UNUSED _Pragma("diag_suppress=Pe177")
  62:.\Generated_Source\PSoC5/cyfitter_cfg.c ****     #define CY_CFG_SECTION _Pragma("location=\".psocinit\"")
  63:.\Generated_Source\PSoC5/cyfitter_cfg.c ****     
  64:.\Generated_Source\PSoC5/cyfitter_cfg.c ****     #if CYDEV_CONFIGURATION_DMA
  65:.\Generated_Source\PSoC5/cyfitter_cfg.c ****         #if (defined(__ARMCC_VERSION) || defined(__GNUC__))
  66:.\Generated_Source\PSoC5/cyfitter_cfg.c ****             #ifndef DMAINITSEC
  67:.\Generated_Source\PSoC5/cyfitter_cfg.c ****                 #define DMAINITSEC __attribute__ ((section(".dma_init")))
  68:.\Generated_Source\PSoC5/cyfitter_cfg.c ****             #endif
  69:.\Generated_Source\PSoC5/cyfitter_cfg.c ****         #elif defined(__ICCARM__)
  70:.\Generated_Source\PSoC5/cyfitter_cfg.c ****             #define DMAINITSEC _Pragma("location=\".dma_init\"")
  71:.\Generated_Source\PSoC5/cyfitter_cfg.c ****         #endif
  72:.\Generated_Source\PSoC5/cyfitter_cfg.c ****     #else
  73:.\Generated_Source\PSoC5/cyfitter_cfg.c ****         #define DMAINITSEC
  74:.\Generated_Source\PSoC5/cyfitter_cfg.c ****     #endif
  75:.\Generated_Source\PSoC5/cyfitter_cfg.c **** 
  76:.\Generated_Source\PSoC5/cyfitter_cfg.c ****     #define CY_CFG_MEMORY_BARRIER() __DMB()
  77:.\Generated_Source\PSoC5/cyfitter_cfg.c ****     
  78:.\Generated_Source\PSoC5/cyfitter_cfg.c **** #else
  79:.\Generated_Source\PSoC5/cyfitter_cfg.c ****     #error Unsupported toolchain
  80:.\Generated_Source\PSoC5/cyfitter_cfg.c **** #endif
  81:.\Generated_Source\PSoC5/cyfitter_cfg.c **** 
  82:.\Generated_Source\PSoC5/cyfitter_cfg.c **** 
  83:.\Generated_Source\PSoC5/cyfitter_cfg.c **** CY_CFG_UNUSED
  84:.\Generated_Source\PSoC5/cyfitter_cfg.c **** static void CYMEMZERO(void *s, size_t n);
  85:.\Generated_Source\PSoC5/cyfitter_cfg.c **** CY_CFG_UNUSED
  86:.\Generated_Source\PSoC5/cyfitter_cfg.c **** static void CYMEMZERO(void *s, size_t n)
  87:.\Generated_Source\PSoC5/cyfitter_cfg.c **** {
  26              		.loc 1 87 0
  27              		.cfi_startproc
ARM GAS  C:\Users\kingi\AppData\Local\Temp\ccdFO8Qx.s 			page 3


  28              		@ args = 0, pretend = 0, frame = 8
  29              		@ frame_needed = 1, uses_anonymous_args = 0
  30 0000 80B5     		push	{r7, lr}
  31              		.cfi_def_cfa_offset 8
  32              		.cfi_offset 7, -8
  33              		.cfi_offset 14, -4
  34 0002 82B0     		sub	sp, sp, #8
  35              		.cfi_def_cfa_offset 16
  36 0004 00AF     		add	r7, sp, #0
  37              		.cfi_def_cfa_register 7
  38 0006 7860     		str	r0, [r7, #4]
  39 0008 3960     		str	r1, [r7]
  88:.\Generated_Source\PSoC5/cyfitter_cfg.c **** 	(void)memset(s, 0, n);
  40              		.loc 1 88 0
  41 000a 7868     		ldr	r0, [r7, #4]
  42 000c 0021     		movs	r1, #0
  43 000e 3A68     		ldr	r2, [r7]
  44 0010 FFF7FEFF 		bl	memset
  89:.\Generated_Source\PSoC5/cyfitter_cfg.c **** }
  45              		.loc 1 89 0
  46 0014 0837     		adds	r7, r7, #8
  47              		.cfi_def_cfa_offset 8
  48 0016 BD46     		mov	sp, r7
  49              		.cfi_def_cfa_register 13
  50              		@ sp needed
  51 0018 80BD     		pop	{r7, pc}
  52              		.cfi_endproc
  53              	.LFE0:
  54              		.size	CYMEMZERO, .-CYMEMZERO
  55 001a 00BF     		.section	.text.CYCONFIGCPY,"ax",%progbits
  56              		.align	2
  57              		.thumb
  58              		.thumb_func
  59              		.type	CYCONFIGCPY, %function
  60              	CYCONFIGCPY:
  61              	.LFB1:
  90:.\Generated_Source\PSoC5/cyfitter_cfg.c **** CY_CFG_UNUSED
  91:.\Generated_Source\PSoC5/cyfitter_cfg.c **** static void CYCONFIGCPY(void *dest, const void *src, size_t n);
  92:.\Generated_Source\PSoC5/cyfitter_cfg.c **** CY_CFG_UNUSED
  93:.\Generated_Source\PSoC5/cyfitter_cfg.c **** static void CYCONFIGCPY(void *dest, const void *src, size_t n)
  94:.\Generated_Source\PSoC5/cyfitter_cfg.c **** {
  62              		.loc 1 94 0
  63              		.cfi_startproc
  64              		@ args = 0, pretend = 0, frame = 16
  65              		@ frame_needed = 1, uses_anonymous_args = 0
  66 0000 80B5     		push	{r7, lr}
  67              		.cfi_def_cfa_offset 8
  68              		.cfi_offset 7, -8
  69              		.cfi_offset 14, -4
  70 0002 84B0     		sub	sp, sp, #16
  71              		.cfi_def_cfa_offset 24
  72 0004 00AF     		add	r7, sp, #0
  73              		.cfi_def_cfa_register 7
  74 0006 F860     		str	r0, [r7, #12]
  75 0008 B960     		str	r1, [r7, #8]
  76 000a 7A60     		str	r2, [r7, #4]
  95:.\Generated_Source\PSoC5/cyfitter_cfg.c **** 	(void)memcpy(dest, src, n);
ARM GAS  C:\Users\kingi\AppData\Local\Temp\ccdFO8Qx.s 			page 4


  77              		.loc 1 95 0
  78 000c F868     		ldr	r0, [r7, #12]
  79 000e B968     		ldr	r1, [r7, #8]
  80 0010 7A68     		ldr	r2, [r7, #4]
  81 0012 FFF7FEFF 		bl	memcpy
  96:.\Generated_Source\PSoC5/cyfitter_cfg.c **** }
  82              		.loc 1 96 0
  83 0016 1037     		adds	r7, r7, #16
  84              		.cfi_def_cfa_offset 8
  85 0018 BD46     		mov	sp, r7
  86              		.cfi_def_cfa_register 13
  87              		@ sp needed
  88 001a 80BD     		pop	{r7, pc}
  89              		.cfi_endproc
  90              	.LFE1:
  91              		.size	CYCONFIGCPY, .-CYCONFIGCPY
  92              		.section	.text.CYCONFIGCPYCODE,"ax",%progbits
  93              		.align	2
  94              		.thumb
  95              		.thumb_func
  96              		.type	CYCONFIGCPYCODE, %function
  97              	CYCONFIGCPYCODE:
  98              	.LFB2:
  97:.\Generated_Source\PSoC5/cyfitter_cfg.c **** CY_CFG_UNUSED
  98:.\Generated_Source\PSoC5/cyfitter_cfg.c **** static void CYCONFIGCPYCODE(void *dest, const void *src, size_t n);
  99:.\Generated_Source\PSoC5/cyfitter_cfg.c **** CY_CFG_UNUSED
 100:.\Generated_Source\PSoC5/cyfitter_cfg.c **** static void CYCONFIGCPYCODE(void *dest, const void *src, size_t n)
 101:.\Generated_Source\PSoC5/cyfitter_cfg.c **** {
  99              		.loc 1 101 0
 100              		.cfi_startproc
 101              		@ args = 0, pretend = 0, frame = 16
 102              		@ frame_needed = 1, uses_anonymous_args = 0
 103 0000 80B5     		push	{r7, lr}
 104              		.cfi_def_cfa_offset 8
 105              		.cfi_offset 7, -8
 106              		.cfi_offset 14, -4
 107 0002 84B0     		sub	sp, sp, #16
 108              		.cfi_def_cfa_offset 24
 109 0004 00AF     		add	r7, sp, #0
 110              		.cfi_def_cfa_register 7
 111 0006 F860     		str	r0, [r7, #12]
 112 0008 B960     		str	r1, [r7, #8]
 113 000a 7A60     		str	r2, [r7, #4]
 102:.\Generated_Source\PSoC5/cyfitter_cfg.c **** 	(void)memcpy(dest, src, n);
 114              		.loc 1 102 0
 115 000c F868     		ldr	r0, [r7, #12]
 116 000e B968     		ldr	r1, [r7, #8]
 117 0010 7A68     		ldr	r2, [r7, #4]
 118 0012 FFF7FEFF 		bl	memcpy
 103:.\Generated_Source\PSoC5/cyfitter_cfg.c **** }
 119              		.loc 1 103 0
 120 0016 1037     		adds	r7, r7, #16
 121              		.cfi_def_cfa_offset 8
 122 0018 BD46     		mov	sp, r7
 123              		.cfi_def_cfa_register 13
 124              		@ sp needed
 125 001a 80BD     		pop	{r7, pc}
ARM GAS  C:\Users\kingi\AppData\Local\Temp\ccdFO8Qx.s 			page 5


 126              		.cfi_endproc
 127              	.LFE2:
 128              		.size	CYCONFIGCPYCODE, .-CYCONFIGCPYCODE
 129              		.section	.text.CyClockStartupError,"ax",%progbits
 130              		.align	2
 131              		.thumb
 132              		.thumb_func
 133              		.type	CyClockStartupError, %function
 134              	CyClockStartupError:
 135              	.LFB3:
 104:.\Generated_Source\PSoC5/cyfitter_cfg.c **** 
 105:.\Generated_Source\PSoC5/cyfitter_cfg.c **** 
 106:.\Generated_Source\PSoC5/cyfitter_cfg.c **** 
 107:.\Generated_Source\PSoC5/cyfitter_cfg.c **** /* Clock startup error codes                                                   */
 108:.\Generated_Source\PSoC5/cyfitter_cfg.c **** #define CYCLOCKSTART_NO_ERROR    0u
 109:.\Generated_Source\PSoC5/cyfitter_cfg.c **** #define CYCLOCKSTART_XTAL_ERROR  1u
 110:.\Generated_Source\PSoC5/cyfitter_cfg.c **** #define CYCLOCKSTART_32KHZ_ERROR 2u
 111:.\Generated_Source\PSoC5/cyfitter_cfg.c **** #define CYCLOCKSTART_PLL_ERROR   3u
 112:.\Generated_Source\PSoC5/cyfitter_cfg.c **** 
 113:.\Generated_Source\PSoC5/cyfitter_cfg.c **** #ifdef CY_NEED_CYCLOCKSTARTUPERROR
 114:.\Generated_Source\PSoC5/cyfitter_cfg.c **** /*******************************************************************************
 115:.\Generated_Source\PSoC5/cyfitter_cfg.c **** * Function Name: CyClockStartupError
 116:.\Generated_Source\PSoC5/cyfitter_cfg.c **** ********************************************************************************
 117:.\Generated_Source\PSoC5/cyfitter_cfg.c **** * Summary:
 118:.\Generated_Source\PSoC5/cyfitter_cfg.c **** *  If an error is encountered during clock configuration (crystal startup error,
 119:.\Generated_Source\PSoC5/cyfitter_cfg.c **** *  PLL lock error, etc.), the system will end up here.  Unless reimplemented by
 120:.\Generated_Source\PSoC5/cyfitter_cfg.c **** *  the customer, this function will stop in an infinite loop.
 121:.\Generated_Source\PSoC5/cyfitter_cfg.c **** *
 122:.\Generated_Source\PSoC5/cyfitter_cfg.c **** * Parameters:
 123:.\Generated_Source\PSoC5/cyfitter_cfg.c **** *   void
 124:.\Generated_Source\PSoC5/cyfitter_cfg.c **** *
 125:.\Generated_Source\PSoC5/cyfitter_cfg.c **** * Return:
 126:.\Generated_Source\PSoC5/cyfitter_cfg.c **** *   void
 127:.\Generated_Source\PSoC5/cyfitter_cfg.c **** *
 128:.\Generated_Source\PSoC5/cyfitter_cfg.c **** *******************************************************************************/
 129:.\Generated_Source\PSoC5/cyfitter_cfg.c **** CY_CFG_UNUSED
 130:.\Generated_Source\PSoC5/cyfitter_cfg.c **** static void CyClockStartupError(uint8 errorCode);
 131:.\Generated_Source\PSoC5/cyfitter_cfg.c **** CY_CFG_UNUSED
 132:.\Generated_Source\PSoC5/cyfitter_cfg.c **** static void CyClockStartupError(uint8 errorCode)
 133:.\Generated_Source\PSoC5/cyfitter_cfg.c **** {
 136              		.loc 1 133 0
 137              		.cfi_startproc
 138              		@ args = 0, pretend = 0, frame = 8
 139              		@ frame_needed = 1, uses_anonymous_args = 0
 140              		@ link register save eliminated.
 141 0000 80B4     		push	{r7}
 142              		.cfi_def_cfa_offset 4
 143              		.cfi_offset 7, -4
 144 0002 83B0     		sub	sp, sp, #12
 145              		.cfi_def_cfa_offset 16
 146 0004 00AF     		add	r7, sp, #0
 147              		.cfi_def_cfa_register 7
 148 0006 0346     		mov	r3, r0
 149 0008 FB71     		strb	r3, [r7, #7]
 150              	.L5:
 134:.\Generated_Source\PSoC5/cyfitter_cfg.c ****     /* To remove the compiler warning if errorCode not used.                */
 135:.\Generated_Source\PSoC5/cyfitter_cfg.c ****     errorCode = errorCode;
ARM GAS  C:\Users\kingi\AppData\Local\Temp\ccdFO8Qx.s 			page 6


 136:.\Generated_Source\PSoC5/cyfitter_cfg.c **** 
 137:.\Generated_Source\PSoC5/cyfitter_cfg.c ****     /* `#START CyClockStartupError` */
 138:.\Generated_Source\PSoC5/cyfitter_cfg.c **** 
 139:.\Generated_Source\PSoC5/cyfitter_cfg.c ****     /* If we have a clock startup error (bad MHz crystal, PLL lock, etc.),  */
 140:.\Generated_Source\PSoC5/cyfitter_cfg.c ****     /* we will end up here to allow the customer to implement something to  */
 141:.\Generated_Source\PSoC5/cyfitter_cfg.c ****     /* deal with the clock condition.                                       */
 142:.\Generated_Source\PSoC5/cyfitter_cfg.c **** 
 143:.\Generated_Source\PSoC5/cyfitter_cfg.c ****     /* `#END` */
 144:.\Generated_Source\PSoC5/cyfitter_cfg.c **** 
 145:.\Generated_Source\PSoC5/cyfitter_cfg.c ****     /* If nothing else, stop here since the clocks have not started         */
 146:.\Generated_Source\PSoC5/cyfitter_cfg.c ****     /* correctly.                                                           */
 147:.\Generated_Source\PSoC5/cyfitter_cfg.c ****     while(1) {}
 151              		.loc 1 147 0 discriminator 1
 152 000a FEE7     		b	.L5
 153              		.cfi_endproc
 154              	.LFE3:
 155              		.size	CyClockStartupError, .-CyClockStartupError
 156              		.section	.text.cfg_dma_init,"ax",%progbits
 157              		.align	2
 158              		.thumb
 159              		.thumb_func
 160              		.type	cfg_dma_init, %function
 161              	cfg_dma_init:
 162              	.LFB4:
 148:.\Generated_Source\PSoC5/cyfitter_cfg.c **** }
 149:.\Generated_Source\PSoC5/cyfitter_cfg.c **** #endif
 150:.\Generated_Source\PSoC5/cyfitter_cfg.c **** 
 151:.\Generated_Source\PSoC5/cyfitter_cfg.c **** /* IOPORT_4 Address: CYDEV_PRTDSI_PRT4_BASE Size (bytes): 7 */
 152:.\Generated_Source\PSoC5/cyfitter_cfg.c **** #define BS_IOPORT_4_VAL ((const uint8 CYFAR *)0x48000000u)
 153:.\Generated_Source\PSoC5/cyfitter_cfg.c **** 
 154:.\Generated_Source\PSoC5/cyfitter_cfg.c **** /* IDMUX_IRQ Address: CYREG_IDMUX_IRQ_CTL0 Size (bytes): 8 */
 155:.\Generated_Source\PSoC5/cyfitter_cfg.c **** #define BS_IDMUX_IRQ_VAL ((const uint8 CYFAR *)0x48000008u)
 156:.\Generated_Source\PSoC5/cyfitter_cfg.c **** 
 157:.\Generated_Source\PSoC5/cyfitter_cfg.c **** /* SAR0 Address: CYREG_SAR0_SW0 Size (bytes): 8 */
 158:.\Generated_Source\PSoC5/cyfitter_cfg.c **** #define BS_SAR0_VAL ((const uint8 CYFAR *)0x48000010u)
 159:.\Generated_Source\PSoC5/cyfitter_cfg.c **** 
 160:.\Generated_Source\PSoC5/cyfitter_cfg.c **** /* SAR1 Address: CYREG_SAR1_SW0 Size (bytes): 8 */
 161:.\Generated_Source\PSoC5/cyfitter_cfg.c **** #define BS_SAR1_VAL ((const uint8 CYFAR *)0x48000018u)
 162:.\Generated_Source\PSoC5/cyfitter_cfg.c **** 
 163:.\Generated_Source\PSoC5/cyfitter_cfg.c **** /* UDB_1_5_0_CONFIG Address: CYDEV_UCFG_B0_P0_U0_BASE Size (bytes): 128 */
 164:.\Generated_Source\PSoC5/cyfitter_cfg.c **** #define BS_UDB_1_5_0_CONFIG_VAL ((const uint8 CYFAR *)0x48000020u)
 165:.\Generated_Source\PSoC5/cyfitter_cfg.c **** 
 166:.\Generated_Source\PSoC5/cyfitter_cfg.c **** /* UDB_1_5_1_CONFIG Address: CYDEV_UCFG_B0_P0_U1_BASE Size (bytes): 128 */
 167:.\Generated_Source\PSoC5/cyfitter_cfg.c **** #define BS_UDB_1_5_1_CONFIG_VAL ((const uint8 CYFAR *)0x480000A0u)
 168:.\Generated_Source\PSoC5/cyfitter_cfg.c **** 
 169:.\Generated_Source\PSoC5/cyfitter_cfg.c **** /* UDB_1_4_1_CONFIG Address: CYDEV_UCFG_B0_P1_U0_BASE Size (bytes): 128 */
 170:.\Generated_Source\PSoC5/cyfitter_cfg.c **** #define BS_UDB_1_4_1_CONFIG_VAL ((const uint8 CYFAR *)0x48000120u)
 171:.\Generated_Source\PSoC5/cyfitter_cfg.c **** 
 172:.\Generated_Source\PSoC5/cyfitter_cfg.c **** /* UDB_1_4_0_CONFIG Address: CYDEV_UCFG_B0_P1_U1_BASE Size (bytes): 128 */
 173:.\Generated_Source\PSoC5/cyfitter_cfg.c **** #define BS_UDB_1_4_0_CONFIG_VAL ((const uint8 CYFAR *)0x480001A0u)
 174:.\Generated_Source\PSoC5/cyfitter_cfg.c **** 
 175:.\Generated_Source\PSoC5/cyfitter_cfg.c **** /* UDB_1_3_0_CONFIG Address: CYDEV_UCFG_B0_P2_U0_BASE Size (bytes): 128 */
 176:.\Generated_Source\PSoC5/cyfitter_cfg.c **** #define BS_UDB_1_3_0_CONFIG_VAL ((const uint8 CYFAR *)0x48000220u)
 177:.\Generated_Source\PSoC5/cyfitter_cfg.c **** 
 178:.\Generated_Source\PSoC5/cyfitter_cfg.c **** /* UDB_1_3_1_CONFIG Address: CYDEV_UCFG_B0_P2_U1_BASE Size (bytes): 128 */
 179:.\Generated_Source\PSoC5/cyfitter_cfg.c **** #define BS_UDB_1_3_1_CONFIG_VAL ((const uint8 CYFAR *)0x480002A0u)
 180:.\Generated_Source\PSoC5/cyfitter_cfg.c **** 
ARM GAS  C:\Users\kingi\AppData\Local\Temp\ccdFO8Qx.s 			page 7


 181:.\Generated_Source\PSoC5/cyfitter_cfg.c **** /* UDB_1_2_1_CONFIG Address: CYDEV_UCFG_B0_P3_U0_BASE Size (bytes): 128 */
 182:.\Generated_Source\PSoC5/cyfitter_cfg.c **** #define BS_UDB_1_2_1_CONFIG_VAL ((const uint8 CYFAR *)0x48000320u)
 183:.\Generated_Source\PSoC5/cyfitter_cfg.c **** 
 184:.\Generated_Source\PSoC5/cyfitter_cfg.c **** /* UDB_1_2_0_CONFIG Address: CYDEV_UCFG_B0_P3_U1_BASE Size (bytes): 128 */
 185:.\Generated_Source\PSoC5/cyfitter_cfg.c **** #define BS_UDB_1_2_0_CONFIG_VAL ((const uint8 CYFAR *)0x480003A0u)
 186:.\Generated_Source\PSoC5/cyfitter_cfg.c **** 
 187:.\Generated_Source\PSoC5/cyfitter_cfg.c **** /* UDB_1_0_0_CONFIG Address: CYDEV_UCFG_B1_P2_U0_BASE Size (bytes): 128 */
 188:.\Generated_Source\PSoC5/cyfitter_cfg.c **** #define BS_UDB_1_0_0_CONFIG_VAL ((const uint8 CYFAR *)0x48000420u)
 189:.\Generated_Source\PSoC5/cyfitter_cfg.c **** 
 190:.\Generated_Source\PSoC5/cyfitter_cfg.c **** /* UDB_1_0_1_CONFIG Address: CYDEV_UCFG_B1_P2_U1_BASE Size (bytes): 128 */
 191:.\Generated_Source\PSoC5/cyfitter_cfg.c **** #define BS_UDB_1_0_1_CONFIG_VAL ((const uint8 CYFAR *)0x480004A0u)
 192:.\Generated_Source\PSoC5/cyfitter_cfg.c **** 
 193:.\Generated_Source\PSoC5/cyfitter_cfg.c **** /* UDB_1_1_1_CONFIG Address: CYDEV_UCFG_B1_P3_U0_BASE Size (bytes): 128 */
 194:.\Generated_Source\PSoC5/cyfitter_cfg.c **** #define BS_UDB_1_1_1_CONFIG_VAL ((const uint8 CYFAR *)0x48000520u)
 195:.\Generated_Source\PSoC5/cyfitter_cfg.c **** 
 196:.\Generated_Source\PSoC5/cyfitter_cfg.c **** /* UDB_1_1_0_CONFIG Address: CYDEV_UCFG_B1_P3_U1_BASE Size (bytes): 128 */
 197:.\Generated_Source\PSoC5/cyfitter_cfg.c **** #define BS_UDB_1_1_0_CONFIG_VAL ((const uint8 CYFAR *)0x480005A0u)
 198:.\Generated_Source\PSoC5/cyfitter_cfg.c **** 
 199:.\Generated_Source\PSoC5/cyfitter_cfg.c **** /* UWRK_B0_WRK_STATCTL_BITS Address: CYDEV_UWRK_UWRK8_B0_BASE + 0x00000070u Size (bytes): 32 */
 200:.\Generated_Source\PSoC5/cyfitter_cfg.c **** #define BS_UWRK_B0_WRK_STATCTL_BITS_VAL ((const uint8 CYFAR *)0x48000620u)
 201:.\Generated_Source\PSoC5/cyfitter_cfg.c **** 
 202:.\Generated_Source\PSoC5/cyfitter_cfg.c **** /* UWRK_B1_WRK_STATCTL_BITS Address: CYDEV_UWRK_UWRK8_B1_BASE + 0x00000070u Size (bytes): 32 */
 203:.\Generated_Source\PSoC5/cyfitter_cfg.c **** #define BS_UWRK_B1_WRK_STATCTL_BITS_VAL ((const uint8 CYFAR *)0x48000640u)
 204:.\Generated_Source\PSoC5/cyfitter_cfg.c **** 
 205:.\Generated_Source\PSoC5/cyfitter_cfg.c **** /* UCFG_BCTL1 Address: CYREG_BCTL1_MDCLK_EN Size (bytes): 16 */
 206:.\Generated_Source\PSoC5/cyfitter_cfg.c **** #define BS_UCFG_BCTL1_VAL ((const uint8 CYFAR *)0x48000660u)
 207:.\Generated_Source\PSoC5/cyfitter_cfg.c **** 
 208:.\Generated_Source\PSoC5/cyfitter_cfg.c **** /* UCFG_BCTL0 Address: CYREG_BCTL0_MDCLK_EN Size (bytes): 16 */
 209:.\Generated_Source\PSoC5/cyfitter_cfg.c **** #define BS_UCFG_BCTL0_VAL ((const uint8 CYFAR *)0x48000670u)
 210:.\Generated_Source\PSoC5/cyfitter_cfg.c **** 
 211:.\Generated_Source\PSoC5/cyfitter_cfg.c **** /* DSISWITCH_0_0 Address: CYDEV_UCFG_DSI13_BASE Size (bytes): 128 */
 212:.\Generated_Source\PSoC5/cyfitter_cfg.c **** #define BS_DSISWITCH_0_0_VAL ((const uint8 CYFAR *)0x48000680u)
 213:.\Generated_Source\PSoC5/cyfitter_cfg.c **** 
 214:.\Generated_Source\PSoC5/cyfitter_cfg.c **** /* DSI0_0_HV_ROUTING Address: CYDEV_UCFG_DSI13_BASE + 0x00000080u Size (bytes): 128 */
 215:.\Generated_Source\PSoC5/cyfitter_cfg.c **** #define BS_DSI0_0_HV_ROUTING_VAL ((const uint8 CYFAR *)0x48000700u)
 216:.\Generated_Source\PSoC5/cyfitter_cfg.c **** 
 217:.\Generated_Source\PSoC5/cyfitter_cfg.c **** /* DSISWITCH_0_1 Address: CYDEV_UCFG_DSI12_BASE Size (bytes): 128 */
 218:.\Generated_Source\PSoC5/cyfitter_cfg.c **** #define BS_DSISWITCH_0_1_VAL ((const uint8 CYFAR *)0x48000780u)
 219:.\Generated_Source\PSoC5/cyfitter_cfg.c **** 
 220:.\Generated_Source\PSoC5/cyfitter_cfg.c **** /* DSI0_1_HV_ROUTING Address: CYDEV_UCFG_DSI12_BASE + 0x00000080u Size (bytes): 128 */
 221:.\Generated_Source\PSoC5/cyfitter_cfg.c **** #define BS_DSI0_1_HV_ROUTING_VAL ((const uint8 CYFAR *)0x48000800u)
 222:.\Generated_Source\PSoC5/cyfitter_cfg.c **** 
 223:.\Generated_Source\PSoC5/cyfitter_cfg.c **** /* DSISWITCH_0_2 Address: CYDEV_UCFG_DSI7_BASE Size (bytes): 128 */
 224:.\Generated_Source\PSoC5/cyfitter_cfg.c **** #define BS_DSISWITCH_0_2_VAL ((const uint8 CYFAR *)0x48000880u)
 225:.\Generated_Source\PSoC5/cyfitter_cfg.c **** 
 226:.\Generated_Source\PSoC5/cyfitter_cfg.c **** /* DSI0_2_HV_ROUTING Address: CYDEV_UCFG_DSI7_BASE + 0x00000080u Size (bytes): 128 */
 227:.\Generated_Source\PSoC5/cyfitter_cfg.c **** #define BS_DSI0_2_HV_ROUTING_VAL ((const uint8 CYFAR *)0x48000900u)
 228:.\Generated_Source\PSoC5/cyfitter_cfg.c **** 
 229:.\Generated_Source\PSoC5/cyfitter_cfg.c **** /* DSISWITCH_0_3 Address: CYDEV_UCFG_DSI6_BASE Size (bytes): 128 */
 230:.\Generated_Source\PSoC5/cyfitter_cfg.c **** #define BS_DSISWITCH_0_3_VAL ((const uint8 CYFAR *)0x48000980u)
 231:.\Generated_Source\PSoC5/cyfitter_cfg.c **** 
 232:.\Generated_Source\PSoC5/cyfitter_cfg.c **** /* DSI0_3_HV_ROUTING Address: CYDEV_UCFG_DSI6_BASE + 0x00000080u Size (bytes): 128 */
 233:.\Generated_Source\PSoC5/cyfitter_cfg.c **** #define BS_DSI0_3_HV_ROUTING_VAL ((const uint8 CYFAR *)0x48000A00u)
 234:.\Generated_Source\PSoC5/cyfitter_cfg.c **** 
 235:.\Generated_Source\PSoC5/cyfitter_cfg.c **** /* DSI0_4_HV_ROUTING Address: CYDEV_UCFG_DSI5_BASE + 0x00000080u Size (bytes): 128 */
 236:.\Generated_Source\PSoC5/cyfitter_cfg.c **** #define BS_DSI0_4_HV_ROUTING_VAL ((const uint8 CYFAR *)0x48000A80u)
 237:.\Generated_Source\PSoC5/cyfitter_cfg.c **** 
ARM GAS  C:\Users\kingi\AppData\Local\Temp\ccdFO8Qx.s 			page 8


 238:.\Generated_Source\PSoC5/cyfitter_cfg.c **** /* DSI0_5_HV_ROUTING Address: CYDEV_UCFG_DSI4_BASE + 0x00000080u Size (bytes): 128 */
 239:.\Generated_Source\PSoC5/cyfitter_cfg.c **** #define BS_DSI0_5_HV_ROUTING_VAL ((const uint8 CYFAR *)0x48000B00u)
 240:.\Generated_Source\PSoC5/cyfitter_cfg.c **** 
 241:.\Generated_Source\PSoC5/cyfitter_cfg.c **** /* UDB_1_0_HV_ROUTING Address: CYDEV_UCFG_B1_P5_ROUTE_BASE + 0x00000080u Size (bytes): 128 */
 242:.\Generated_Source\PSoC5/cyfitter_cfg.c **** #define BS_UDB_1_0_HV_ROUTING_VAL ((const uint8 CYFAR *)0x48000B80u)
 243:.\Generated_Source\PSoC5/cyfitter_cfg.c **** 
 244:.\Generated_Source\PSoC5/cyfitter_cfg.c **** /* UDBSWITCH_1_0 Address: CYDEV_UCFG_B1_P2_ROUTE_BASE Size (bytes): 128 */
 245:.\Generated_Source\PSoC5/cyfitter_cfg.c **** #define BS_UDBSWITCH_1_0_VAL ((const uint8 CYFAR *)0x48000C00u)
 246:.\Generated_Source\PSoC5/cyfitter_cfg.c **** 
 247:.\Generated_Source\PSoC5/cyfitter_cfg.c **** /* UDB_2_0_HV_ROUTING Address: CYDEV_UCFG_B1_P2_ROUTE_BASE + 0x00000080u Size (bytes): 128 */
 248:.\Generated_Source\PSoC5/cyfitter_cfg.c **** #define BS_UDB_2_0_HV_ROUTING_VAL ((const uint8 CYFAR *)0x48000C80u)
 249:.\Generated_Source\PSoC5/cyfitter_cfg.c **** 
 250:.\Generated_Source\PSoC5/cyfitter_cfg.c **** /* UDBSWITCH_1_1 Address: CYDEV_UCFG_B1_P3_ROUTE_BASE Size (bytes): 128 */
 251:.\Generated_Source\PSoC5/cyfitter_cfg.c **** #define BS_UDBSWITCH_1_1_VAL ((const uint8 CYFAR *)0x48000D00u)
 252:.\Generated_Source\PSoC5/cyfitter_cfg.c **** 
 253:.\Generated_Source\PSoC5/cyfitter_cfg.c **** /* UDB_2_1_HV_ROUTING Address: CYDEV_UCFG_B1_P3_ROUTE_BASE + 0x00000080u Size (bytes): 128 */
 254:.\Generated_Source\PSoC5/cyfitter_cfg.c **** #define BS_UDB_2_1_HV_ROUTING_VAL ((const uint8 CYFAR *)0x48000D80u)
 255:.\Generated_Source\PSoC5/cyfitter_cfg.c **** 
 256:.\Generated_Source\PSoC5/cyfitter_cfg.c **** /* UDB_1_2_HV_ROUTING Address: CYDEV_UCFG_B0_P4_ROUTE_BASE + 0x00000080u Size (bytes): 128 */
 257:.\Generated_Source\PSoC5/cyfitter_cfg.c **** #define BS_UDB_1_2_HV_ROUTING_VAL ((const uint8 CYFAR *)0x48000E00u)
 258:.\Generated_Source\PSoC5/cyfitter_cfg.c **** 
 259:.\Generated_Source\PSoC5/cyfitter_cfg.c **** /* UDBSWITCH_1_2 Address: CYDEV_UCFG_B0_P3_ROUTE_BASE Size (bytes): 128 */
 260:.\Generated_Source\PSoC5/cyfitter_cfg.c **** #define BS_UDBSWITCH_1_2_VAL ((const uint8 CYFAR *)0x48000E80u)
 261:.\Generated_Source\PSoC5/cyfitter_cfg.c **** 
 262:.\Generated_Source\PSoC5/cyfitter_cfg.c **** /* UDB_2_2_HV_ROUTING Address: CYDEV_UCFG_B0_P3_ROUTE_BASE + 0x00000080u Size (bytes): 128 */
 263:.\Generated_Source\PSoC5/cyfitter_cfg.c **** #define BS_UDB_2_2_HV_ROUTING_VAL ((const uint8 CYFAR *)0x48000F00u)
 264:.\Generated_Source\PSoC5/cyfitter_cfg.c **** 
 265:.\Generated_Source\PSoC5/cyfitter_cfg.c **** /* UDBSWITCH_1_3 Address: CYDEV_UCFG_B0_P2_ROUTE_BASE Size (bytes): 128 */
 266:.\Generated_Source\PSoC5/cyfitter_cfg.c **** #define BS_UDBSWITCH_1_3_VAL ((const uint8 CYFAR *)0x48000F80u)
 267:.\Generated_Source\PSoC5/cyfitter_cfg.c **** 
 268:.\Generated_Source\PSoC5/cyfitter_cfg.c **** /* UDB_2_3_HV_ROUTING Address: CYDEV_UCFG_B0_P2_ROUTE_BASE + 0x00000080u Size (bytes): 128 */
 269:.\Generated_Source\PSoC5/cyfitter_cfg.c **** #define BS_UDB_2_3_HV_ROUTING_VAL ((const uint8 CYFAR *)0x48001000u)
 270:.\Generated_Source\PSoC5/cyfitter_cfg.c **** 
 271:.\Generated_Source\PSoC5/cyfitter_cfg.c **** /* UDBSWITCH_1_4 Address: CYDEV_UCFG_B0_P1_ROUTE_BASE Size (bytes): 128 */
 272:.\Generated_Source\PSoC5/cyfitter_cfg.c **** #define BS_UDBSWITCH_1_4_VAL ((const uint8 CYFAR *)0x48001080u)
 273:.\Generated_Source\PSoC5/cyfitter_cfg.c **** 
 274:.\Generated_Source\PSoC5/cyfitter_cfg.c **** /* UDB_2_4_HV_ROUTING Address: CYDEV_UCFG_B0_P1_ROUTE_BASE + 0x00000080u Size (bytes): 128 */
 275:.\Generated_Source\PSoC5/cyfitter_cfg.c **** #define BS_UDB_2_4_HV_ROUTING_VAL ((const uint8 CYFAR *)0x48001100u)
 276:.\Generated_Source\PSoC5/cyfitter_cfg.c **** 
 277:.\Generated_Source\PSoC5/cyfitter_cfg.c **** /* UDB_1_5_HV_ROUTING Address: CYDEV_UCFG_B0_P7_ROUTE_BASE + 0x00000080u Size (bytes): 128 */
 278:.\Generated_Source\PSoC5/cyfitter_cfg.c **** #define BS_UDB_1_5_HV_ROUTING_VAL ((const uint8 CYFAR *)0x48001180u)
 279:.\Generated_Source\PSoC5/cyfitter_cfg.c **** 
 280:.\Generated_Source\PSoC5/cyfitter_cfg.c **** /* UDBSWITCH_1_5 Address: CYDEV_UCFG_B0_P0_ROUTE_BASE Size (bytes): 128 */
 281:.\Generated_Source\PSoC5/cyfitter_cfg.c **** #define BS_UDBSWITCH_1_5_VAL ((const uint8 CYFAR *)0x48001200u)
 282:.\Generated_Source\PSoC5/cyfitter_cfg.c **** 
 283:.\Generated_Source\PSoC5/cyfitter_cfg.c **** /* UDB_2_5_HV_ROUTING Address: CYDEV_UCFG_B0_P0_ROUTE_BASE + 0x00000080u Size (bytes): 128 */
 284:.\Generated_Source\PSoC5/cyfitter_cfg.c **** #define BS_UDB_2_5_HV_ROUTING_VAL ((const uint8 CYFAR *)0x48001280u)
 285:.\Generated_Source\PSoC5/cyfitter_cfg.c **** 
 286:.\Generated_Source\PSoC5/cyfitter_cfg.c **** /* DSI3_0_HV_ROUTING Address: CYDEV_UCFG_DSI9_BASE + 0x00000080u Size (bytes): 128 */
 287:.\Generated_Source\PSoC5/cyfitter_cfg.c **** #define BS_DSI3_0_HV_ROUTING_VAL ((const uint8 CYFAR *)0x48001300u)
 288:.\Generated_Source\PSoC5/cyfitter_cfg.c **** 
 289:.\Generated_Source\PSoC5/cyfitter_cfg.c **** /* DSISWITCH_1_1 Address: CYDEV_UCFG_DSI8_BASE Size (bytes): 128 */
 290:.\Generated_Source\PSoC5/cyfitter_cfg.c **** #define BS_DSISWITCH_1_1_VAL ((const uint8 CYFAR *)0x48001380u)
 291:.\Generated_Source\PSoC5/cyfitter_cfg.c **** 
 292:.\Generated_Source\PSoC5/cyfitter_cfg.c **** /* DSI3_1_HV_ROUTING Address: CYDEV_UCFG_DSI8_BASE + 0x00000080u Size (bytes): 128 */
 293:.\Generated_Source\PSoC5/cyfitter_cfg.c **** #define BS_DSI3_1_HV_ROUTING_VAL ((const uint8 CYFAR *)0x48001400u)
 294:.\Generated_Source\PSoC5/cyfitter_cfg.c **** 
ARM GAS  C:\Users\kingi\AppData\Local\Temp\ccdFO8Qx.s 			page 9


 295:.\Generated_Source\PSoC5/cyfitter_cfg.c **** /* DSI3_2_HV_ROUTING Address: CYDEV_UCFG_DSI3_BASE + 0x00000080u Size (bytes): 128 */
 296:.\Generated_Source\PSoC5/cyfitter_cfg.c **** #define BS_DSI3_2_HV_ROUTING_VAL ((const uint8 CYFAR *)0x48001480u)
 297:.\Generated_Source\PSoC5/cyfitter_cfg.c **** 
 298:.\Generated_Source\PSoC5/cyfitter_cfg.c **** /* DSI3_3_HV_ROUTING Address: CYDEV_UCFG_DSI2_BASE + 0x00000080u Size (bytes): 128 */
 299:.\Generated_Source\PSoC5/cyfitter_cfg.c **** #define BS_DSI3_3_HV_ROUTING_VAL ((const uint8 CYFAR *)0x48001500u)
 300:.\Generated_Source\PSoC5/cyfitter_cfg.c **** 
 301:.\Generated_Source\PSoC5/cyfitter_cfg.c **** /* DSISWITCH_1_4 Address: CYDEV_UCFG_DSI1_BASE Size (bytes): 128 */
 302:.\Generated_Source\PSoC5/cyfitter_cfg.c **** #define BS_DSISWITCH_1_4_VAL ((const uint8 CYFAR *)0x48001580u)
 303:.\Generated_Source\PSoC5/cyfitter_cfg.c **** 
 304:.\Generated_Source\PSoC5/cyfitter_cfg.c **** /* DSI3_4_HV_ROUTING Address: CYDEV_UCFG_DSI1_BASE + 0x00000080u Size (bytes): 128 */
 305:.\Generated_Source\PSoC5/cyfitter_cfg.c **** #define BS_DSI3_4_HV_ROUTING_VAL ((const uint8 CYFAR *)0x48001600u)
 306:.\Generated_Source\PSoC5/cyfitter_cfg.c **** 
 307:.\Generated_Source\PSoC5/cyfitter_cfg.c **** /* DSISWITCH_1_5 Address: CYDEV_UCFG_DSI0_BASE Size (bytes): 128 */
 308:.\Generated_Source\PSoC5/cyfitter_cfg.c **** #define BS_DSISWITCH_1_5_VAL ((const uint8 CYFAR *)0x48001680u)
 309:.\Generated_Source\PSoC5/cyfitter_cfg.c **** 
 310:.\Generated_Source\PSoC5/cyfitter_cfg.c **** /* DSI3_5_HV_ROUTING Address: CYDEV_UCFG_DSI0_BASE + 0x00000080u Size (bytes): 128 */
 311:.\Generated_Source\PSoC5/cyfitter_cfg.c **** #define BS_DSI3_5_HV_ROUTING_VAL ((const uint8 CYFAR *)0x48001700u)
 312:.\Generated_Source\PSoC5/cyfitter_cfg.c **** 
 313:.\Generated_Source\PSoC5/cyfitter_cfg.c **** /* IOPINS0_0 Address: CYREG_PRT0_DM0 Size (bytes): 8 */
 314:.\Generated_Source\PSoC5/cyfitter_cfg.c **** #define BS_IOPINS0_0_VAL ((const uint8 CYFAR *)0x48001780u)
 315:.\Generated_Source\PSoC5/cyfitter_cfg.c **** 
 316:.\Generated_Source\PSoC5/cyfitter_cfg.c **** /* IOPINS0_2 Address: CYREG_PRT2_DM0 Size (bytes): 8 */
 317:.\Generated_Source\PSoC5/cyfitter_cfg.c **** #define BS_IOPINS0_2_VAL ((const uint8 CYFAR *)0x48001788u)
 318:.\Generated_Source\PSoC5/cyfitter_cfg.c **** 
 319:.\Generated_Source\PSoC5/cyfitter_cfg.c **** /* IOPINS0_4 Address: CYREG_PRT4_DR Size (bytes): 10 */
 320:.\Generated_Source\PSoC5/cyfitter_cfg.c **** #define BS_IOPINS0_4_VAL ((const uint8 CYFAR *)0x48001790u)
 321:.\Generated_Source\PSoC5/cyfitter_cfg.c **** 
 322:.\Generated_Source\PSoC5/cyfitter_cfg.c **** /* IOPINS0_5 Address: CYREG_PRT5_DM0 Size (bytes): 8 */
 323:.\Generated_Source\PSoC5/cyfitter_cfg.c **** #define BS_IOPINS0_5_VAL ((const uint8 CYFAR *)0x4800179Cu)
 324:.\Generated_Source\PSoC5/cyfitter_cfg.c **** 
 325:.\Generated_Source\PSoC5/cyfitter_cfg.c **** 
 326:.\Generated_Source\PSoC5/cyfitter_cfg.c **** /*******************************************************************************
 327:.\Generated_Source\PSoC5/cyfitter_cfg.c **** * Function Name: cfg_dma_init
 328:.\Generated_Source\PSoC5/cyfitter_cfg.c **** ********************************************************************************
 329:.\Generated_Source\PSoC5/cyfitter_cfg.c **** * Summary:
 330:.\Generated_Source\PSoC5/cyfitter_cfg.c **** *  This function is used to copy device configuration data from constant values
 331:.\Generated_Source\PSoC5/cyfitter_cfg.c **** *  stored in memory into the proper chip configuration registers using DMA.  It
 332:.\Generated_Source\PSoC5/cyfitter_cfg.c **** *  pulls data out of the CFG_TD_LISTs to know exactly how/what to configure.
 333:.\Generated_Source\PSoC5/cyfitter_cfg.c **** *
 334:.\Generated_Source\PSoC5/cyfitter_cfg.c **** * Parameters:  
 335:.\Generated_Source\PSoC5/cyfitter_cfg.c **** *   void
 336:.\Generated_Source\PSoC5/cyfitter_cfg.c **** *
 337:.\Generated_Source\PSoC5/cyfitter_cfg.c **** * Return:
 338:.\Generated_Source\PSoC5/cyfitter_cfg.c **** *   void
 339:.\Generated_Source\PSoC5/cyfitter_cfg.c **** *
 340:.\Generated_Source\PSoC5/cyfitter_cfg.c **** *******************************************************************************/
 341:.\Generated_Source\PSoC5/cyfitter_cfg.c **** static void cfg_dma_init(void);
 342:.\Generated_Source\PSoC5/cyfitter_cfg.c **** static void cfg_dma_init(void)
 343:.\Generated_Source\PSoC5/cyfitter_cfg.c **** {
 163              		.loc 1 343 0
 164              		.cfi_startproc
 165              		@ args = 0, pretend = 0, frame = 8
 166              		@ frame_needed = 1, uses_anonymous_args = 0
 167              		@ link register save eliminated.
 168 0000 80B4     		push	{r7}
 169              		.cfi_def_cfa_offset 4
 170              		.cfi_offset 7, -4
ARM GAS  C:\Users\kingi\AppData\Local\Temp\ccdFO8Qx.s 			page 10


 171 0002 83B0     		sub	sp, sp, #12
 172              		.cfi_def_cfa_offset 16
 173 0004 00AF     		add	r7, sp, #0
 174              		.cfi_def_cfa_register 7
 344:.\Generated_Source\PSoC5/cyfitter_cfg.c **** 	/* TD structure for little-endian systems. Does not require endian swap */
 345:.\Generated_Source\PSoC5/cyfitter_cfg.c **** 	CYPACKED struct td_t {
 346:.\Generated_Source\PSoC5/cyfitter_cfg.c **** 		uint16 size;
 347:.\Generated_Source\PSoC5/cyfitter_cfg.c **** 		uint8 next_td_ptr;
 348:.\Generated_Source\PSoC5/cyfitter_cfg.c **** 		uint8 flags;
 349:.\Generated_Source\PSoC5/cyfitter_cfg.c **** 		uint16 src;
 350:.\Generated_Source\PSoC5/cyfitter_cfg.c **** 		uint16 dest;
 351:.\Generated_Source\PSoC5/cyfitter_cfg.c **** 	} CYPACKED_ATTR;
 352:.\Generated_Source\PSoC5/cyfitter_cfg.c **** 
 353:.\Generated_Source\PSoC5/cyfitter_cfg.c **** 	/* PHUB_CH1_CFGMEM_CFG0/1 initialization data */
 354:.\Generated_Source\PSoC5/cyfitter_cfg.c **** 	DMAINITSEC static const uint8 CYCODE CH1_ADDR_DATA0[] = { 0x01u, 0x00u, 0x00u, 0x00u, 0x00u, 0x20u
 355:.\Generated_Source\PSoC5/cyfitter_cfg.c **** 
 356:.\Generated_Source\PSoC5/cyfitter_cfg.c **** 	/* PHUB_CH2_CFGMEM_CFG0/1 initialization data */
 357:.\Generated_Source\PSoC5/cyfitter_cfg.c **** 	DMAINITSEC static const uint8 CYCODE CH2_ADDR_DATA0[] = { 0x01u, 0x00u, 0x00u, 0x00u, 0x00u, 0x20u
 358:.\Generated_Source\PSoC5/cyfitter_cfg.c **** 
 359:.\Generated_Source\PSoC5/cyfitter_cfg.c **** 	/* PHUB_CH5_CFGMEM_CFG0/1 initialization data */
 360:.\Generated_Source\PSoC5/cyfitter_cfg.c **** 	DMAINITSEC static const uint8 CYCODE CH5_ADDR_DATA0[] = { 0x01u, 0x00u, 0x00u, 0x00u, 0x00u, 0x48u
 361:.\Generated_Source\PSoC5/cyfitter_cfg.c **** 
 362:.\Generated_Source\PSoC5/cyfitter_cfg.c **** 	/* PHUB_CH6_CFGMEM_CFG0/1 initialization data */
 363:.\Generated_Source\PSoC5/cyfitter_cfg.c **** 	DMAINITSEC static const uint8 CYCODE CH6_ADDR_DATA0[] = { 0x01u, 0x00u, 0x00u, 0x00u, 0x00u, 0x48u
 364:.\Generated_Source\PSoC5/cyfitter_cfg.c **** 
 365:.\Generated_Source\PSoC5/cyfitter_cfg.c **** 	/* Initialization data for each DMA channel's TD registers */
 366:.\Generated_Source\PSoC5/cyfitter_cfg.c **** 	DMAINITSEC static const uint8 CYCODE DMA_TD_START_CMD[] = { 0x01u, 0x00u, 0x00u, 0x00u, 0x01u };
 367:.\Generated_Source\PSoC5/cyfitter_cfg.c **** 
 368:.\Generated_Source\PSoC5/cyfitter_cfg.c **** 	CYALIGNED static uint32 CYXDATA DMA_ZERO_VAL;
 369:.\Generated_Source\PSoC5/cyfitter_cfg.c **** 
 370:.\Generated_Source\PSoC5/cyfitter_cfg.c **** 	/* This table holds all of the initialization data necessary for the DMA
 371:.\Generated_Source\PSoC5/cyfitter_cfg.c **** 	   process to transfer data from the source location to the destination. */
 372:.\Generated_Source\PSoC5/cyfitter_cfg.c **** 	/* Source addresses can be relocated, but only when in 32bit addresses.
 373:.\Generated_Source\PSoC5/cyfitter_cfg.c **** 	   Because the standard TD table only has 16bit addresses, we generate a
 374:.\Generated_Source\PSoC5/cyfitter_cfg.c **** 	   separate CFG_TD_ADDR table for the source addresses that supports 32bit
 375:.\Generated_Source\PSoC5/cyfitter_cfg.c **** 	   addresses. */
 376:.\Generated_Source\PSoC5/cyfitter_cfg.c **** 	DMAINITSEC static const struct td_t CYCODE CFG_TD_LIST0[] = {
 377:.\Generated_Source\PSoC5/cyfitter_cfg.c **** 		/* Size, Next, Flags, Source, Destination */
 378:.\Generated_Source\PSoC5/cyfitter_cfg.c **** 		{ 8u, 0x02u, 0x23u, (uint16)(uint32)(0u), (uint16)(CYREG_PHUB_CFGMEM1_CFG0) },	/* TD 1 */
 379:.\Generated_Source\PSoC5/cyfitter_cfg.c **** 		{ 8u, 0x03u, 0x23u, (uint16)(uint32)(0u), (uint16)(CYREG_PHUB_CFGMEM2_CFG0) },	/* TD 2 */
 380:.\Generated_Source\PSoC5/cyfitter_cfg.c **** 		{ 8u, 0x04u, 0x23u, (uint16)(uint32)(0u), (uint16)(CYREG_PHUB_CFGMEM5_CFG0) },	/* TD 3 */
 381:.\Generated_Source\PSoC5/cyfitter_cfg.c **** 		{ 8u, 0x05u, 0x23u, (uint16)(uint32)(0u), (uint16)(CYREG_PHUB_CFGMEM6_CFG0) },	/* TD 4 */
 382:.\Generated_Source\PSoC5/cyfitter_cfg.c **** 		{ 5u, 0x06u, 0x23u, (uint16)(uint32)(0u), (uint16)(CYREG_PHUB_CH1_BASIC_CFG) },	/* TD 5 */
 383:.\Generated_Source\PSoC5/cyfitter_cfg.c **** 		{ 5u, 0x07u, 0x23u, (uint16)(uint32)(0u), (uint16)(CYREG_PHUB_CH2_BASIC_CFG) },	/* TD 6 */
 384:.\Generated_Source\PSoC5/cyfitter_cfg.c **** 		{ 5u, 0x08u, 0x23u, (uint16)(uint32)(0u), (uint16)(CYREG_PHUB_CH5_BASIC_CFG) },	/* TD 7 */
 385:.\Generated_Source\PSoC5/cyfitter_cfg.c **** 		{ 5u, 0xFEu, 0x23u, (uint16)(uint32)(0u), (uint16)(CYREG_PHUB_CH6_BASIC_CFG) },	/* TD 8 */
 386:.\Generated_Source\PSoC5/cyfitter_cfg.c **** 		{ 16u, 0x0Au, 0x22u, (uint16)(uint32)(0u), (uint16)(CYREG_PRT1_DR) },	/* TD 9 */
 387:.\Generated_Source\PSoC5/cyfitter_cfg.c **** 		{ 16u, 0x0Bu, 0x22u, (uint16)(uint32)(0u), (uint16)(CYREG_PRT3_DR) },	/* TD 10 */
 388:.\Generated_Source\PSoC5/cyfitter_cfg.c **** 		{ 16u, 0x0Cu, 0x22u, (uint16)(uint32)(0u), (uint16)(CYREG_PRT6_DR) },	/* TD 11 */
 389:.\Generated_Source\PSoC5/cyfitter_cfg.c **** 		{ 16u, 0x0Du, 0x22u, (uint16)(uint32)(0u), (uint16)(CYREG_PRT12_DR) },	/* TD 12 */
 390:.\Generated_Source\PSoC5/cyfitter_cfg.c **** 		{ 16u, 0xFEu, 0x22u, (uint16)(uint32)(0u), (uint16)(CYREG_PRT15_DR) },	/* TD 13 */
 391:.\Generated_Source\PSoC5/cyfitter_cfg.c **** 		{ 384u, 0x0Fu, 0x22u, (uint16)(uint32)(0u), (uint16)(CYDEV_UCFG_B0_P4_U0_BASE) },	/* TD 14 */
 392:.\Generated_Source\PSoC5/cyfitter_cfg.c **** 		{ 1408u, 0x10u, 0x22u, (uint16)(uint32)(0u), (uint16)(CYDEV_UCFG_B0_P5_U0_BASE) },	/* TD 15 */
 393:.\Generated_Source\PSoC5/cyfitter_cfg.c **** 		{ 896u, 0x11u, 0x22u, (uint16)(uint32)(0u), (uint16)(CYDEV_UCFG_B1_P4_U0_BASE) },	/* TD 16 */
 394:.\Generated_Source\PSoC5/cyfitter_cfg.c **** 		{ 128u, 0x12u, 0x22u, (uint16)(uint32)(0u), (uint16)(CYDEV_UCFG_DSI2_BASE) },	/* TD 17 */
 395:.\Generated_Source\PSoC5/cyfitter_cfg.c **** 		{ 128u, 0x13u, 0x22u, (uint16)(uint32)(0u), (uint16)(CYDEV_UCFG_DSI3_BASE) },	/* TD 18 */
 396:.\Generated_Source\PSoC5/cyfitter_cfg.c **** 		{ 128u, 0x14u, 0x22u, (uint16)(uint32)(0u), (uint16)(CYDEV_UCFG_DSI4_BASE) },	/* TD 19 */
ARM GAS  C:\Users\kingi\AppData\Local\Temp\ccdFO8Qx.s 			page 11


 397:.\Generated_Source\PSoC5/cyfitter_cfg.c **** 		{ 128u, 0x15u, 0x22u, (uint16)(uint32)(0u), (uint16)(CYDEV_UCFG_DSI5_BASE) },	/* TD 20 */
 398:.\Generated_Source\PSoC5/cyfitter_cfg.c **** 		{ 128u, 0xFEu, 0x22u, (uint16)(uint32)(0u), (uint16)(CYDEV_UCFG_DSI9_BASE) },	/* TD 21 */
 399:.\Generated_Source\PSoC5/cyfitter_cfg.c **** 		{ 7u, 0x17u, 0x23u, (uint16)(uint32)(0u), (uint16)(CYDEV_PRTDSI_PRT4_BASE) },	/* TD 22 */
 400:.\Generated_Source\PSoC5/cyfitter_cfg.c **** 		{ 8u, 0x18u, 0x23u, (uint16)(uint32)(0u), (uint16)(CYREG_SAR0_SW0) },	/* TD 23 */
 401:.\Generated_Source\PSoC5/cyfitter_cfg.c **** 		{ 8u, 0x19u, 0x23u, (uint16)(uint32)(0u), (uint16)(CYREG_SAR1_SW0) },	/* TD 24 */
 402:.\Generated_Source\PSoC5/cyfitter_cfg.c **** 		{ 32u, 0x1Au, 0x23u, (uint16)(uint32)(0u), (uint16)(CYDEV_UWRK_UWRK8_B0_BASE + 0x00000070u) },	/*
 403:.\Generated_Source\PSoC5/cyfitter_cfg.c **** 		{ 32u, 0xFEu, 0x23u, (uint16)(uint32)(0u), (uint16)(CYDEV_UWRK_UWRK8_B1_BASE + 0x00000070u) },	/*
 404:.\Generated_Source\PSoC5/cyfitter_cfg.c **** 		{ 8u, 0x1Cu, 0x23u, (uint16)(uint32)(0u), (uint16)(CYREG_IDMUX_IRQ_CTL0) },	/* TD 27 */
 405:.\Generated_Source\PSoC5/cyfitter_cfg.c **** 		{ 128u, 0x1Du, 0x23u, (uint16)(uint32)(0u), (uint16)(CYDEV_UCFG_B0_P0_U0_BASE) },	/* TD 28 */
 406:.\Generated_Source\PSoC5/cyfitter_cfg.c **** 		{ 128u, 0x1Eu, 0x23u, (uint16)(uint32)(0u), (uint16)(CYDEV_UCFG_B0_P0_U1_BASE) },	/* TD 29 */
 407:.\Generated_Source\PSoC5/cyfitter_cfg.c **** 		{ 128u, 0x1Fu, 0x23u, (uint16)(uint32)(0u), (uint16)(CYDEV_UCFG_B0_P1_U0_BASE) },	/* TD 30 */
 408:.\Generated_Source\PSoC5/cyfitter_cfg.c **** 		{ 128u, 0x20u, 0x23u, (uint16)(uint32)(0u), (uint16)(CYDEV_UCFG_B0_P1_U1_BASE) },	/* TD 31 */
 409:.\Generated_Source\PSoC5/cyfitter_cfg.c **** 		{ 128u, 0x21u, 0x23u, (uint16)(uint32)(0u), (uint16)(CYDEV_UCFG_B0_P2_U0_BASE) },	/* TD 32 */
 410:.\Generated_Source\PSoC5/cyfitter_cfg.c **** 		{ 128u, 0x22u, 0x23u, (uint16)(uint32)(0u), (uint16)(CYDEV_UCFG_B0_P2_U1_BASE) },	/* TD 33 */
 411:.\Generated_Source\PSoC5/cyfitter_cfg.c **** 		{ 128u, 0x23u, 0x23u, (uint16)(uint32)(0u), (uint16)(CYDEV_UCFG_B0_P3_U0_BASE) },	/* TD 34 */
 412:.\Generated_Source\PSoC5/cyfitter_cfg.c **** 		{ 128u, 0x24u, 0x23u, (uint16)(uint32)(0u), (uint16)(CYDEV_UCFG_B0_P3_U1_BASE) },	/* TD 35 */
 413:.\Generated_Source\PSoC5/cyfitter_cfg.c **** 		{ 128u, 0x25u, 0x23u, (uint16)(uint32)(0u), (uint16)(CYDEV_UCFG_B1_P2_U0_BASE) },	/* TD 36 */
 414:.\Generated_Source\PSoC5/cyfitter_cfg.c **** 		{ 128u, 0x26u, 0x23u, (uint16)(uint32)(0u), (uint16)(CYDEV_UCFG_B1_P2_U1_BASE) },	/* TD 37 */
 415:.\Generated_Source\PSoC5/cyfitter_cfg.c **** 		{ 128u, 0x27u, 0x23u, (uint16)(uint32)(0u), (uint16)(CYDEV_UCFG_B1_P3_U0_BASE) },	/* TD 38 */
 416:.\Generated_Source\PSoC5/cyfitter_cfg.c **** 		{ 128u, 0x28u, 0x23u, (uint16)(uint32)(0u), (uint16)(CYDEV_UCFG_B1_P3_U1_BASE) },	/* TD 39 */
 417:.\Generated_Source\PSoC5/cyfitter_cfg.c **** 		{ 16u, 0x29u, 0x23u, (uint16)(uint32)(0u), (uint16)(CYREG_BCTL1_MDCLK_EN) },	/* TD 40 */
 418:.\Generated_Source\PSoC5/cyfitter_cfg.c **** 		{ 16u, 0x2Au, 0x23u, (uint16)(uint32)(0u), (uint16)(CYREG_BCTL0_MDCLK_EN) },	/* TD 41 */
 419:.\Generated_Source\PSoC5/cyfitter_cfg.c **** 		{ 128u, 0x2Bu, 0x23u, (uint16)(uint32)(0u), (uint16)(CYDEV_UCFG_DSI13_BASE) },	/* TD 42 */
 420:.\Generated_Source\PSoC5/cyfitter_cfg.c **** 		{ 128u, 0x2Cu, 0x23u, (uint16)(uint32)(0u), (uint16)(CYDEV_UCFG_DSI13_BASE + 0x00000080u) },	/* T
 421:.\Generated_Source\PSoC5/cyfitter_cfg.c **** 		{ 128u, 0x2Du, 0x23u, (uint16)(uint32)(0u), (uint16)(CYDEV_UCFG_DSI12_BASE) },	/* TD 44 */
 422:.\Generated_Source\PSoC5/cyfitter_cfg.c **** 		{ 128u, 0x2Eu, 0x23u, (uint16)(uint32)(0u), (uint16)(CYDEV_UCFG_DSI12_BASE + 0x00000080u) },	/* T
 423:.\Generated_Source\PSoC5/cyfitter_cfg.c **** 		{ 128u, 0x2Fu, 0x23u, (uint16)(uint32)(0u), (uint16)(CYDEV_UCFG_DSI7_BASE) },	/* TD 46 */
 424:.\Generated_Source\PSoC5/cyfitter_cfg.c **** 		{ 128u, 0x30u, 0x23u, (uint16)(uint32)(0u), (uint16)(CYDEV_UCFG_DSI7_BASE + 0x00000080u) },	/* TD
 425:.\Generated_Source\PSoC5/cyfitter_cfg.c **** 		{ 128u, 0x31u, 0x23u, (uint16)(uint32)(0u), (uint16)(CYDEV_UCFG_DSI6_BASE) },	/* TD 48 */
 426:.\Generated_Source\PSoC5/cyfitter_cfg.c **** 		{ 128u, 0x32u, 0x23u, (uint16)(uint32)(0u), (uint16)(CYDEV_UCFG_DSI6_BASE + 0x00000080u) },	/* TD
 427:.\Generated_Source\PSoC5/cyfitter_cfg.c **** 		{ 128u, 0x33u, 0x23u, (uint16)(uint32)(0u), (uint16)(CYDEV_UCFG_DSI5_BASE + 0x00000080u) },	/* TD
 428:.\Generated_Source\PSoC5/cyfitter_cfg.c **** 		{ 128u, 0x34u, 0x23u, (uint16)(uint32)(0u), (uint16)(CYDEV_UCFG_DSI4_BASE + 0x00000080u) },	/* TD
 429:.\Generated_Source\PSoC5/cyfitter_cfg.c **** 		{ 128u, 0x35u, 0x23u, (uint16)(uint32)(0u), (uint16)(CYDEV_UCFG_B1_P5_ROUTE_BASE + 0x00000080u) }
 430:.\Generated_Source\PSoC5/cyfitter_cfg.c **** 		{ 128u, 0x36u, 0x23u, (uint16)(uint32)(0u), (uint16)(CYDEV_UCFG_B1_P2_ROUTE_BASE) },	/* TD 53 */
 431:.\Generated_Source\PSoC5/cyfitter_cfg.c **** 		{ 128u, 0x37u, 0x23u, (uint16)(uint32)(0u), (uint16)(CYDEV_UCFG_B1_P2_ROUTE_BASE + 0x00000080u) }
 432:.\Generated_Source\PSoC5/cyfitter_cfg.c **** 		{ 128u, 0x38u, 0x23u, (uint16)(uint32)(0u), (uint16)(CYDEV_UCFG_B1_P3_ROUTE_BASE) },	/* TD 55 */
 433:.\Generated_Source\PSoC5/cyfitter_cfg.c **** 		{ 128u, 0x39u, 0x23u, (uint16)(uint32)(0u), (uint16)(CYDEV_UCFG_B1_P3_ROUTE_BASE + 0x00000080u) }
 434:.\Generated_Source\PSoC5/cyfitter_cfg.c **** 		{ 128u, 0x3Au, 0x23u, (uint16)(uint32)(0u), (uint16)(CYDEV_UCFG_B0_P4_ROUTE_BASE + 0x00000080u) }
 435:.\Generated_Source\PSoC5/cyfitter_cfg.c **** 		{ 128u, 0x3Bu, 0x23u, (uint16)(uint32)(0u), (uint16)(CYDEV_UCFG_B0_P3_ROUTE_BASE) },	/* TD 58 */
 436:.\Generated_Source\PSoC5/cyfitter_cfg.c **** 		{ 128u, 0x3Cu, 0x23u, (uint16)(uint32)(0u), (uint16)(CYDEV_UCFG_B0_P3_ROUTE_BASE + 0x00000080u) }
 437:.\Generated_Source\PSoC5/cyfitter_cfg.c **** 		{ 128u, 0x3Du, 0x23u, (uint16)(uint32)(0u), (uint16)(CYDEV_UCFG_B0_P2_ROUTE_BASE) },	/* TD 60 */
 438:.\Generated_Source\PSoC5/cyfitter_cfg.c **** 		{ 128u, 0x3Eu, 0x23u, (uint16)(uint32)(0u), (uint16)(CYDEV_UCFG_B0_P2_ROUTE_BASE + 0x00000080u) }
 439:.\Generated_Source\PSoC5/cyfitter_cfg.c **** 		{ 128u, 0x3Fu, 0x23u, (uint16)(uint32)(0u), (uint16)(CYDEV_UCFG_B0_P1_ROUTE_BASE) },	/* TD 62 */
 440:.\Generated_Source\PSoC5/cyfitter_cfg.c **** 		{ 128u, 0x40u, 0x23u, (uint16)(uint32)(0u), (uint16)(CYDEV_UCFG_B0_P1_ROUTE_BASE + 0x00000080u) }
 441:.\Generated_Source\PSoC5/cyfitter_cfg.c **** 		{ 128u, 0x41u, 0x23u, (uint16)(uint32)(0u), (uint16)(CYDEV_UCFG_B0_P7_ROUTE_BASE + 0x00000080u) }
 442:.\Generated_Source\PSoC5/cyfitter_cfg.c **** 		{ 128u, 0x42u, 0x23u, (uint16)(uint32)(0u), (uint16)(CYDEV_UCFG_B0_P0_ROUTE_BASE) },	/* TD 65 */
 443:.\Generated_Source\PSoC5/cyfitter_cfg.c **** 		{ 128u, 0x43u, 0x23u, (uint16)(uint32)(0u), (uint16)(CYDEV_UCFG_B0_P0_ROUTE_BASE + 0x00000080u) }
 444:.\Generated_Source\PSoC5/cyfitter_cfg.c **** 		{ 128u, 0x44u, 0x23u, (uint16)(uint32)(0u), (uint16)(CYDEV_UCFG_DSI9_BASE + 0x00000080u) },	/* TD
 445:.\Generated_Source\PSoC5/cyfitter_cfg.c **** 		{ 128u, 0x45u, 0x23u, (uint16)(uint32)(0u), (uint16)(CYDEV_UCFG_DSI8_BASE) },	/* TD 68 */
 446:.\Generated_Source\PSoC5/cyfitter_cfg.c **** 		{ 128u, 0x46u, 0x23u, (uint16)(uint32)(0u), (uint16)(CYDEV_UCFG_DSI8_BASE + 0x00000080u) },	/* TD
 447:.\Generated_Source\PSoC5/cyfitter_cfg.c **** 		{ 128u, 0x47u, 0x23u, (uint16)(uint32)(0u), (uint16)(CYDEV_UCFG_DSI3_BASE + 0x00000080u) },	/* TD
 448:.\Generated_Source\PSoC5/cyfitter_cfg.c **** 		{ 128u, 0x48u, 0x23u, (uint16)(uint32)(0u), (uint16)(CYDEV_UCFG_DSI2_BASE + 0x00000080u) },	/* TD
 449:.\Generated_Source\PSoC5/cyfitter_cfg.c **** 		{ 128u, 0x49u, 0x23u, (uint16)(uint32)(0u), (uint16)(CYDEV_UCFG_DSI1_BASE) },	/* TD 72 */
 450:.\Generated_Source\PSoC5/cyfitter_cfg.c **** 		{ 128u, 0x4Au, 0x23u, (uint16)(uint32)(0u), (uint16)(CYDEV_UCFG_DSI1_BASE + 0x00000080u) },	/* TD
 451:.\Generated_Source\PSoC5/cyfitter_cfg.c **** 		{ 128u, 0x4Bu, 0x23u, (uint16)(uint32)(0u), (uint16)(CYDEV_UCFG_DSI0_BASE) },	/* TD 74 */
 452:.\Generated_Source\PSoC5/cyfitter_cfg.c **** 		{ 128u, 0xFEu, 0x23u, (uint16)(uint32)(0u), (uint16)(CYDEV_UCFG_DSI0_BASE + 0x00000080u) },	/* TD
 453:.\Generated_Source\PSoC5/cyfitter_cfg.c **** 	};
ARM GAS  C:\Users\kingi\AppData\Local\Temp\ccdFO8Qx.s 			page 12


 454:.\Generated_Source\PSoC5/cyfitter_cfg.c **** 
 455:.\Generated_Source\PSoC5/cyfitter_cfg.c **** 	/* Source addresses can be relocated, but only when in 32bit addresses.
 456:.\Generated_Source\PSoC5/cyfitter_cfg.c **** 	   Because the standard TD table only has 16bit addresses, we generate a
 457:.\Generated_Source\PSoC5/cyfitter_cfg.c **** 	   separate table for the source addresses that does use 32bit addresses. This
 458:.\Generated_Source\PSoC5/cyfitter_cfg.c **** 	   table will be re-merged with the corresponding CFG_TD_LIST table during
 459:.\Generated_Source\PSoC5/cyfitter_cfg.c **** 	   initialization. */
 460:.\Generated_Source\PSoC5/cyfitter_cfg.c **** 	static const void * const CFG_TD_ADDR0[] = {
 461:.\Generated_Source\PSoC5/cyfitter_cfg.c **** 		(const void *)(CH1_ADDR_DATA0),	/* TD 1 */
 462:.\Generated_Source\PSoC5/cyfitter_cfg.c **** 		(const void *)(CH2_ADDR_DATA0),	/* TD 2 */
 463:.\Generated_Source\PSoC5/cyfitter_cfg.c **** 		(const void *)(CH5_ADDR_DATA0),	/* TD 3 */
 464:.\Generated_Source\PSoC5/cyfitter_cfg.c **** 		(const void *)(CH6_ADDR_DATA0),	/* TD 4 */
 465:.\Generated_Source\PSoC5/cyfitter_cfg.c **** 		(const void *)(DMA_TD_START_CMD),	/* TD 5 */
 466:.\Generated_Source\PSoC5/cyfitter_cfg.c **** 		(const void *)(DMA_TD_START_CMD),	/* TD 6 */
 467:.\Generated_Source\PSoC5/cyfitter_cfg.c **** 		(const void *)(DMA_TD_START_CMD),	/* TD 7 */
 468:.\Generated_Source\PSoC5/cyfitter_cfg.c **** 		(const void *)(DMA_TD_START_CMD),	/* TD 8 */
 469:.\Generated_Source\PSoC5/cyfitter_cfg.c **** 		(const void *)(&DMA_ZERO_VAL),	/* TD 9 */
 470:.\Generated_Source\PSoC5/cyfitter_cfg.c **** 		(const void *)(&DMA_ZERO_VAL),	/* TD 10 */
 471:.\Generated_Source\PSoC5/cyfitter_cfg.c **** 		(const void *)(&DMA_ZERO_VAL),	/* TD 11 */
 472:.\Generated_Source\PSoC5/cyfitter_cfg.c **** 		(const void *)(&DMA_ZERO_VAL),	/* TD 12 */
 473:.\Generated_Source\PSoC5/cyfitter_cfg.c **** 		(const void *)(&DMA_ZERO_VAL),	/* TD 13 */
 474:.\Generated_Source\PSoC5/cyfitter_cfg.c **** 		(const void *)(&DMA_ZERO_VAL),	/* TD 14 */
 475:.\Generated_Source\PSoC5/cyfitter_cfg.c **** 		(const void *)(&DMA_ZERO_VAL),	/* TD 15 */
 476:.\Generated_Source\PSoC5/cyfitter_cfg.c **** 		(const void *)(&DMA_ZERO_VAL),	/* TD 16 */
 477:.\Generated_Source\PSoC5/cyfitter_cfg.c **** 		(const void *)(&DMA_ZERO_VAL),	/* TD 17 */
 478:.\Generated_Source\PSoC5/cyfitter_cfg.c **** 		(const void *)(&DMA_ZERO_VAL),	/* TD 18 */
 479:.\Generated_Source\PSoC5/cyfitter_cfg.c **** 		(const void *)(&DMA_ZERO_VAL),	/* TD 19 */
 480:.\Generated_Source\PSoC5/cyfitter_cfg.c **** 		(const void *)(&DMA_ZERO_VAL),	/* TD 20 */
 481:.\Generated_Source\PSoC5/cyfitter_cfg.c **** 		(const void *)(&DMA_ZERO_VAL),	/* TD 21 */
 482:.\Generated_Source\PSoC5/cyfitter_cfg.c **** 		(const void *)(BS_IOPORT_4_VAL),	/* TD 22 */
 483:.\Generated_Source\PSoC5/cyfitter_cfg.c **** 		(const void *)(BS_SAR0_VAL),	/* TD 23 */
 484:.\Generated_Source\PSoC5/cyfitter_cfg.c **** 		(const void *)(BS_SAR1_VAL),	/* TD 24 */
 485:.\Generated_Source\PSoC5/cyfitter_cfg.c **** 		(const void *)(BS_UWRK_B0_WRK_STATCTL_BITS_VAL),	/* TD 25 */
 486:.\Generated_Source\PSoC5/cyfitter_cfg.c **** 		(const void *)(BS_UWRK_B1_WRK_STATCTL_BITS_VAL),	/* TD 26 */
 487:.\Generated_Source\PSoC5/cyfitter_cfg.c **** 		(const void *)(BS_IDMUX_IRQ_VAL),	/* TD 27 */
 488:.\Generated_Source\PSoC5/cyfitter_cfg.c **** 		(const void *)(BS_UDB_1_5_0_CONFIG_VAL),	/* TD 28 */
 489:.\Generated_Source\PSoC5/cyfitter_cfg.c **** 		(const void *)(BS_UDB_1_5_1_CONFIG_VAL),	/* TD 29 */
 490:.\Generated_Source\PSoC5/cyfitter_cfg.c **** 		(const void *)(BS_UDB_1_4_1_CONFIG_VAL),	/* TD 30 */
 491:.\Generated_Source\PSoC5/cyfitter_cfg.c **** 		(const void *)(BS_UDB_1_4_0_CONFIG_VAL),	/* TD 31 */
 492:.\Generated_Source\PSoC5/cyfitter_cfg.c **** 		(const void *)(BS_UDB_1_3_0_CONFIG_VAL),	/* TD 32 */
 493:.\Generated_Source\PSoC5/cyfitter_cfg.c **** 		(const void *)(BS_UDB_1_3_1_CONFIG_VAL),	/* TD 33 */
 494:.\Generated_Source\PSoC5/cyfitter_cfg.c **** 		(const void *)(BS_UDB_1_2_1_CONFIG_VAL),	/* TD 34 */
 495:.\Generated_Source\PSoC5/cyfitter_cfg.c **** 		(const void *)(BS_UDB_1_2_0_CONFIG_VAL),	/* TD 35 */
 496:.\Generated_Source\PSoC5/cyfitter_cfg.c **** 		(const void *)(BS_UDB_1_0_0_CONFIG_VAL),	/* TD 36 */
 497:.\Generated_Source\PSoC5/cyfitter_cfg.c **** 		(const void *)(BS_UDB_1_0_1_CONFIG_VAL),	/* TD 37 */
 498:.\Generated_Source\PSoC5/cyfitter_cfg.c **** 		(const void *)(BS_UDB_1_1_1_CONFIG_VAL),	/* TD 38 */
 499:.\Generated_Source\PSoC5/cyfitter_cfg.c **** 		(const void *)(BS_UDB_1_1_0_CONFIG_VAL),	/* TD 39 */
 500:.\Generated_Source\PSoC5/cyfitter_cfg.c **** 		(const void *)(BS_UCFG_BCTL1_VAL),	/* TD 40 */
 501:.\Generated_Source\PSoC5/cyfitter_cfg.c **** 		(const void *)(BS_UCFG_BCTL0_VAL),	/* TD 41 */
 502:.\Generated_Source\PSoC5/cyfitter_cfg.c **** 		(const void *)(BS_DSISWITCH_0_0_VAL),	/* TD 42 */
 503:.\Generated_Source\PSoC5/cyfitter_cfg.c **** 		(const void *)(BS_DSI0_0_HV_ROUTING_VAL),	/* TD 43 */
 504:.\Generated_Source\PSoC5/cyfitter_cfg.c **** 		(const void *)(BS_DSISWITCH_0_1_VAL),	/* TD 44 */
 505:.\Generated_Source\PSoC5/cyfitter_cfg.c **** 		(const void *)(BS_DSI0_1_HV_ROUTING_VAL),	/* TD 45 */
 506:.\Generated_Source\PSoC5/cyfitter_cfg.c **** 		(const void *)(BS_DSISWITCH_0_2_VAL),	/* TD 46 */
 507:.\Generated_Source\PSoC5/cyfitter_cfg.c **** 		(const void *)(BS_DSI0_2_HV_ROUTING_VAL),	/* TD 47 */
 508:.\Generated_Source\PSoC5/cyfitter_cfg.c **** 		(const void *)(BS_DSISWITCH_0_3_VAL),	/* TD 48 */
 509:.\Generated_Source\PSoC5/cyfitter_cfg.c **** 		(const void *)(BS_DSI0_3_HV_ROUTING_VAL),	/* TD 49 */
 510:.\Generated_Source\PSoC5/cyfitter_cfg.c **** 		(const void *)(BS_DSI0_4_HV_ROUTING_VAL),	/* TD 50 */
ARM GAS  C:\Users\kingi\AppData\Local\Temp\ccdFO8Qx.s 			page 13


 511:.\Generated_Source\PSoC5/cyfitter_cfg.c **** 		(const void *)(BS_DSI0_5_HV_ROUTING_VAL),	/* TD 51 */
 512:.\Generated_Source\PSoC5/cyfitter_cfg.c **** 		(const void *)(BS_UDB_1_0_HV_ROUTING_VAL),	/* TD 52 */
 513:.\Generated_Source\PSoC5/cyfitter_cfg.c **** 		(const void *)(BS_UDBSWITCH_1_0_VAL),	/* TD 53 */
 514:.\Generated_Source\PSoC5/cyfitter_cfg.c **** 		(const void *)(BS_UDB_2_0_HV_ROUTING_VAL),	/* TD 54 */
 515:.\Generated_Source\PSoC5/cyfitter_cfg.c **** 		(const void *)(BS_UDBSWITCH_1_1_VAL),	/* TD 55 */
 516:.\Generated_Source\PSoC5/cyfitter_cfg.c **** 		(const void *)(BS_UDB_2_1_HV_ROUTING_VAL),	/* TD 56 */
 517:.\Generated_Source\PSoC5/cyfitter_cfg.c **** 		(const void *)(BS_UDB_1_2_HV_ROUTING_VAL),	/* TD 57 */
 518:.\Generated_Source\PSoC5/cyfitter_cfg.c **** 		(const void *)(BS_UDBSWITCH_1_2_VAL),	/* TD 58 */
 519:.\Generated_Source\PSoC5/cyfitter_cfg.c **** 		(const void *)(BS_UDB_2_2_HV_ROUTING_VAL),	/* TD 59 */
 520:.\Generated_Source\PSoC5/cyfitter_cfg.c **** 		(const void *)(BS_UDBSWITCH_1_3_VAL),	/* TD 60 */
 521:.\Generated_Source\PSoC5/cyfitter_cfg.c **** 		(const void *)(BS_UDB_2_3_HV_ROUTING_VAL),	/* TD 61 */
 522:.\Generated_Source\PSoC5/cyfitter_cfg.c **** 		(const void *)(BS_UDBSWITCH_1_4_VAL),	/* TD 62 */
 523:.\Generated_Source\PSoC5/cyfitter_cfg.c **** 		(const void *)(BS_UDB_2_4_HV_ROUTING_VAL),	/* TD 63 */
 524:.\Generated_Source\PSoC5/cyfitter_cfg.c **** 		(const void *)(BS_UDB_1_5_HV_ROUTING_VAL),	/* TD 64 */
 525:.\Generated_Source\PSoC5/cyfitter_cfg.c **** 		(const void *)(BS_UDBSWITCH_1_5_VAL),	/* TD 65 */
 526:.\Generated_Source\PSoC5/cyfitter_cfg.c **** 		(const void *)(BS_UDB_2_5_HV_ROUTING_VAL),	/* TD 66 */
 527:.\Generated_Source\PSoC5/cyfitter_cfg.c **** 		(const void *)(BS_DSI3_0_HV_ROUTING_VAL),	/* TD 67 */
 528:.\Generated_Source\PSoC5/cyfitter_cfg.c **** 		(const void *)(BS_DSISWITCH_1_1_VAL),	/* TD 68 */
 529:.\Generated_Source\PSoC5/cyfitter_cfg.c **** 		(const void *)(BS_DSI3_1_HV_ROUTING_VAL),	/* TD 69 */
 530:.\Generated_Source\PSoC5/cyfitter_cfg.c **** 		(const void *)(BS_DSI3_2_HV_ROUTING_VAL),	/* TD 70 */
 531:.\Generated_Source\PSoC5/cyfitter_cfg.c **** 		(const void *)(BS_DSI3_3_HV_ROUTING_VAL),	/* TD 71 */
 532:.\Generated_Source\PSoC5/cyfitter_cfg.c **** 		(const void *)(BS_DSISWITCH_1_4_VAL),	/* TD 72 */
 533:.\Generated_Source\PSoC5/cyfitter_cfg.c **** 		(const void *)(BS_DSI3_4_HV_ROUTING_VAL),	/* TD 73 */
 534:.\Generated_Source\PSoC5/cyfitter_cfg.c **** 		(const void *)(BS_DSISWITCH_1_5_VAL),	/* TD 74 */
 535:.\Generated_Source\PSoC5/cyfitter_cfg.c **** 		(const void *)(BS_DSI3_5_HV_ROUTING_VAL),	/* TD 75 */
 536:.\Generated_Source\PSoC5/cyfitter_cfg.c **** 	};
 537:.\Generated_Source\PSoC5/cyfitter_cfg.c **** 
 538:.\Generated_Source\PSoC5/cyfitter_cfg.c **** 
 539:.\Generated_Source\PSoC5/cyfitter_cfg.c **** 	uint32 i;
 540:.\Generated_Source\PSoC5/cyfitter_cfg.c **** 
 541:.\Generated_Source\PSoC5/cyfitter_cfg.c **** 	DMA_ZERO_VAL = 0u;
 175              		.loc 1 541 0
 176 0006 434B     		ldr	r3, .L15
 177 0008 0022     		movs	r2, #0
 178 000a 1A60     		str	r2, [r3]
 542:.\Generated_Source\PSoC5/cyfitter_cfg.c **** 	CY_SET_REG8((void CYXDATA *)CYREG_PHUB_CFGMEM0_CFG0, 0x10u);	/* set burstcnt */
 179              		.loc 1 542 0
 180 000c 424B     		ldr	r3, .L15+4
 181 000e 1022     		movs	r2, #16
 182 0010 1A70     		strb	r2, [r3]
 543:.\Generated_Source\PSoC5/cyfitter_cfg.c **** 	CY_SET_REG8((void CYXDATA *)CYREG_PHUB_CH0_BASIC_CFG, 0x01u);	/* enable ch0 */
 183              		.loc 1 543 0
 184 0012 424B     		ldr	r3, .L15+8
 185 0014 0122     		movs	r2, #1
 186 0016 1A70     		strb	r2, [r3]
 544:.\Generated_Source\PSoC5/cyfitter_cfg.c **** 	CY_SET_REG8((void CYXDATA *)(CYREG_PHUB_CH0_BASIC_STATUS+1u), 0x00u);	/* set first TD to 0 */
 187              		.loc 1 544 0
 188 0018 414B     		ldr	r3, .L15+12
 189 001a 0022     		movs	r2, #0
 190 001c 1A70     		strb	r2, [r3]
 545:.\Generated_Source\PSoC5/cyfitter_cfg.c **** 	CY_SET_REG16((void CYXDATA *)CYREG_PHUB_TDMEM0_ORIG_TD0, 75u*8u);	/* transfer size */
 191              		.loc 1 545 0
 192 001e 414B     		ldr	r3, .L15+16
 193 0020 4FF41672 		mov	r2, #600
 194 0024 1A80     		strh	r2, [r3]	@ movhi
 546:.\Generated_Source\PSoC5/cyfitter_cfg.c **** 	CY_SET_REG8((void CYXDATA *)(CYREG_PHUB_TDMEM0_ORIG_TD0+2u), 0x01u);	/* set next TD to 1 */
 195              		.loc 1 546 0
ARM GAS  C:\Users\kingi\AppData\Local\Temp\ccdFO8Qx.s 			page 14


 196 0026 404B     		ldr	r3, .L15+20
 197 0028 0122     		movs	r2, #1
 198 002a 1A70     		strb	r2, [r3]
 547:.\Generated_Source\PSoC5/cyfitter_cfg.c **** 	CY_SET_REG8((void CYXDATA *)(CYREG_PHUB_TDMEM0_ORIG_TD0+3u), 0x03u);	/* set TD flags */
 199              		.loc 1 547 0
 200 002c 3F4B     		ldr	r3, .L15+24
 201 002e 0322     		movs	r2, #3
 202 0030 1A70     		strb	r2, [r3]
 548:.\Generated_Source\PSoC5/cyfitter_cfg.c **** 	CY_SET_REG16((void CYXDATA *)CYREG_PHUB_TDMEM0_ORIG_TD1, (uint16)((uint32)CFG_TD_LIST0 & 0x0000FFF
 203              		.loc 1 548 0
 204 0032 3F4B     		ldr	r3, .L15+28
 205 0034 3F4A     		ldr	r2, .L15+32
 206 0036 92B2     		uxth	r2, r2
 207 0038 1A80     		strh	r2, [r3]	@ movhi
 549:.\Generated_Source\PSoC5/cyfitter_cfg.c **** 	CY_SET_REG16((void CYXDATA *)(CYREG_PHUB_TDMEM0_ORIG_TD1+2u), CYDEV_PHUB_TDMEM1_BASE);	/* set td0'
 208              		.loc 1 549 0
 209 003a 3F4B     		ldr	r3, .L15+36
 210 003c 47F60802 		movw	r2, #30728
 211 0040 1A80     		strh	r2, [r3]	@ movhi
 550:.\Generated_Source\PSoC5/cyfitter_cfg.c **** 	CY_SET_REG16((void CYXDATA *)CYREG_PHUB_CFGMEM0_CFG1, (uint16)(CYDEV_FLASH_BASE >> 16));	/* set ch
 212              		.loc 1 550 0
 213 0042 3E4B     		ldr	r3, .L15+40
 214 0044 0022     		movs	r2, #0
 215 0046 1A80     		strh	r2, [r3]	@ movhi
 551:.\Generated_Source\PSoC5/cyfitter_cfg.c **** 	CY_SET_REG16((void CYXDATA *)(CYREG_PHUB_CFGMEM0_CFG1+2u), (uint16)(CYDEV_PHUB_TDMEM1_BASE >> 16))
 216              		.loc 1 551 0
 217 0048 3D4B     		ldr	r3, .L15+44
 218 004a 4FF48042 		mov	r2, #16384
 219 004e 1A80     		strh	r2, [r3]	@ movhi
 552:.\Generated_Source\PSoC5/cyfitter_cfg.c **** 	CY_SET_REG8((void CYXDATA *)(CYREG_PHUB_CH1_BASIC_STATUS+1u), 0x09u);	/* ch1 first TD: 9 */
 220              		.loc 1 552 0
 221 0050 3C4B     		ldr	r3, .L15+48
 222 0052 0922     		movs	r2, #9
 223 0054 1A70     		strb	r2, [r3]
 553:.\Generated_Source\PSoC5/cyfitter_cfg.c **** 	CY_SET_REG8((void CYXDATA *)(CYREG_PHUB_CH2_BASIC_STATUS+1u), 0x0Eu);	/* ch2 first TD: 14 */
 224              		.loc 1 553 0
 225 0056 3C4B     		ldr	r3, .L15+52
 226 0058 0E22     		movs	r2, #14
 227 005a 1A70     		strb	r2, [r3]
 554:.\Generated_Source\PSoC5/cyfitter_cfg.c **** 	CY_SET_REG8((void CYXDATA *)(CYREG_PHUB_CH5_BASIC_STATUS+1u), 0x16u);	/* ch5 first TD: 22 */
 228              		.loc 1 554 0
 229 005c 3B4B     		ldr	r3, .L15+56
 230 005e 1622     		movs	r2, #22
 231 0060 1A70     		strb	r2, [r3]
 555:.\Generated_Source\PSoC5/cyfitter_cfg.c **** 	CY_SET_REG8((void CYXDATA *)(CYREG_PHUB_CH6_BASIC_STATUS+1u), 0x1Bu);	/* ch6 first TD: 27 */
 232              		.loc 1 555 0
 233 0062 3B4B     		ldr	r3, .L15+60
 234 0064 1B22     		movs	r2, #27
 235 0066 1A70     		strb	r2, [r3]
 556:.\Generated_Source\PSoC5/cyfitter_cfg.c **** 
 557:.\Generated_Source\PSoC5/cyfitter_cfg.c **** 	CY_CFG_MEMORY_BARRIER();
 236              		.loc 1 557 0
 237 0068 BFF35F8F 		dmb	sy
 558:.\Generated_Source\PSoC5/cyfitter_cfg.c **** 	CY_SET_REG8((void CYXDATA *)CYREG_PHUB_CH0_ACTION, 0x01u); /* cpu_req */
 238              		.loc 1 558 0
 239 006c 394B     		ldr	r3, .L15+64
 240 006e 0122     		movs	r2, #1
ARM GAS  C:\Users\kingi\AppData\Local\Temp\ccdFO8Qx.s 			page 15


 241 0070 1A70     		strb	r2, [r3]
 559:.\Generated_Source\PSoC5/cyfitter_cfg.c **** 	CY_CFG_MEMORY_BARRIER();
 242              		.loc 1 559 0
 243 0072 BFF35F8F 		dmb	sy
 560:.\Generated_Source\PSoC5/cyfitter_cfg.c **** 
 561:.\Generated_Source\PSoC5/cyfitter_cfg.c **** 	/* Wait for TDs to be copied into TDMEM */
 562:.\Generated_Source\PSoC5/cyfitter_cfg.c **** 	while (CY_GET_REG16((void CYXDATA *)CYREG_PHUB_TDMEM0_ORIG_TD0) != 0u) { }
 244              		.loc 1 562 0
 245 0076 00BF     		nop
 246              	.L7:
 247              		.loc 1 562 0 is_stmt 0 discriminator 1
 248 0078 2A4B     		ldr	r3, .L15+16
 249 007a 1B88     		ldrh	r3, [r3]	@ movhi
 250 007c 9BB2     		uxth	r3, r3
 251 007e 002B     		cmp	r3, #0
 252 0080 FAD1     		bne	.L7
 563:.\Generated_Source\PSoC5/cyfitter_cfg.c **** 
 564:.\Generated_Source\PSoC5/cyfitter_cfg.c **** 	/* Recombine TD source table (CFG_TD_ADDR0) with full TD table (CFG_TD_LIST0) */
 565:.\Generated_Source\PSoC5/cyfitter_cfg.c **** 	for (i = 0u; i < 75u; i++)
 253              		.loc 1 565 0 is_stmt 1
 254 0082 0023     		movs	r3, #0
 255 0084 7B60     		str	r3, [r7, #4]
 256 0086 0DE0     		b	.L8
 257              	.L9:
 566:.\Generated_Source\PSoC5/cyfitter_cfg.c **** 	{
 567:.\Generated_Source\PSoC5/cyfitter_cfg.c **** 		CY_SET_REG16((void CYXDATA *)(CYREG_PHUB_TDMEM1_ORIG_TD1 + (sizeof(struct td_t)*i)), (uint16)(uin
 258              		.loc 1 567 0 discriminator 3
 259 0088 7B68     		ldr	r3, [r7, #4]
 260 008a DA00     		lsls	r2, r3, #3
 261 008c 324B     		ldr	r3, .L15+68
 262 008e 1344     		add	r3, r3, r2
 263 0090 1946     		mov	r1, r3
 264 0092 324A     		ldr	r2, .L15+72
 265 0094 7B68     		ldr	r3, [r7, #4]
 266 0096 52F82330 		ldr	r3, [r2, r3, lsl #2]
 267 009a 9BB2     		uxth	r3, r3
 268 009c 0B80     		strh	r3, [r1]	@ movhi
 565:.\Generated_Source\PSoC5/cyfitter_cfg.c **** 	{
 269              		.loc 1 565 0 discriminator 3
 270 009e 7B68     		ldr	r3, [r7, #4]
 271 00a0 0133     		adds	r3, r3, #1
 272 00a2 7B60     		str	r3, [r7, #4]
 273              	.L8:
 565:.\Generated_Source\PSoC5/cyfitter_cfg.c **** 	{
 274              		.loc 1 565 0 is_stmt 0 discriminator 1
 275 00a4 7B68     		ldr	r3, [r7, #4]
 276 00a6 4A2B     		cmp	r3, #74
 277 00a8 EED9     		bls	.L9
 568:.\Generated_Source\PSoC5/cyfitter_cfg.c **** 	}
 569:.\Generated_Source\PSoC5/cyfitter_cfg.c **** 
 570:.\Generated_Source\PSoC5/cyfitter_cfg.c **** 	CY_CFG_MEMORY_BARRIER();
 278              		.loc 1 570 0 is_stmt 1
 279 00aa BFF35F8F 		dmb	sy
 571:.\Generated_Source\PSoC5/cyfitter_cfg.c **** 	CY_SET_REG8((void CYXDATA *)CYREG_PHUB_CH0_ACTION, 0x01u); /* cpu_req */
 280              		.loc 1 571 0
 281 00ae 294B     		ldr	r3, .L15+64
 282 00b0 0122     		movs	r2, #1
ARM GAS  C:\Users\kingi\AppData\Local\Temp\ccdFO8Qx.s 			page 16


 283 00b2 1A70     		strb	r2, [r3]
 572:.\Generated_Source\PSoC5/cyfitter_cfg.c **** 	CY_CFG_MEMORY_BARRIER();
 284              		.loc 1 572 0
 285 00b4 BFF35F8F 		dmb	sy
 573:.\Generated_Source\PSoC5/cyfitter_cfg.c **** 
 574:.\Generated_Source\PSoC5/cyfitter_cfg.c **** 	/* Wait for all DMA transfers to complete */
 575:.\Generated_Source\PSoC5/cyfitter_cfg.c **** 	while(0u != (CY_GET_REG8((void CYXDATA *)CYREG_PHUB_CH0_BASIC_STATUS) & 0x01u)){}
 286              		.loc 1 575 0
 287 00b8 00BF     		nop
 288              	.L10:
 289              		.loc 1 575 0 is_stmt 0 discriminator 1
 290 00ba 294B     		ldr	r3, .L15+76
 291 00bc 1B78     		ldrb	r3, [r3]
 292 00be DBB2     		uxtb	r3, r3
 293 00c0 03F00103 		and	r3, r3, #1
 294 00c4 002B     		cmp	r3, #0
 295 00c6 F8D1     		bne	.L10
 576:.\Generated_Source\PSoC5/cyfitter_cfg.c **** 	while(0u != (CY_GET_REG8((void CYXDATA *)CYREG_PHUB_CH1_BASIC_STATUS) & 0x01u)){}
 296              		.loc 1 576 0 is_stmt 1
 297 00c8 00BF     		nop
 298              	.L11:
 299              		.loc 1 576 0 is_stmt 0 discriminator 1
 300 00ca 264B     		ldr	r3, .L15+80
 301 00cc 1B78     		ldrb	r3, [r3]
 302 00ce DBB2     		uxtb	r3, r3
 303 00d0 03F00103 		and	r3, r3, #1
 304 00d4 002B     		cmp	r3, #0
 305 00d6 F8D1     		bne	.L11
 577:.\Generated_Source\PSoC5/cyfitter_cfg.c **** 	while(0u != (CY_GET_REG8((void CYXDATA *)CYREG_PHUB_CH2_BASIC_STATUS) & 0x01u)){}
 306              		.loc 1 577 0 is_stmt 1
 307 00d8 00BF     		nop
 308              	.L12:
 309              		.loc 1 577 0 is_stmt 0 discriminator 1
 310 00da 234B     		ldr	r3, .L15+84
 311 00dc 1B78     		ldrb	r3, [r3]
 312 00de DBB2     		uxtb	r3, r3
 313 00e0 03F00103 		and	r3, r3, #1
 314 00e4 002B     		cmp	r3, #0
 315 00e6 F8D1     		bne	.L12
 578:.\Generated_Source\PSoC5/cyfitter_cfg.c **** 	while(0u != (CY_GET_REG8((void CYXDATA *)CYREG_PHUB_CH5_BASIC_STATUS) & 0x01u)){}
 316              		.loc 1 578 0 is_stmt 1
 317 00e8 00BF     		nop
 318              	.L13:
 319              		.loc 1 578 0 is_stmt 0 discriminator 1
 320 00ea 204B     		ldr	r3, .L15+88
 321 00ec 1B78     		ldrb	r3, [r3]
 322 00ee DBB2     		uxtb	r3, r3
 323 00f0 03F00103 		and	r3, r3, #1
 324 00f4 002B     		cmp	r3, #0
 325 00f6 F8D1     		bne	.L13
 579:.\Generated_Source\PSoC5/cyfitter_cfg.c **** 	while(0u != (CY_GET_REG8((void CYXDATA *)CYREG_PHUB_CH6_BASIC_STATUS) & 0x01u)){}
 326              		.loc 1 579 0 is_stmt 1
 327 00f8 00BF     		nop
 328              	.L14:
 329              		.loc 1 579 0 is_stmt 0 discriminator 1
 330 00fa 1D4B     		ldr	r3, .L15+92
 331 00fc 1B78     		ldrb	r3, [r3]
ARM GAS  C:\Users\kingi\AppData\Local\Temp\ccdFO8Qx.s 			page 17


 332 00fe DBB2     		uxtb	r3, r3
 333 0100 03F00103 		and	r3, r3, #1
 334 0104 002B     		cmp	r3, #0
 335 0106 F8D1     		bne	.L14
 580:.\Generated_Source\PSoC5/cyfitter_cfg.c **** 
 581:.\Generated_Source\PSoC5/cyfitter_cfg.c **** 
 582:.\Generated_Source\PSoC5/cyfitter_cfg.c **** }
 336              		.loc 1 582 0 is_stmt 1
 337 0108 0C37     		adds	r7, r7, #12
 338              		.cfi_def_cfa_offset 4
 339 010a BD46     		mov	sp, r7
 340              		.cfi_def_cfa_register 13
 341              		@ sp needed
 342 010c 5DF8047B 		ldr	r7, [sp], #4
 343              		.cfi_restore 7
 344              		.cfi_def_cfa_offset 0
 345 0110 7047     		bx	lr
 346              	.L16:
 347 0112 00BF     		.align	2
 348              	.L15:
 349 0114 00000000 		.word	DMA_ZERO_VAL.4848
 350 0118 00760040 		.word	1073772032
 351 011c 10700040 		.word	1073770512
 352 0120 19700040 		.word	1073770521
 353 0124 00780040 		.word	1073772544
 354 0128 02780040 		.word	1073772546
 355 012c 03780040 		.word	1073772547
 356 0130 04780040 		.word	1073772548
 357 0134 00000000 		.word	CFG_TD_LIST0.4849
 358 0138 06780040 		.word	1073772550
 359 013c 04760040 		.word	1073772036
 360 0140 06760040 		.word	1073772038
 361 0144 29700040 		.word	1073770537
 362 0148 39700040 		.word	1073770553
 363 014c 69700040 		.word	1073770601
 364 0150 79700040 		.word	1073770617
 365 0154 14700040 		.word	1073770516
 366 0158 0C780040 		.word	1073772556
 367 015c 00000000 		.word	CFG_TD_ADDR0.4850
 368 0160 18700040 		.word	1073770520
 369 0164 28700040 		.word	1073770536
 370 0168 38700040 		.word	1073770552
 371 016c 68700040 		.word	1073770600
 372 0170 78700040 		.word	1073770616
 373              		.cfi_endproc
 374              	.LFE4:
 375              		.size	cfg_dma_init, .-cfg_dma_init
 376              		.section	.text.ClockSetup,"ax",%progbits
 377              		.align	2
 378              		.thumb
 379              		.thumb_func
 380              		.type	ClockSetup, %function
 381              	ClockSetup:
 382              	.LFB5:
 583:.\Generated_Source\PSoC5/cyfitter_cfg.c **** /*******************************************************************************
 584:.\Generated_Source\PSoC5/cyfitter_cfg.c **** * Function Name: ClockSetup
 585:.\Generated_Source\PSoC5/cyfitter_cfg.c **** ********************************************************************************
ARM GAS  C:\Users\kingi\AppData\Local\Temp\ccdFO8Qx.s 			page 18


 586:.\Generated_Source\PSoC5/cyfitter_cfg.c **** *
 587:.\Generated_Source\PSoC5/cyfitter_cfg.c **** * Summary:
 588:.\Generated_Source\PSoC5/cyfitter_cfg.c **** *  Performs the initialization of all of the clocks in the device based on the
 589:.\Generated_Source\PSoC5/cyfitter_cfg.c **** *  settings in the Clock tab of the DWR.  This includes enabling the requested
 590:.\Generated_Source\PSoC5/cyfitter_cfg.c **** *  clocks and setting the necessary dividers to produce the desired frequency. 
 591:.\Generated_Source\PSoC5/cyfitter_cfg.c **** *
 592:.\Generated_Source\PSoC5/cyfitter_cfg.c **** * Parameters:
 593:.\Generated_Source\PSoC5/cyfitter_cfg.c **** *  void
 594:.\Generated_Source\PSoC5/cyfitter_cfg.c **** *
 595:.\Generated_Source\PSoC5/cyfitter_cfg.c **** * Return:
 596:.\Generated_Source\PSoC5/cyfitter_cfg.c **** *  void
 597:.\Generated_Source\PSoC5/cyfitter_cfg.c **** *
 598:.\Generated_Source\PSoC5/cyfitter_cfg.c **** *******************************************************************************/
 599:.\Generated_Source\PSoC5/cyfitter_cfg.c **** static void ClockSetup(void);
 600:.\Generated_Source\PSoC5/cyfitter_cfg.c **** static void ClockSetup(void)
 601:.\Generated_Source\PSoC5/cyfitter_cfg.c **** {
 383              		.loc 1 601 0
 384              		.cfi_startproc
 385              		@ args = 0, pretend = 0, frame = 8
 386              		@ frame_needed = 1, uses_anonymous_args = 0
 387 0000 80B5     		push	{r7, lr}
 388              		.cfi_def_cfa_offset 8
 389              		.cfi_offset 7, -8
 390              		.cfi_offset 14, -4
 391 0002 82B0     		sub	sp, sp, #8
 392              		.cfi_def_cfa_offset 16
 393 0004 00AF     		add	r7, sp, #0
 394              		.cfi_def_cfa_register 7
 602:.\Generated_Source\PSoC5/cyfitter_cfg.c **** 	uint32 timeout;
 603:.\Generated_Source\PSoC5/cyfitter_cfg.c **** 	uint8 pllLock;
 604:.\Generated_Source\PSoC5/cyfitter_cfg.c **** 
 605:.\Generated_Source\PSoC5/cyfitter_cfg.c **** 
 606:.\Generated_Source\PSoC5/cyfitter_cfg.c **** 	/* Configure Digital Clocks based on settings from Clock DWR */
 607:.\Generated_Source\PSoC5/cyfitter_cfg.c **** 	CY_SET_XTND_REG16((void CYFAR *)(CYREG_CLKDIST_DCFG0_CFG0), 0x0029u);
 395              		.loc 1 607 0
 396 0006 454B     		ldr	r3, .L22
 397 0008 2922     		movs	r2, #41
 398 000a 1A80     		strh	r2, [r3]	@ movhi
 608:.\Generated_Source\PSoC5/cyfitter_cfg.c **** 	CY_SET_XTND_REG8((void CYFAR *)(CYREG_CLKDIST_DCFG0_CFG0 + 0x2u), 0x18u);
 399              		.loc 1 608 0
 400 000c 444B     		ldr	r3, .L22+4
 401 000e 1822     		movs	r2, #24
 402 0010 1A70     		strb	r2, [r3]
 609:.\Generated_Source\PSoC5/cyfitter_cfg.c **** 	CY_SET_XTND_REG16((void CYFAR *)(CYREG_CLKDIST_DCFG1_CFG0), 0x002Eu);
 403              		.loc 1 609 0
 404 0012 444B     		ldr	r3, .L22+8
 405 0014 2E22     		movs	r2, #46
 406 0016 1A80     		strh	r2, [r3]	@ movhi
 610:.\Generated_Source\PSoC5/cyfitter_cfg.c **** 	CY_SET_XTND_REG8((void CYFAR *)(CYREG_CLKDIST_DCFG1_CFG0 + 0x2u), 0x18u);
 407              		.loc 1 610 0
 408 0018 434B     		ldr	r3, .L22+12
 409 001a 1822     		movs	r2, #24
 410 001c 1A70     		strb	r2, [r3]
 611:.\Generated_Source\PSoC5/cyfitter_cfg.c **** 	CY_SET_XTND_REG16((void CYFAR *)(CYREG_CLKDIST_DCFG2_CFG0), 0x0039u);
 411              		.loc 1 611 0
 412 001e 434B     		ldr	r3, .L22+16
 413 0020 3922     		movs	r2, #57
ARM GAS  C:\Users\kingi\AppData\Local\Temp\ccdFO8Qx.s 			page 19


 414 0022 1A80     		strh	r2, [r3]	@ movhi
 612:.\Generated_Source\PSoC5/cyfitter_cfg.c **** 	CY_SET_XTND_REG8((void CYFAR *)(CYREG_CLKDIST_DCFG2_CFG0 + 0x2u), 0x18u);
 415              		.loc 1 612 0
 416 0024 424B     		ldr	r3, .L22+20
 417 0026 1822     		movs	r2, #24
 418 0028 1A70     		strb	r2, [r3]
 613:.\Generated_Source\PSoC5/cyfitter_cfg.c **** 	CY_SET_XTND_REG16((void CYFAR *)(CYREG_CLKDIST_DCFG3_CFG0), 0x0039u);
 419              		.loc 1 613 0
 420 002a 424B     		ldr	r3, .L22+24
 421 002c 3922     		movs	r2, #57
 422 002e 1A80     		strh	r2, [r3]	@ movhi
 614:.\Generated_Source\PSoC5/cyfitter_cfg.c **** 	CY_SET_XTND_REG8((void CYFAR *)(CYREG_CLKDIST_DCFG3_CFG0 + 0x2u), 0x18u);
 423              		.loc 1 614 0
 424 0030 414B     		ldr	r3, .L22+28
 425 0032 1822     		movs	r2, #24
 426 0034 1A70     		strb	r2, [r3]
 615:.\Generated_Source\PSoC5/cyfitter_cfg.c **** 	CY_SET_XTND_REG16((void CYFAR *)(CYREG_CLKDIST_DCFG4_CFG0), 0x0039u);
 427              		.loc 1 615 0
 428 0036 414B     		ldr	r3, .L22+32
 429 0038 3922     		movs	r2, #57
 430 003a 1A80     		strh	r2, [r3]	@ movhi
 616:.\Generated_Source\PSoC5/cyfitter_cfg.c **** 	CY_SET_XTND_REG8((void CYFAR *)(CYREG_CLKDIST_DCFG4_CFG0 + 0x2u), 0x18u);
 431              		.loc 1 616 0
 432 003c 404B     		ldr	r3, .L22+36
 433 003e 1822     		movs	r2, #24
 434 0040 1A70     		strb	r2, [r3]
 617:.\Generated_Source\PSoC5/cyfitter_cfg.c **** 	CY_SET_XTND_REG16((void CYFAR *)(CYREG_CLKDIST_DCFG5_CFG0), 0x0039u);
 435              		.loc 1 617 0
 436 0042 404B     		ldr	r3, .L22+40
 437 0044 3922     		movs	r2, #57
 438 0046 1A80     		strh	r2, [r3]	@ movhi
 618:.\Generated_Source\PSoC5/cyfitter_cfg.c **** 	CY_SET_XTND_REG8((void CYFAR *)(CYREG_CLKDIST_DCFG5_CFG0 + 0x2u), 0x18u);
 439              		.loc 1 618 0
 440 0048 3F4B     		ldr	r3, .L22+44
 441 004a 1822     		movs	r2, #24
 442 004c 1A70     		strb	r2, [r3]
 619:.\Generated_Source\PSoC5/cyfitter_cfg.c **** 	CY_SET_XTND_REG16((void CYFAR *)(CYREG_CLKDIST_DCFG6_CFG0), 0x02B1u);
 443              		.loc 1 619 0
 444 004e 3F4B     		ldr	r3, .L22+48
 445 0050 40F2B122 		movw	r2, #689
 446 0054 1A80     		strh	r2, [r3]	@ movhi
 620:.\Generated_Source\PSoC5/cyfitter_cfg.c **** 	CY_SET_XTND_REG8((void CYFAR *)(CYREG_CLKDIST_DCFG6_CFG0 + 0x2u), 0x18u);
 447              		.loc 1 620 0
 448 0056 3E4B     		ldr	r3, .L22+52
 449 0058 1822     		movs	r2, #24
 450 005a 1A70     		strb	r2, [r3]
 621:.\Generated_Source\PSoC5/cyfitter_cfg.c **** 	CY_SET_XTND_REG16((void CYFAR *)(CYREG_CLKDIST_DCFG7_CFG0), 0x02B1u);
 451              		.loc 1 621 0
 452 005c 3D4B     		ldr	r3, .L22+56
 453 005e 40F2B122 		movw	r2, #689
 454 0062 1A80     		strh	r2, [r3]	@ movhi
 622:.\Generated_Source\PSoC5/cyfitter_cfg.c **** 	CY_SET_XTND_REG8((void CYFAR *)(CYREG_CLKDIST_DCFG7_CFG0 + 0x2u), 0x18u);
 455              		.loc 1 622 0
 456 0064 3C4B     		ldr	r3, .L22+60
 457 0066 1822     		movs	r2, #24
 458 0068 1A70     		strb	r2, [r3]
 623:.\Generated_Source\PSoC5/cyfitter_cfg.c **** 
ARM GAS  C:\Users\kingi\AppData\Local\Temp\ccdFO8Qx.s 			page 20


 624:.\Generated_Source\PSoC5/cyfitter_cfg.c **** 	/* Configure ILO based on settings from Clock DWR */
 625:.\Generated_Source\PSoC5/cyfitter_cfg.c **** 	CY_SET_XTND_REG8((void CYFAR *)(CYREG_SLOWCLK_ILO_CR0), 0x02u);
 459              		.loc 1 625 0
 460 006a 3C4B     		ldr	r3, .L22+64
 461 006c 0222     		movs	r2, #2
 462 006e 1A70     		strb	r2, [r3]
 626:.\Generated_Source\PSoC5/cyfitter_cfg.c **** 	CY_SET_XTND_REG8((void CYFAR *)(CYREG_CLKDIST_CR), 0x08u);
 463              		.loc 1 626 0
 464 0070 4FF04023 		mov	r3, #1073758208
 465 0074 0822     		movs	r2, #8
 466 0076 1A70     		strb	r2, [r3]
 627:.\Generated_Source\PSoC5/cyfitter_cfg.c **** 
 628:.\Generated_Source\PSoC5/cyfitter_cfg.c **** 	/* Configure IMO based on settings from Clock DWR */
 629:.\Generated_Source\PSoC5/cyfitter_cfg.c **** 	CY_SET_XTND_REG8((void CYFAR *)(CYREG_FASTCLK_IMO_CR), 0x03u);
 467              		.loc 1 629 0
 468 0078 394B     		ldr	r3, .L22+68
 469 007a 0322     		movs	r2, #3
 470 007c 1A70     		strb	r2, [r3]
 630:.\Generated_Source\PSoC5/cyfitter_cfg.c **** 	CY_SET_XTND_REG8((void CYFAR *)(CYREG_IMO_TR1), (CY_GET_XTND_REG8((void CYFAR *)CYREG_FLSHID_CUST_
 471              		.loc 1 630 0
 472 007e 394B     		ldr	r3, .L22+72
 473 0080 394A     		ldr	r2, .L22+76
 474 0082 1278     		ldrb	r2, [r2]
 475 0084 D2B2     		uxtb	r2, r2
 476 0086 1A70     		strb	r2, [r3]
 631:.\Generated_Source\PSoC5/cyfitter_cfg.c **** 
 632:.\Generated_Source\PSoC5/cyfitter_cfg.c **** 	/* Configure PLL based on settings from Clock DWR */
 633:.\Generated_Source\PSoC5/cyfitter_cfg.c **** 	CY_SET_XTND_REG16((void CYFAR *)(CYREG_FASTCLK_PLL_P), 0x0235u);
 477              		.loc 1 633 0
 478 0088 384B     		ldr	r3, .L22+80
 479 008a 40F23522 		movw	r2, #565
 480 008e 1A80     		strh	r2, [r3]	@ movhi
 634:.\Generated_Source\PSoC5/cyfitter_cfg.c **** 	CY_SET_XTND_REG16((void CYFAR *)(CYREG_FASTCLK_PLL_CFG0), 0x1251u);
 481              		.loc 1 634 0
 482 0090 374B     		ldr	r3, .L22+84
 483 0092 41F25122 		movw	r2, #4689
 484 0096 1A80     		strh	r2, [r3]	@ movhi
 635:.\Generated_Source\PSoC5/cyfitter_cfg.c **** 	/* Wait up to 250us for the PLL to lock */
 636:.\Generated_Source\PSoC5/cyfitter_cfg.c **** 	pllLock = 0u;
 485              		.loc 1 636 0
 486 0098 0023     		movs	r3, #0
 487 009a FB70     		strb	r3, [r7, #3]
 637:.\Generated_Source\PSoC5/cyfitter_cfg.c **** 	for (timeout = 250u / 10u; (timeout > 0u) && (pllLock != 0x03u); timeout--)
 488              		.loc 1 637 0
 489 009c 1923     		movs	r3, #25
 490 009e 7B60     		str	r3, [r7, #4]
 491 00a0 14E0     		b	.L18
 492              	.L20:
 638:.\Generated_Source\PSoC5/cyfitter_cfg.c **** 	{ 
 639:.\Generated_Source\PSoC5/cyfitter_cfg.c **** 		pllLock = 0x03u & ((uint8)((uint8)pllLock << 1) | ((CY_GET_XTND_REG8((void CYFAR *)CYREG_FASTCLK_
 493              		.loc 1 639 0 discriminator 4
 494 00a2 FB78     		ldrb	r3, [r7, #3]
 495 00a4 5B00     		lsls	r3, r3, #1
 496 00a6 DAB2     		uxtb	r2, r3
 497 00a8 324B     		ldr	r3, .L22+88
 498 00aa 1B78     		ldrb	r3, [r3]
 499 00ac DBB2     		uxtb	r3, r3
ARM GAS  C:\Users\kingi\AppData\Local\Temp\ccdFO8Qx.s 			page 21


 500 00ae 03F00103 		and	r3, r3, #1
 501 00b2 DBB2     		uxtb	r3, r3
 502 00b4 1343     		orrs	r3, r3, r2
 503 00b6 DBB2     		uxtb	r3, r3
 504 00b8 03F00303 		and	r3, r3, #3
 505 00bc FB70     		strb	r3, [r7, #3]
 640:.\Generated_Source\PSoC5/cyfitter_cfg.c **** 		CyDelayCycles(10u * 48u); /* Delay 10us based on 48MHz clock */
 506              		.loc 1 640 0 discriminator 4
 507 00be 4FF4F070 		mov	r0, #480
 508 00c2 FFF7FEFF 		bl	CyDelayCycles
 637:.\Generated_Source\PSoC5/cyfitter_cfg.c **** 	for (timeout = 250u / 10u; (timeout > 0u) && (pllLock != 0x03u); timeout--)
 509              		.loc 1 637 0 discriminator 4
 510 00c6 7B68     		ldr	r3, [r7, #4]
 511 00c8 013B     		subs	r3, r3, #1
 512 00ca 7B60     		str	r3, [r7, #4]
 513              	.L18:
 637:.\Generated_Source\PSoC5/cyfitter_cfg.c **** 	for (timeout = 250u / 10u; (timeout > 0u) && (pllLock != 0x03u); timeout--)
 514              		.loc 1 637 0 is_stmt 0 discriminator 1
 515 00cc 7B68     		ldr	r3, [r7, #4]
 516 00ce 002B     		cmp	r3, #0
 517 00d0 02D0     		beq	.L19
 637:.\Generated_Source\PSoC5/cyfitter_cfg.c **** 	for (timeout = 250u / 10u; (timeout > 0u) && (pllLock != 0x03u); timeout--)
 518              		.loc 1 637 0 discriminator 3
 519 00d2 FB78     		ldrb	r3, [r7, #3]	@ zero_extendqisi2
 520 00d4 032B     		cmp	r3, #3
 521 00d6 E4D1     		bne	.L20
 522              	.L19:
 641:.\Generated_Source\PSoC5/cyfitter_cfg.c **** 	}
 642:.\Generated_Source\PSoC5/cyfitter_cfg.c **** 	/* If we ran out of time the PLL didn't lock so go to the error function */
 643:.\Generated_Source\PSoC5/cyfitter_cfg.c **** 	if (timeout == 0u)
 523              		.loc 1 643 0 is_stmt 1
 524 00d8 7B68     		ldr	r3, [r7, #4]
 525 00da 002B     		cmp	r3, #0
 526 00dc 02D1     		bne	.L21
 644:.\Generated_Source\PSoC5/cyfitter_cfg.c **** 	{
 645:.\Generated_Source\PSoC5/cyfitter_cfg.c **** 		CyClockStartupError(CYCLOCKSTART_PLL_ERROR);
 527              		.loc 1 645 0
 528 00de 0320     		movs	r0, #3
 529 00e0 FFF7FEFF 		bl	CyClockStartupError
 530              	.L21:
 646:.\Generated_Source\PSoC5/cyfitter_cfg.c **** 	}
 647:.\Generated_Source\PSoC5/cyfitter_cfg.c **** 
 648:.\Generated_Source\PSoC5/cyfitter_cfg.c **** 	/* Configure Bus/Master Clock based on settings from Clock DWR */
 649:.\Generated_Source\PSoC5/cyfitter_cfg.c **** 	CY_SET_XTND_REG16((void CYFAR *)(CYREG_CLKDIST_MSTR0), 0x0100u);
 531              		.loc 1 649 0
 532 00e4 244B     		ldr	r3, .L22+92
 533 00e6 4FF48072 		mov	r2, #256
 534 00ea 1A80     		strh	r2, [r3]	@ movhi
 650:.\Generated_Source\PSoC5/cyfitter_cfg.c **** 	CY_SET_XTND_REG8((void CYFAR *)(CYREG_CLKDIST_MSTR0), 0x07u);
 535              		.loc 1 650 0
 536 00ec 224B     		ldr	r3, .L22+92
 537 00ee 0722     		movs	r2, #7
 538 00f0 1A70     		strb	r2, [r3]
 651:.\Generated_Source\PSoC5/cyfitter_cfg.c **** 	CY_SET_XTND_REG8((void CYFAR *)(CYREG_CLKDIST_BCFG0), 0x00u);
 539              		.loc 1 651 0
 540 00f2 224B     		ldr	r3, .L22+96
 541 00f4 0022     		movs	r2, #0
ARM GAS  C:\Users\kingi\AppData\Local\Temp\ccdFO8Qx.s 			page 22


 542 00f6 1A70     		strb	r2, [r3]
 652:.\Generated_Source\PSoC5/cyfitter_cfg.c **** 	CY_SET_XTND_REG8((void CYFAR *)(CYREG_CLKDIST_BCFG2), 0x48u);
 543              		.loc 1 652 0
 544 00f8 214B     		ldr	r3, .L22+100
 545 00fa 4822     		movs	r2, #72
 546 00fc 1A70     		strb	r2, [r3]
 653:.\Generated_Source\PSoC5/cyfitter_cfg.c **** 	CY_SET_XTND_REG8((void CYFAR *)(CYREG_CLKDIST_MSTR0), 0x00u);
 547              		.loc 1 653 0
 548 00fe 1E4B     		ldr	r3, .L22+92
 549 0100 0022     		movs	r2, #0
 550 0102 1A70     		strb	r2, [r3]
 654:.\Generated_Source\PSoC5/cyfitter_cfg.c **** 	CY_SET_XTND_REG8((void CYFAR *)(CYREG_CLKDIST_LD), 0x02u);
 551              		.loc 1 654 0
 552 0104 1F4B     		ldr	r3, .L22+104
 553 0106 0222     		movs	r2, #2
 554 0108 1A70     		strb	r2, [r3]
 655:.\Generated_Source\PSoC5/cyfitter_cfg.c **** 
 656:.\Generated_Source\PSoC5/cyfitter_cfg.c **** 	CY_SET_XTND_REG8((void CYFAR *)(CYREG_PM_ACT_CFG2), ((CY_GET_XTND_REG8((void CYFAR *)CYREG_PM_ACT_
 555              		.loc 1 656 0
 556 010a 1F4B     		ldr	r3, .L22+108
 557 010c 1B78     		ldrb	r3, [r3]
 558 010e 1E4B     		ldr	r3, .L22+108
 559 0110 FF22     		movs	r2, #255
 560 0112 1A70     		strb	r2, [r3]
 657:.\Generated_Source\PSoC5/cyfitter_cfg.c **** }
 561              		.loc 1 657 0
 562 0114 0837     		adds	r7, r7, #8
 563              		.cfi_def_cfa_offset 8
 564 0116 BD46     		mov	sp, r7
 565              		.cfi_def_cfa_register 13
 566              		@ sp needed
 567 0118 80BD     		pop	{r7, pc}
 568              	.L23:
 569 011a 00BF     		.align	2
 570              	.L22:
 571 011c 80400040 		.word	1073758336
 572 0120 82400040 		.word	1073758338
 573 0124 84400040 		.word	1073758340
 574 0128 86400040 		.word	1073758342
 575 012c 88400040 		.word	1073758344
 576 0130 8A400040 		.word	1073758346
 577 0134 8C400040 		.word	1073758348
 578 0138 8E400040 		.word	1073758350
 579 013c 90400040 		.word	1073758352
 580 0140 92400040 		.word	1073758354
 581 0144 94400040 		.word	1073758356
 582 0148 96400040 		.word	1073758358
 583 014c 98400040 		.word	1073758360
 584 0150 9A400040 		.word	1073758362
 585 0154 9C400040 		.word	1073758364
 586 0158 9E400040 		.word	1073758366
 587 015c 00430040 		.word	1073758976
 588 0160 00420040 		.word	1073758720
 589 0164 A1460040 		.word	1073759905
 590 0168 08010049 		.word	1224737032
 591 016c 22420040 		.word	1073758754
 592 0170 20420040 		.word	1073758752
ARM GAS  C:\Users\kingi\AppData\Local\Temp\ccdFO8Qx.s 			page 23


 593 0174 25420040 		.word	1073758757
 594 0178 04400040 		.word	1073758212
 595 017c 06400040 		.word	1073758214
 596 0180 08400040 		.word	1073758216
 597 0184 01400040 		.word	1073758209
 598 0188 A2430040 		.word	1073759138
 599              		.cfi_endproc
 600              	.LFE5:
 601              		.size	ClockSetup, .-ClockSetup
 602              		.section	.text.AnalogSetDefault,"ax",%progbits
 603              		.align	2
 604              		.thumb
 605              		.thumb_func
 606              		.type	AnalogSetDefault, %function
 607              	AnalogSetDefault:
 608              	.LFB6:
 658:.\Generated_Source\PSoC5/cyfitter_cfg.c **** 
 659:.\Generated_Source\PSoC5/cyfitter_cfg.c **** 
 660:.\Generated_Source\PSoC5/cyfitter_cfg.c **** /* Analog API Functions */
 661:.\Generated_Source\PSoC5/cyfitter_cfg.c **** 
 662:.\Generated_Source\PSoC5/cyfitter_cfg.c **** 
 663:.\Generated_Source\PSoC5/cyfitter_cfg.c **** /*******************************************************************************
 664:.\Generated_Source\PSoC5/cyfitter_cfg.c **** * Function Name: AnalogSetDefault
 665:.\Generated_Source\PSoC5/cyfitter_cfg.c **** ********************************************************************************
 666:.\Generated_Source\PSoC5/cyfitter_cfg.c **** *
 667:.\Generated_Source\PSoC5/cyfitter_cfg.c **** * Summary:
 668:.\Generated_Source\PSoC5/cyfitter_cfg.c **** *  Sets up the analog portions of the chip to default values based on chip
 669:.\Generated_Source\PSoC5/cyfitter_cfg.c **** *  configuration options from the project.
 670:.\Generated_Source\PSoC5/cyfitter_cfg.c **** *
 671:.\Generated_Source\PSoC5/cyfitter_cfg.c **** * Parameters:
 672:.\Generated_Source\PSoC5/cyfitter_cfg.c **** *  void
 673:.\Generated_Source\PSoC5/cyfitter_cfg.c **** *
 674:.\Generated_Source\PSoC5/cyfitter_cfg.c **** * Return:
 675:.\Generated_Source\PSoC5/cyfitter_cfg.c **** *  void
 676:.\Generated_Source\PSoC5/cyfitter_cfg.c **** *
 677:.\Generated_Source\PSoC5/cyfitter_cfg.c **** *******************************************************************************/
 678:.\Generated_Source\PSoC5/cyfitter_cfg.c **** static void AnalogSetDefault(void);
 679:.\Generated_Source\PSoC5/cyfitter_cfg.c **** static void AnalogSetDefault(void)
 680:.\Generated_Source\PSoC5/cyfitter_cfg.c **** {
 609              		.loc 1 680 0
 610              		.cfi_startproc
 611              		@ args = 0, pretend = 0, frame = 8
 612              		@ frame_needed = 1, uses_anonymous_args = 0
 613              		@ link register save eliminated.
 614 0000 80B4     		push	{r7}
 615              		.cfi_def_cfa_offset 4
 616              		.cfi_offset 7, -4
 617 0002 83B0     		sub	sp, sp, #12
 618              		.cfi_def_cfa_offset 16
 619 0004 00AF     		add	r7, sp, #0
 620              		.cfi_def_cfa_register 7
 681:.\Generated_Source\PSoC5/cyfitter_cfg.c **** 	uint8 bg_xover_inl_trim = CY_GET_XTND_REG8((void CYFAR *)(CYREG_FLSHID_MFG_CFG_BG_XOVER_INL_TRIM +
 621              		.loc 1 681 0
 622 0006 264B     		ldr	r3, .L25
 623 0008 1B78     		ldrb	r3, [r3]
 624 000a FB71     		strb	r3, [r7, #7]
 682:.\Generated_Source\PSoC5/cyfitter_cfg.c **** 	uint8 cr4 = CY_GET_XTND_REG8((void CYFAR *)(CYREG_RESET_CR4));
ARM GAS  C:\Users\kingi\AppData\Local\Temp\ccdFO8Qx.s 			page 24


 625              		.loc 1 682 0
 626 000c 254B     		ldr	r3, .L25+4
 627 000e 1B78     		ldrb	r3, [r3]
 628 0010 BB71     		strb	r3, [r7, #6]
 683:.\Generated_Source\PSoC5/cyfitter_cfg.c **** 	uint8 cr5 = CY_GET_XTND_REG8((void CYFAR *)(CYREG_RESET_CR5));
 629              		.loc 1 683 0
 630 0012 254B     		ldr	r3, .L25+8
 631 0014 1B78     		ldrb	r3, [r3]
 632 0016 7B71     		strb	r3, [r7, #5]
 684:.\Generated_Source\PSoC5/cyfitter_cfg.c **** 	CY_SET_XTND_REG8((void CYFAR *)(CYREG_BG_DFT0), (bg_xover_inl_trim & 0x07u));
 633              		.loc 1 684 0
 634 0018 244A     		ldr	r2, .L25+12
 635 001a FB79     		ldrb	r3, [r7, #7]
 636 001c 03F00703 		and	r3, r3, #7
 637 0020 DBB2     		uxtb	r3, r3
 638 0022 1370     		strb	r3, [r2]
 685:.\Generated_Source\PSoC5/cyfitter_cfg.c **** 	CY_SET_XTND_REG8((void CYFAR *)(CYREG_BG_DFT1), ((bg_xover_inl_trim >> 4) & 0x0Fu));
 639              		.loc 1 685 0
 640 0024 224A     		ldr	r2, .L25+16
 641 0026 FB79     		ldrb	r3, [r7, #7]	@ zero_extendqisi2
 642 0028 1B09     		lsrs	r3, r3, #4
 643 002a DBB2     		uxtb	r3, r3
 644 002c 1370     		strb	r3, [r2]
 686:.\Generated_Source\PSoC5/cyfitter_cfg.c **** 	/* Disable PRES while setting up SAR voltage reference */
 687:.\Generated_Source\PSoC5/cyfitter_cfg.c **** 	CY_SET_XTND_REG8((void CYFAR *)(CYREG_RESET_CR4), (cr4 | 0x03u));
 645              		.loc 1 687 0
 646 002e 1D4A     		ldr	r2, .L25+4
 647 0030 BB79     		ldrb	r3, [r7, #6]
 648 0032 43F00303 		orr	r3, r3, #3
 649 0036 DBB2     		uxtb	r3, r3
 650 0038 1370     		strb	r3, [r2]
 688:.\Generated_Source\PSoC5/cyfitter_cfg.c **** 	CY_SET_XTND_REG8((void CYFAR *)(CYREG_RESET_CR5), (cr5 | 0x03u));
 651              		.loc 1 688 0
 652 003a 1B4A     		ldr	r2, .L25+8
 653 003c 7B79     		ldrb	r3, [r7, #5]
 654 003e 43F00303 		orr	r3, r3, #3
 655 0042 DBB2     		uxtb	r3, r3
 656 0044 1370     		strb	r3, [r2]
 689:.\Generated_Source\PSoC5/cyfitter_cfg.c **** 	CY_SET_XTND_REG8((void CYFAR *)CYREG_PRT4_AG, 0x03u);
 657              		.loc 1 689 0
 658 0046 1B4B     		ldr	r3, .L25+20
 659 0048 0322     		movs	r2, #3
 660 004a 1A70     		strb	r2, [r3]
 690:.\Generated_Source\PSoC5/cyfitter_cfg.c **** 	CY_SET_XTND_REG8((void CYFAR *)CYREG_SAR0_CSR1, 0x40u);
 661              		.loc 1 690 0
 662 004c 1A4B     		ldr	r3, .L25+24
 663 004e 4022     		movs	r2, #64
 664 0050 1A70     		strb	r2, [r3]
 691:.\Generated_Source\PSoC5/cyfitter_cfg.c **** 	CY_SET_XTND_REG8((void CYFAR *)CYREG_SAR0_CSR3, 0x40u);
 665              		.loc 1 691 0
 666 0052 1A4B     		ldr	r3, .L25+28
 667 0054 4022     		movs	r2, #64
 668 0056 1A70     		strb	r2, [r3]
 692:.\Generated_Source\PSoC5/cyfitter_cfg.c **** 	CY_SET_XTND_REG8((void CYFAR *)CYREG_SAR1_CSR1, 0x40u);
 669              		.loc 1 692 0
 670 0058 194B     		ldr	r3, .L25+32
 671 005a 4022     		movs	r2, #64
ARM GAS  C:\Users\kingi\AppData\Local\Temp\ccdFO8Qx.s 			page 25


 672 005c 1A70     		strb	r2, [r3]
 693:.\Generated_Source\PSoC5/cyfitter_cfg.c **** 	CY_SET_XTND_REG8((void CYFAR *)CYREG_SAR1_CSR3, 0x40u);
 673              		.loc 1 693 0
 674 005e 194B     		ldr	r3, .L25+36
 675 0060 4022     		movs	r2, #64
 676 0062 1A70     		strb	r2, [r3]
 694:.\Generated_Source\PSoC5/cyfitter_cfg.c **** 	CY_SET_XTND_REG8((void CYFAR *)CYREG_SAR0_SW0, 0x20u);
 677              		.loc 1 694 0
 678 0064 184B     		ldr	r3, .L25+40
 679 0066 2022     		movs	r2, #32
 680 0068 1A70     		strb	r2, [r3]
 695:.\Generated_Source\PSoC5/cyfitter_cfg.c **** 	CY_SET_XTND_REG8((void CYFAR *)CYREG_SAR0_SW3, 0x20u);
 681              		.loc 1 695 0
 682 006a 184B     		ldr	r3, .L25+44
 683 006c 2022     		movs	r2, #32
 684 006e 1A70     		strb	r2, [r3]
 696:.\Generated_Source\PSoC5/cyfitter_cfg.c **** 	CY_SET_XTND_REG8((void CYFAR *)CYREG_SAR1_SW0, 0x10u);
 685              		.loc 1 696 0
 686 0070 174B     		ldr	r3, .L25+48
 687 0072 1022     		movs	r2, #16
 688 0074 1A70     		strb	r2, [r3]
 697:.\Generated_Source\PSoC5/cyfitter_cfg.c **** 	CY_SET_XTND_REG8((void CYFAR *)CYREG_SAR1_SW3, 0x20u);
 689              		.loc 1 697 0
 690 0076 174B     		ldr	r3, .L25+52
 691 0078 2022     		movs	r2, #32
 692 007a 1A70     		strb	r2, [r3]
 698:.\Generated_Source\PSoC5/cyfitter_cfg.c **** 	CY_SET_XTND_REG8((void CYFAR *)CYREG_BUS_SW0, 0x10u);
 693              		.loc 1 698 0
 694 007c 164B     		ldr	r3, .L25+56
 695 007e 1022     		movs	r2, #16
 696 0080 1A70     		strb	r2, [r3]
 699:.\Generated_Source\PSoC5/cyfitter_cfg.c **** 	CY_SET_XTND_REG8((void CYFAR *)(CYREG_RESET_CR5), (cr5));
 697              		.loc 1 699 0
 698 0082 094A     		ldr	r2, .L25+8
 699 0084 7B79     		ldrb	r3, [r7, #5]
 700 0086 1370     		strb	r3, [r2]
 700:.\Generated_Source\PSoC5/cyfitter_cfg.c **** 	CY_SET_XTND_REG8((void CYFAR *)(CYREG_RESET_CR4), (cr4));
 701              		.loc 1 700 0
 702 0088 064A     		ldr	r2, .L25+4
 703 008a BB79     		ldrb	r3, [r7, #6]
 704 008c 1370     		strb	r3, [r2]
 701:.\Generated_Source\PSoC5/cyfitter_cfg.c **** 	CY_SET_XTND_REG8((void CYFAR *)CYREG_PUMP_CR0, 0x44u);
 705              		.loc 1 701 0
 706 008e 134B     		ldr	r3, .L25+60
 707 0090 4422     		movs	r2, #68
 708 0092 1A70     		strb	r2, [r3]
 702:.\Generated_Source\PSoC5/cyfitter_cfg.c **** }
 709              		.loc 1 702 0
 710 0094 0C37     		adds	r7, r7, #12
 711              		.cfi_def_cfa_offset 4
 712 0096 BD46     		mov	sp, r7
 713              		.cfi_def_cfa_register 13
 714              		@ sp needed
 715 0098 5DF8047B 		ldr	r7, [sp], #4
 716              		.cfi_restore 7
 717              		.cfi_def_cfa_offset 0
 718 009c 7047     		bx	lr
ARM GAS  C:\Users\kingi\AppData\Local\Temp\ccdFO8Qx.s 			page 26


 719              	.L26:
 720 009e 00BF     		.align	2
 721              	.L25:
 722 00a0 CF010049 		.word	1224737231
 723 00a4 F8460040 		.word	1073759992
 724 00a8 F9460040 		.word	1073759993
 725 00ac 6E580040 		.word	1073764462
 726 00b0 6F580040 		.word	1073764463
 727 00b4 4D510040 		.word	1073762637
 728 00b8 01590040 		.word	1073764609
 729 00bc 03590040 		.word	1073764611
 730 00c0 09590040 		.word	1073764617
 731 00c4 0B590040 		.word	1073764619
 732 00c8 205B0040 		.word	1073765152
 733 00cc 235B0040 		.word	1073765155
 734 00d0 285B0040 		.word	1073765160
 735 00d4 2B5B0040 		.word	1073765163
 736 00d8 585B0040 		.word	1073765208
 737 00dc 76580040 		.word	1073764470
 738              		.cfi_endproc
 739              	.LFE6:
 740              		.size	AnalogSetDefault, .-AnalogSetDefault
 741              		.section	.text.SetAnalogRoutingPumps,"ax",%progbits
 742              		.align	2
 743              		.global	SetAnalogRoutingPumps
 744              		.thumb
 745              		.thumb_func
 746              		.type	SetAnalogRoutingPumps, %function
 747              	SetAnalogRoutingPumps:
 748              	.LFB7:
 703:.\Generated_Source\PSoC5/cyfitter_cfg.c **** 
 704:.\Generated_Source\PSoC5/cyfitter_cfg.c **** 
 705:.\Generated_Source\PSoC5/cyfitter_cfg.c **** /*******************************************************************************
 706:.\Generated_Source\PSoC5/cyfitter_cfg.c **** * Function Name: SetAnalogRoutingPumps
 707:.\Generated_Source\PSoC5/cyfitter_cfg.c **** ********************************************************************************
 708:.\Generated_Source\PSoC5/cyfitter_cfg.c **** *
 709:.\Generated_Source\PSoC5/cyfitter_cfg.c **** * Summary:
 710:.\Generated_Source\PSoC5/cyfitter_cfg.c **** * Enables or disables the analog pumps feeding analog routing switches.
 711:.\Generated_Source\PSoC5/cyfitter_cfg.c **** * Intended to be called at startup, based on the Vdda system configuration;
 712:.\Generated_Source\PSoC5/cyfitter_cfg.c **** * may be called during operation when the user informs us that the Vdda voltage
 713:.\Generated_Source\PSoC5/cyfitter_cfg.c **** * crossed the pump threshold.
 714:.\Generated_Source\PSoC5/cyfitter_cfg.c **** *
 715:.\Generated_Source\PSoC5/cyfitter_cfg.c **** * Parameters:
 716:.\Generated_Source\PSoC5/cyfitter_cfg.c **** *  enabled - 1 to enable the pumps, 0 to disable the pumps
 717:.\Generated_Source\PSoC5/cyfitter_cfg.c **** *
 718:.\Generated_Source\PSoC5/cyfitter_cfg.c **** * Return:
 719:.\Generated_Source\PSoC5/cyfitter_cfg.c **** *  void
 720:.\Generated_Source\PSoC5/cyfitter_cfg.c **** *
 721:.\Generated_Source\PSoC5/cyfitter_cfg.c **** *******************************************************************************/
 722:.\Generated_Source\PSoC5/cyfitter_cfg.c **** void SetAnalogRoutingPumps(uint8 enabled)
 723:.\Generated_Source\PSoC5/cyfitter_cfg.c **** {
 749              		.loc 1 723 0
 750              		.cfi_startproc
 751              		@ args = 0, pretend = 0, frame = 16
 752              		@ frame_needed = 1, uses_anonymous_args = 0
 753              		@ link register save eliminated.
 754 0000 80B4     		push	{r7}
ARM GAS  C:\Users\kingi\AppData\Local\Temp\ccdFO8Qx.s 			page 27


 755              		.cfi_def_cfa_offset 4
 756              		.cfi_offset 7, -4
 757 0002 85B0     		sub	sp, sp, #20
 758              		.cfi_def_cfa_offset 24
 759 0004 00AF     		add	r7, sp, #0
 760              		.cfi_def_cfa_register 7
 761 0006 0346     		mov	r3, r0
 762 0008 FB71     		strb	r3, [r7, #7]
 724:.\Generated_Source\PSoC5/cyfitter_cfg.c **** 	uint8 regValue = CY_GET_XTND_REG8((void CYFAR *)CYREG_PUMP_CR0);
 763              		.loc 1 724 0
 764 000a 0B4B     		ldr	r3, .L30
 765 000c 1B78     		ldrb	r3, [r3]
 766 000e FB73     		strb	r3, [r7, #15]
 725:.\Generated_Source\PSoC5/cyfitter_cfg.c **** 	if (enabled != 0u)
 767              		.loc 1 725 0
 768 0010 FB79     		ldrb	r3, [r7, #7]	@ zero_extendqisi2
 769 0012 002B     		cmp	r3, #0
 770 0014 04D0     		beq	.L28
 726:.\Generated_Source\PSoC5/cyfitter_cfg.c **** 	{
 727:.\Generated_Source\PSoC5/cyfitter_cfg.c **** 		regValue |= 0x22u;
 771              		.loc 1 727 0
 772 0016 FB7B     		ldrb	r3, [r7, #15]
 773 0018 43F02203 		orr	r3, r3, #34
 774 001c FB73     		strb	r3, [r7, #15]
 775 001e 03E0     		b	.L29
 776              	.L28:
 728:.\Generated_Source\PSoC5/cyfitter_cfg.c **** 	}
 729:.\Generated_Source\PSoC5/cyfitter_cfg.c **** 	else
 730:.\Generated_Source\PSoC5/cyfitter_cfg.c **** 	{
 731:.\Generated_Source\PSoC5/cyfitter_cfg.c **** 		regValue &= (uint8)~0x22u;
 777              		.loc 1 731 0
 778 0020 FB7B     		ldrb	r3, [r7, #15]
 779 0022 23F02203 		bic	r3, r3, #34
 780 0026 FB73     		strb	r3, [r7, #15]
 781              	.L29:
 732:.\Generated_Source\PSoC5/cyfitter_cfg.c **** 	}
 733:.\Generated_Source\PSoC5/cyfitter_cfg.c **** 	CY_SET_XTND_REG8((void CYFAR *)CYREG_PUMP_CR0, regValue);
 782              		.loc 1 733 0
 783 0028 034A     		ldr	r2, .L30
 784 002a FB7B     		ldrb	r3, [r7, #15]
 785 002c 1370     		strb	r3, [r2]
 734:.\Generated_Source\PSoC5/cyfitter_cfg.c **** }
 786              		.loc 1 734 0
 787 002e 1437     		adds	r7, r7, #20
 788              		.cfi_def_cfa_offset 4
 789 0030 BD46     		mov	sp, r7
 790              		.cfi_def_cfa_register 13
 791              		@ sp needed
 792 0032 5DF8047B 		ldr	r7, [sp], #4
 793              		.cfi_restore 7
 794              		.cfi_def_cfa_offset 0
 795 0036 7047     		bx	lr
 796              	.L31:
 797              		.align	2
 798              	.L30:
 799 0038 76580040 		.word	1073764470
 800              		.cfi_endproc
ARM GAS  C:\Users\kingi\AppData\Local\Temp\ccdFO8Qx.s 			page 28


 801              	.LFE7:
 802              		.size	SetAnalogRoutingPumps, .-SetAnalogRoutingPumps
 803              		.section	.text.cyfitter_cfg,"ax",%progbits
 804              		.align	2
 805              		.global	cyfitter_cfg
 806              		.thumb
 807              		.thumb_func
 808              		.type	cyfitter_cfg, %function
 809              	cyfitter_cfg:
 810              	.LFB8:
 735:.\Generated_Source\PSoC5/cyfitter_cfg.c **** 
 736:.\Generated_Source\PSoC5/cyfitter_cfg.c **** #define CY_AMUX_UNUSED CYREG_BOOST_SR
 737:.\Generated_Source\PSoC5/cyfitter_cfg.c **** 
 738:.\Generated_Source\PSoC5/cyfitter_cfg.c **** 
 739:.\Generated_Source\PSoC5/cyfitter_cfg.c **** /*******************************************************************************
 740:.\Generated_Source\PSoC5/cyfitter_cfg.c **** * Function Name: cyfitter_cfg
 741:.\Generated_Source\PSoC5/cyfitter_cfg.c **** ********************************************************************************
 742:.\Generated_Source\PSoC5/cyfitter_cfg.c **** * Summary:
 743:.\Generated_Source\PSoC5/cyfitter_cfg.c **** *  This function is called by the start-up code for the selected device. It
 744:.\Generated_Source\PSoC5/cyfitter_cfg.c **** *  performs all of the necessary device configuration based on the design
 745:.\Generated_Source\PSoC5/cyfitter_cfg.c **** *  settings.  This includes settings from the Design Wide Resources (DWR) such
 746:.\Generated_Source\PSoC5/cyfitter_cfg.c **** *  as Clocks and Pins as well as any component configuration that is necessary.
 747:.\Generated_Source\PSoC5/cyfitter_cfg.c **** *
 748:.\Generated_Source\PSoC5/cyfitter_cfg.c **** * Parameters:  
 749:.\Generated_Source\PSoC5/cyfitter_cfg.c **** *   void
 750:.\Generated_Source\PSoC5/cyfitter_cfg.c **** *
 751:.\Generated_Source\PSoC5/cyfitter_cfg.c **** * Return:
 752:.\Generated_Source\PSoC5/cyfitter_cfg.c **** *   void
 753:.\Generated_Source\PSoC5/cyfitter_cfg.c **** *
 754:.\Generated_Source\PSoC5/cyfitter_cfg.c **** *******************************************************************************/
 755:.\Generated_Source\PSoC5/cyfitter_cfg.c **** 
 756:.\Generated_Source\PSoC5/cyfitter_cfg.c **** void cyfitter_cfg(void)
 757:.\Generated_Source\PSoC5/cyfitter_cfg.c **** {
 811              		.loc 1 757 0
 812              		.cfi_startproc
 813              		@ args = 0, pretend = 0, frame = 0
 814              		@ frame_needed = 1, uses_anonymous_args = 0
 815 0000 80B5     		push	{r7, lr}
 816              		.cfi_def_cfa_offset 8
 817              		.cfi_offset 7, -8
 818              		.cfi_offset 14, -4
 819 0002 00AF     		add	r7, sp, #0
 820              		.cfi_def_cfa_register 7
 758:.\Generated_Source\PSoC5/cyfitter_cfg.c **** #ifdef CYGlobalIntDisable
 759:.\Generated_Source\PSoC5/cyfitter_cfg.c **** 	/* Disable interrupts by default. Let user enable if/when they want. */
 760:.\Generated_Source\PSoC5/cyfitter_cfg.c **** 	CYGlobalIntDisable
 821              		.loc 1 760 0
 822              	@ 760 ".\Generated_Source\PSoC5\cyfitter_cfg.c" 1
 823 0004 72B6     		CPSID   i
 824              	@ 0 "" 2
 761:.\Generated_Source\PSoC5/cyfitter_cfg.c **** #endif
 762:.\Generated_Source\PSoC5/cyfitter_cfg.c **** 
 763:.\Generated_Source\PSoC5/cyfitter_cfg.c **** 
 764:.\Generated_Source\PSoC5/cyfitter_cfg.c **** 	/* Set Flash Cycles based on max possible frequency in case a glitch occurs during ClockSetup(). *
 765:.\Generated_Source\PSoC5/cyfitter_cfg.c **** 	CY_SET_XTND_REG8((void CYFAR *)(CYREG_CACHE_CC_CTL), (((CYDEV_INSTRUCT_CACHE_ENABLED) != 0) ? 0x01
 825              		.loc 1 765 0
 826              		.thumb
ARM GAS  C:\Users\kingi\AppData\Local\Temp\ccdFO8Qx.s 			page 29


 827 0006 294B     		ldr	r3, .L33
 828 0008 0122     		movs	r2, #1
 829 000a 1A70     		strb	r2, [r3]
 766:.\Generated_Source\PSoC5/cyfitter_cfg.c **** 	/* Setup clocks based on selections from Clock DWR */
 767:.\Generated_Source\PSoC5/cyfitter_cfg.c **** 	ClockSetup();
 830              		.loc 1 767 0
 831 000c FFF7FEFF 		bl	ClockSetup
 768:.\Generated_Source\PSoC5/cyfitter_cfg.c **** 	/* Enable/Disable Debug functionality based on settings from System DWR */
 769:.\Generated_Source\PSoC5/cyfitter_cfg.c **** 	CY_SET_XTND_REG8((void CYFAR *)CYREG_MLOGIC_DEBUG, (CY_GET_XTND_REG8((void CYFAR *)CYREG_MLOGIC_DE
 832              		.loc 1 769 0
 833 0010 274A     		ldr	r2, .L33+4
 834 0012 274B     		ldr	r3, .L33+4
 835 0014 1B78     		ldrb	r3, [r3]
 836 0016 DBB2     		uxtb	r3, r3
 837 0018 43F00403 		orr	r3, r3, #4
 838 001c DBB2     		uxtb	r3, r3
 839 001e 1370     		strb	r3, [r2]
 770:.\Generated_Source\PSoC5/cyfitter_cfg.c **** 
 771:.\Generated_Source\PSoC5/cyfitter_cfg.c **** 	{
 772:.\Generated_Source\PSoC5/cyfitter_cfg.c **** 		cfg_dma_init();
 840              		.loc 1 772 0
 841 0020 FFF7FEFF 		bl	cfg_dma_init
 773:.\Generated_Source\PSoC5/cyfitter_cfg.c **** 
 774:.\Generated_Source\PSoC5/cyfitter_cfg.c **** 		/* Enable digital routing */
 775:.\Generated_Source\PSoC5/cyfitter_cfg.c **** 		CY_SET_XTND_REG8((void CYFAR *)CYREG_BCTL0_BANK_CTL, CY_GET_XTND_REG8((void CYFAR *)CYREG_BCTL0_B
 842              		.loc 1 775 0
 843 0024 234A     		ldr	r2, .L33+8
 844 0026 234B     		ldr	r3, .L33+8
 845 0028 1B78     		ldrb	r3, [r3]
 846 002a DBB2     		uxtb	r3, r3
 847 002c 43F00203 		orr	r3, r3, #2
 848 0030 DBB2     		uxtb	r3, r3
 849 0032 1370     		strb	r3, [r2]
 776:.\Generated_Source\PSoC5/cyfitter_cfg.c **** 		CY_SET_XTND_REG8((void CYFAR *)CYREG_BCTL1_BANK_CTL, CY_GET_XTND_REG8((void CYFAR *)CYREG_BCTL1_B
 850              		.loc 1 776 0
 851 0034 204A     		ldr	r2, .L33+12
 852 0036 204B     		ldr	r3, .L33+12
 853 0038 1B78     		ldrb	r3, [r3]
 854 003a DBB2     		uxtb	r3, r3
 855 003c 43F00203 		orr	r3, r3, #2
 856 0040 DBB2     		uxtb	r3, r3
 857 0042 1370     		strb	r3, [r2]
 777:.\Generated_Source\PSoC5/cyfitter_cfg.c **** 
 778:.\Generated_Source\PSoC5/cyfitter_cfg.c **** 		/* Enable UDB array */
 779:.\Generated_Source\PSoC5/cyfitter_cfg.c **** 		CY_SET_XTND_REG8((void CYFAR *)CYREG_PM_ACT_CFG0, CY_GET_XTND_REG8((void CYFAR *)CYREG_PM_ACT_CFG
 858              		.loc 1 779 0
 859 0044 1D4A     		ldr	r2, .L33+16
 860 0046 1D4B     		ldr	r3, .L33+16
 861 0048 1B78     		ldrb	r3, [r3]
 862 004a DBB2     		uxtb	r3, r3
 863 004c 43F04003 		orr	r3, r3, #64
 864 0050 DBB2     		uxtb	r3, r3
 865 0052 1370     		strb	r3, [r2]
 780:.\Generated_Source\PSoC5/cyfitter_cfg.c **** 		CY_SET_XTND_REG8((void CYFAR *)CYREG_PM_AVAIL_CR2, CY_GET_XTND_REG8((void CYFAR *)CYREG_PM_AVAIL_
 866              		.loc 1 780 0
 867 0054 1A4A     		ldr	r2, .L33+20
 868 0056 1A4B     		ldr	r3, .L33+20
ARM GAS  C:\Users\kingi\AppData\Local\Temp\ccdFO8Qx.s 			page 30


 869 0058 1B78     		ldrb	r3, [r3]
 870 005a DBB2     		uxtb	r3, r3
 871 005c 43F01003 		orr	r3, r3, #16
 872 0060 DBB2     		uxtb	r3, r3
 873 0062 1370     		strb	r3, [r2]
 781:.\Generated_Source\PSoC5/cyfitter_cfg.c **** 	}
 782:.\Generated_Source\PSoC5/cyfitter_cfg.c **** 
 783:.\Generated_Source\PSoC5/cyfitter_cfg.c **** 
 784:.\Generated_Source\PSoC5/cyfitter_cfg.c **** 	/* Perform second pass device configuration. These items must be configured in specific order afte
 785:.\Generated_Source\PSoC5/cyfitter_cfg.c **** 	CYCONFIGCPY((void CYFAR *)(CYREG_PRT0_DM0), (const void CYFAR *)(BS_IOPINS0_0_VAL), 8u);
 874              		.loc 1 785 0
 875 0064 1748     		ldr	r0, .L33+24
 876 0066 1849     		ldr	r1, .L33+28
 877 0068 0822     		movs	r2, #8
 878 006a FFF7FEFF 		bl	CYCONFIGCPY
 786:.\Generated_Source\PSoC5/cyfitter_cfg.c **** 	CYCONFIGCPY((void CYFAR *)(CYREG_PRT2_DM0), (const void CYFAR *)(BS_IOPINS0_2_VAL), 8u);
 879              		.loc 1 786 0
 880 006e 1748     		ldr	r0, .L33+32
 881 0070 1749     		ldr	r1, .L33+36
 882 0072 0822     		movs	r2, #8
 883 0074 FFF7FEFF 		bl	CYCONFIGCPY
 787:.\Generated_Source\PSoC5/cyfitter_cfg.c **** 	CYCONFIGCPY((void CYFAR *)(CYREG_PRT4_DR), (const void CYFAR *)(BS_IOPINS0_4_VAL), 10u);
 884              		.loc 1 787 0
 885 0078 1648     		ldr	r0, .L33+40
 886 007a 1749     		ldr	r1, .L33+44
 887 007c 0A22     		movs	r2, #10
 888 007e FFF7FEFF 		bl	CYCONFIGCPY
 788:.\Generated_Source\PSoC5/cyfitter_cfg.c **** 	CYCONFIGCPY((void CYFAR *)(CYREG_PRT5_DM0), (const void CYFAR *)(BS_IOPINS0_5_VAL), 8u);
 889              		.loc 1 788 0
 890 0082 1648     		ldr	r0, .L33+48
 891 0084 1649     		ldr	r1, .L33+52
 892 0086 0822     		movs	r2, #8
 893 0088 FFF7FEFF 		bl	CYCONFIGCPY
 789:.\Generated_Source\PSoC5/cyfitter_cfg.c **** 	/* Switch Boost to the precision bandgap reference from its internal reference */
 790:.\Generated_Source\PSoC5/cyfitter_cfg.c **** 	CY_SET_REG8((void CYXDATA *)CYREG_BOOST_CR2, (CY_GET_REG8((void CYXDATA *)CYREG_BOOST_CR2) | 0x08u
 894              		.loc 1 790 0
 895 008c 154A     		ldr	r2, .L33+56
 896 008e 154B     		ldr	r3, .L33+56
 897 0090 1B78     		ldrb	r3, [r3]
 898 0092 DBB2     		uxtb	r3, r3
 899 0094 43F00803 		orr	r3, r3, #8
 900 0098 DBB2     		uxtb	r3, r3
 901 009a 1370     		strb	r3, [r2]
 791:.\Generated_Source\PSoC5/cyfitter_cfg.c **** 
 792:.\Generated_Source\PSoC5/cyfitter_cfg.c **** 	/* Perform basic analog initialization to defaults */
 793:.\Generated_Source\PSoC5/cyfitter_cfg.c **** 	AnalogSetDefault();
 902              		.loc 1 793 0
 903 009c FFF7FEFF 		bl	AnalogSetDefault
 794:.\Generated_Source\PSoC5/cyfitter_cfg.c **** 
 795:.\Generated_Source\PSoC5/cyfitter_cfg.c **** 	/* Configure alternate active mode */
 796:.\Generated_Source\PSoC5/cyfitter_cfg.c **** 	CYCONFIGCPY((void CYFAR *)CYDEV_PM_STBY_BASE, (const void CYFAR *)CYDEV_PM_ACT_BASE, 14u);
 904              		.loc 1 796 0
 905 00a0 1148     		ldr	r0, .L33+60
 906 00a2 0649     		ldr	r1, .L33+16
 907 00a4 0E22     		movs	r2, #14
 908 00a6 FFF7FEFF 		bl	CYCONFIGCPY
 797:.\Generated_Source\PSoC5/cyfitter_cfg.c **** }
ARM GAS  C:\Users\kingi\AppData\Local\Temp\ccdFO8Qx.s 			page 31


 909              		.loc 1 797 0
 910 00aa 80BD     		pop	{r7, pc}
 911              	.L34:
 912              		.align	2
 913              	.L33:
 914 00ac 00480040 		.word	1073760256
 915 00b0 E8460040 		.word	1073759976
 916 00b4 03500140 		.word	1073827843
 917 00b8 13500140 		.word	1073827859
 918 00bc A0430040 		.word	1073759136
 919 00c0 C2430040 		.word	1073759170
 920 00c4 02510040 		.word	1073762562
 921 00c8 80170048 		.word	1207965568
 922 00cc 22510040 		.word	1073762594
 923 00d0 88170048 		.word	1207965576
 924 00d4 40510040 		.word	1073762624
 925 00d8 90170048 		.word	1207965584
 926 00dc 52510040 		.word	1073762642
 927 00e0 9C170048 		.word	1207965596
 928 00e4 22430040 		.word	1073759010
 929 00e8 B0430040 		.word	1073759152
 930              		.cfi_endproc
 931              	.LFE8:
 932              		.size	cyfitter_cfg, .-cyfitter_cfg
 933              		.bss
 934              		.align	3
 935              	DMA_ZERO_VAL.4848:
 936 0000 00000000 		.space	4
 937 0004 00000000 		.section	.dma_init,"a",%progbits
 938              		.align	2
 939              		.type	CFG_TD_LIST0.4849, %object
 940              		.size	CFG_TD_LIST0.4849, 600
 941              	CFG_TD_LIST0.4849:
 942 0000 0800     		.short	8
 943 0002 02       		.byte	2
 944 0003 23       		.byte	35
 945 0004 0000     		.short	0
 946 0006 0876     		.short	30216
 947 0008 0800     		.short	8
 948 000a 03       		.byte	3
 949 000b 23       		.byte	35
 950 000c 0000     		.short	0
 951 000e 1076     		.short	30224
 952 0010 0800     		.short	8
 953 0012 04       		.byte	4
 954 0013 23       		.byte	35
 955 0014 0000     		.short	0
 956 0016 2876     		.short	30248
 957 0018 0800     		.short	8
 958 001a 05       		.byte	5
 959 001b 23       		.byte	35
 960 001c 0000     		.short	0
 961 001e 3076     		.short	30256
 962 0020 0500     		.short	5
 963 0022 06       		.byte	6
 964 0023 23       		.byte	35
 965 0024 0000     		.short	0
ARM GAS  C:\Users\kingi\AppData\Local\Temp\ccdFO8Qx.s 			page 32


 966 0026 2070     		.short	28704
 967 0028 0500     		.short	5
 968 002a 07       		.byte	7
 969 002b 23       		.byte	35
 970 002c 0000     		.short	0
 971 002e 3070     		.short	28720
 972 0030 0500     		.short	5
 973 0032 08       		.byte	8
 974 0033 23       		.byte	35
 975 0034 0000     		.short	0
 976 0036 6070     		.short	28768
 977 0038 0500     		.short	5
 978 003a FE       		.byte	-2
 979 003b 23       		.byte	35
 980 003c 0000     		.short	0
 981 003e 7070     		.short	28784
 982 0040 1000     		.short	16
 983 0042 0A       		.byte	10
 984 0043 22       		.byte	34
 985 0044 0000     		.short	0
 986 0046 1051     		.short	20752
 987 0048 1000     		.short	16
 988 004a 0B       		.byte	11
 989 004b 22       		.byte	34
 990 004c 0000     		.short	0
 991 004e 3051     		.short	20784
 992 0050 1000     		.short	16
 993 0052 0C       		.byte	12
 994 0053 22       		.byte	34
 995 0054 0000     		.short	0
 996 0056 6051     		.short	20832
 997 0058 1000     		.short	16
 998 005a 0D       		.byte	13
 999 005b 22       		.byte	34
 1000 005c 0000     		.short	0
 1001 005e C051     		.short	20928
 1002 0060 1000     		.short	16
 1003 0062 FE       		.byte	-2
 1004 0063 22       		.byte	34
 1005 0064 0000     		.short	0
 1006 0066 F051     		.short	20976
 1007 0068 8001     		.short	384
 1008 006a 0F       		.byte	15
 1009 006b 22       		.byte	34
 1010 006c 0000     		.short	0
 1011 006e 0008     		.short	2048
 1012 0070 8005     		.short	1408
 1013 0072 10       		.byte	16
 1014 0073 22       		.byte	34
 1015 0074 0000     		.short	0
 1016 0076 000A     		.short	2560
 1017 0078 8003     		.short	896
 1018 007a 11       		.byte	17
 1019 007b 22       		.byte	34
 1020 007c 0000     		.short	0
 1021 007e 0018     		.short	6144
 1022 0080 8000     		.short	128
ARM GAS  C:\Users\kingi\AppData\Local\Temp\ccdFO8Qx.s 			page 33


 1023 0082 12       		.byte	18
 1024 0083 22       		.byte	34
 1025 0084 0000     		.short	0
 1026 0086 0042     		.short	16896
 1027 0088 8000     		.short	128
 1028 008a 13       		.byte	19
 1029 008b 22       		.byte	34
 1030 008c 0000     		.short	0
 1031 008e 0043     		.short	17152
 1032 0090 8000     		.short	128
 1033 0092 14       		.byte	20
 1034 0093 22       		.byte	34
 1035 0094 0000     		.short	0
 1036 0096 0044     		.short	17408
 1037 0098 8000     		.short	128
 1038 009a 15       		.byte	21
 1039 009b 22       		.byte	34
 1040 009c 0000     		.short	0
 1041 009e 0045     		.short	17664
 1042 00a0 8000     		.short	128
 1043 00a2 FE       		.byte	-2
 1044 00a3 22       		.byte	34
 1045 00a4 0000     		.short	0
 1046 00a6 0049     		.short	18688
 1047 00a8 0700     		.short	7
 1048 00aa 17       		.byte	23
 1049 00ab 23       		.byte	35
 1050 00ac 0000     		.short	0
 1051 00ae 2052     		.short	21024
 1052 00b0 0800     		.short	8
 1053 00b2 18       		.byte	24
 1054 00b3 23       		.byte	35
 1055 00b4 0000     		.short	0
 1056 00b6 205B     		.short	23328
 1057 00b8 0800     		.short	8
 1058 00ba 19       		.byte	25
 1059 00bb 23       		.byte	35
 1060 00bc 0000     		.short	0
 1061 00be 285B     		.short	23336
 1062 00c0 2000     		.short	32
 1063 00c2 1A       		.byte	26
 1064 00c3 23       		.byte	35
 1065 00c4 0000     		.short	0
 1066 00c6 7064     		.short	25712
 1067 00c8 2000     		.short	32
 1068 00ca FE       		.byte	-2
 1069 00cb 23       		.byte	35
 1070 00cc 0000     		.short	0
 1071 00ce 7065     		.short	25968
 1072 00d0 0800     		.short	8
 1073 00d2 1C       		.byte	28
 1074 00d3 23       		.byte	35
 1075 00d4 0000     		.short	0
 1076 00d6 0051     		.short	20736
 1077 00d8 8000     		.short	128
 1078 00da 1D       		.byte	29
 1079 00db 23       		.byte	35
ARM GAS  C:\Users\kingi\AppData\Local\Temp\ccdFO8Qx.s 			page 34


 1080 00dc 0000     		.short	0
 1081 00de 0000     		.short	0
 1082 00e0 8000     		.short	128
 1083 00e2 1E       		.byte	30
 1084 00e3 23       		.byte	35
 1085 00e4 0000     		.short	0
 1086 00e6 8000     		.short	128
 1087 00e8 8000     		.short	128
 1088 00ea 1F       		.byte	31
 1089 00eb 23       		.byte	35
 1090 00ec 0000     		.short	0
 1091 00ee 0002     		.short	512
 1092 00f0 8000     		.short	128
 1093 00f2 20       		.byte	32
 1094 00f3 23       		.byte	35
 1095 00f4 0000     		.short	0
 1096 00f6 8002     		.short	640
 1097 00f8 8000     		.short	128
 1098 00fa 21       		.byte	33
 1099 00fb 23       		.byte	35
 1100 00fc 0000     		.short	0
 1101 00fe 0004     		.short	1024
 1102 0100 8000     		.short	128
 1103 0102 22       		.byte	34
 1104 0103 23       		.byte	35
 1105 0104 0000     		.short	0
 1106 0106 8004     		.short	1152
 1107 0108 8000     		.short	128
 1108 010a 23       		.byte	35
 1109 010b 23       		.byte	35
 1110 010c 0000     		.short	0
 1111 010e 0006     		.short	1536
 1112 0110 8000     		.short	128
 1113 0112 24       		.byte	36
 1114 0113 23       		.byte	35
 1115 0114 0000     		.short	0
 1116 0116 8006     		.short	1664
 1117 0118 8000     		.short	128
 1118 011a 25       		.byte	37
 1119 011b 23       		.byte	35
 1120 011c 0000     		.short	0
 1121 011e 0014     		.short	5120
 1122 0120 8000     		.short	128
 1123 0122 26       		.byte	38
 1124 0123 23       		.byte	35
 1125 0124 0000     		.short	0
 1126 0126 8014     		.short	5248
 1127 0128 8000     		.short	128
 1128 012a 27       		.byte	39
 1129 012b 23       		.byte	35
 1130 012c 0000     		.short	0
 1131 012e 0016     		.short	5632
 1132 0130 8000     		.short	128
 1133 0132 28       		.byte	40
 1134 0133 23       		.byte	35
 1135 0134 0000     		.short	0
 1136 0136 8016     		.short	5760
ARM GAS  C:\Users\kingi\AppData\Local\Temp\ccdFO8Qx.s 			page 35


 1137 0138 1000     		.short	16
 1138 013a 29       		.byte	41
 1139 013b 23       		.byte	35
 1140 013c 0000     		.short	0
 1141 013e 1050     		.short	20496
 1142 0140 1000     		.short	16
 1143 0142 2A       		.byte	42
 1144 0143 23       		.byte	35
 1145 0144 0000     		.short	0
 1146 0146 0050     		.short	20480
 1147 0148 8000     		.short	128
 1148 014a 2B       		.byte	43
 1149 014b 23       		.byte	35
 1150 014c 0000     		.short	0
 1151 014e 004D     		.short	19712
 1152 0150 8000     		.short	128
 1153 0152 2C       		.byte	44
 1154 0153 23       		.byte	35
 1155 0154 0000     		.short	0
 1156 0156 804D     		.short	19840
 1157 0158 8000     		.short	128
 1158 015a 2D       		.byte	45
 1159 015b 23       		.byte	35
 1160 015c 0000     		.short	0
 1161 015e 004C     		.short	19456
 1162 0160 8000     		.short	128
 1163 0162 2E       		.byte	46
 1164 0163 23       		.byte	35
 1165 0164 0000     		.short	0
 1166 0166 804C     		.short	19584
 1167 0168 8000     		.short	128
 1168 016a 2F       		.byte	47
 1169 016b 23       		.byte	35
 1170 016c 0000     		.short	0
 1171 016e 0047     		.short	18176
 1172 0170 8000     		.short	128
 1173 0172 30       		.byte	48
 1174 0173 23       		.byte	35
 1175 0174 0000     		.short	0
 1176 0176 8047     		.short	18304
 1177 0178 8000     		.short	128
 1178 017a 31       		.byte	49
 1179 017b 23       		.byte	35
 1180 017c 0000     		.short	0
 1181 017e 0046     		.short	17920
 1182 0180 8000     		.short	128
 1183 0182 32       		.byte	50
 1184 0183 23       		.byte	35
 1185 0184 0000     		.short	0
 1186 0186 8046     		.short	18048
 1187 0188 8000     		.short	128
 1188 018a 33       		.byte	51
 1189 018b 23       		.byte	35
 1190 018c 0000     		.short	0
 1191 018e 8045     		.short	17792
 1192 0190 8000     		.short	128
 1193 0192 34       		.byte	52
ARM GAS  C:\Users\kingi\AppData\Local\Temp\ccdFO8Qx.s 			page 36


 1194 0193 23       		.byte	35
 1195 0194 0000     		.short	0
 1196 0196 8044     		.short	17536
 1197 0198 8000     		.short	128
 1198 019a 35       		.byte	53
 1199 019b 23       		.byte	35
 1200 019c 0000     		.short	0
 1201 019e 801B     		.short	7040
 1202 01a0 8000     		.short	128
 1203 01a2 36       		.byte	54
 1204 01a3 23       		.byte	35
 1205 01a4 0000     		.short	0
 1206 01a6 0015     		.short	5376
 1207 01a8 8000     		.short	128
 1208 01aa 37       		.byte	55
 1209 01ab 23       		.byte	35
 1210 01ac 0000     		.short	0
 1211 01ae 8015     		.short	5504
 1212 01b0 8000     		.short	128
 1213 01b2 38       		.byte	56
 1214 01b3 23       		.byte	35
 1215 01b4 0000     		.short	0
 1216 01b6 0017     		.short	5888
 1217 01b8 8000     		.short	128
 1218 01ba 39       		.byte	57
 1219 01bb 23       		.byte	35
 1220 01bc 0000     		.short	0
 1221 01be 8017     		.short	6016
 1222 01c0 8000     		.short	128
 1223 01c2 3A       		.byte	58
 1224 01c3 23       		.byte	35
 1225 01c4 0000     		.short	0
 1226 01c6 8009     		.short	2432
 1227 01c8 8000     		.short	128
 1228 01ca 3B       		.byte	59
 1229 01cb 23       		.byte	35
 1230 01cc 0000     		.short	0
 1231 01ce 0007     		.short	1792
 1232 01d0 8000     		.short	128
 1233 01d2 3C       		.byte	60
 1234 01d3 23       		.byte	35
 1235 01d4 0000     		.short	0
 1236 01d6 8007     		.short	1920
 1237 01d8 8000     		.short	128
 1238 01da 3D       		.byte	61
 1239 01db 23       		.byte	35
 1240 01dc 0000     		.short	0
 1241 01de 0005     		.short	1280
 1242 01e0 8000     		.short	128
 1243 01e2 3E       		.byte	62
 1244 01e3 23       		.byte	35
 1245 01e4 0000     		.short	0
 1246 01e6 8005     		.short	1408
 1247 01e8 8000     		.short	128
 1248 01ea 3F       		.byte	63
 1249 01eb 23       		.byte	35
 1250 01ec 0000     		.short	0
ARM GAS  C:\Users\kingi\AppData\Local\Temp\ccdFO8Qx.s 			page 37


 1251 01ee 0003     		.short	768
 1252 01f0 8000     		.short	128
 1253 01f2 40       		.byte	64
 1254 01f3 23       		.byte	35
 1255 01f4 0000     		.short	0
 1256 01f6 8003     		.short	896
 1257 01f8 8000     		.short	128
 1258 01fa 41       		.byte	65
 1259 01fb 23       		.byte	35
 1260 01fc 0000     		.short	0
 1261 01fe 800F     		.short	3968
 1262 0200 8000     		.short	128
 1263 0202 42       		.byte	66
 1264 0203 23       		.byte	35
 1265 0204 0000     		.short	0
 1266 0206 0001     		.short	256
 1267 0208 8000     		.short	128
 1268 020a 43       		.byte	67
 1269 020b 23       		.byte	35
 1270 020c 0000     		.short	0
 1271 020e 8001     		.short	384
 1272 0210 8000     		.short	128
 1273 0212 44       		.byte	68
 1274 0213 23       		.byte	35
 1275 0214 0000     		.short	0
 1276 0216 8049     		.short	18816
 1277 0218 8000     		.short	128
 1278 021a 45       		.byte	69
 1279 021b 23       		.byte	35
 1280 021c 0000     		.short	0
 1281 021e 0048     		.short	18432
 1282 0220 8000     		.short	128
 1283 0222 46       		.byte	70
 1284 0223 23       		.byte	35
 1285 0224 0000     		.short	0
 1286 0226 8048     		.short	18560
 1287 0228 8000     		.short	128
 1288 022a 47       		.byte	71
 1289 022b 23       		.byte	35
 1290 022c 0000     		.short	0
 1291 022e 8043     		.short	17280
 1292 0230 8000     		.short	128
 1293 0232 48       		.byte	72
 1294 0233 23       		.byte	35
 1295 0234 0000     		.short	0
 1296 0236 8042     		.short	17024
 1297 0238 8000     		.short	128
 1298 023a 49       		.byte	73
 1299 023b 23       		.byte	35
 1300 023c 0000     		.short	0
 1301 023e 0041     		.short	16640
 1302 0240 8000     		.short	128
 1303 0242 4A       		.byte	74
 1304 0243 23       		.byte	35
 1305 0244 0000     		.short	0
 1306 0246 8041     		.short	16768
 1307 0248 8000     		.short	128
ARM GAS  C:\Users\kingi\AppData\Local\Temp\ccdFO8Qx.s 			page 38


 1308 024a 4B       		.byte	75
 1309 024b 23       		.byte	35
 1310 024c 0000     		.short	0
 1311 024e 0040     		.short	16384
 1312 0250 8000     		.short	128
 1313 0252 FE       		.byte	-2
 1314 0253 23       		.byte	35
 1315 0254 0000     		.short	0
 1316 0256 8040     		.short	16512
 1317              		.section	.rodata
 1318              		.align	2
 1319              		.type	CFG_TD_ADDR0.4850, %object
 1320              		.size	CFG_TD_ADDR0.4850, 300
 1321              	CFG_TD_ADDR0.4850:
 1322 0000 78020000 		.word	CH1_ADDR_DATA0.4843
 1323 0004 70020000 		.word	CH2_ADDR_DATA0.4844
 1324 0008 68020000 		.word	CH5_ADDR_DATA0.4845
 1325 000c 60020000 		.word	CH6_ADDR_DATA0.4846
 1326 0010 58020000 		.word	DMA_TD_START_CMD.4847
 1327 0014 58020000 		.word	DMA_TD_START_CMD.4847
 1328 0018 58020000 		.word	DMA_TD_START_CMD.4847
 1329 001c 58020000 		.word	DMA_TD_START_CMD.4847
 1330 0020 00000000 		.word	DMA_ZERO_VAL.4848
 1331 0024 00000000 		.word	DMA_ZERO_VAL.4848
 1332 0028 00000000 		.word	DMA_ZERO_VAL.4848
 1333 002c 00000000 		.word	DMA_ZERO_VAL.4848
 1334 0030 00000000 		.word	DMA_ZERO_VAL.4848
 1335 0034 00000000 		.word	DMA_ZERO_VAL.4848
 1336 0038 00000000 		.word	DMA_ZERO_VAL.4848
 1337 003c 00000000 		.word	DMA_ZERO_VAL.4848
 1338 0040 00000000 		.word	DMA_ZERO_VAL.4848
 1339 0044 00000000 		.word	DMA_ZERO_VAL.4848
 1340 0048 00000000 		.word	DMA_ZERO_VAL.4848
 1341 004c 00000000 		.word	DMA_ZERO_VAL.4848
 1342 0050 00000000 		.word	DMA_ZERO_VAL.4848
 1343 0054 00000048 		.word	1207959552
 1344 0058 10000048 		.word	1207959568
 1345 005c 18000048 		.word	1207959576
 1346 0060 20060048 		.word	1207961120
 1347 0064 40060048 		.word	1207961152
 1348 0068 08000048 		.word	1207959560
 1349 006c 20000048 		.word	1207959584
 1350 0070 A0000048 		.word	1207959712
 1351 0074 20010048 		.word	1207959840
 1352 0078 A0010048 		.word	1207959968
 1353 007c 20020048 		.word	1207960096
 1354 0080 A0020048 		.word	1207960224
 1355 0084 20030048 		.word	1207960352
 1356 0088 A0030048 		.word	1207960480
 1357 008c 20040048 		.word	1207960608
 1358 0090 A0040048 		.word	1207960736
 1359 0094 20050048 		.word	1207960864
 1360 0098 A0050048 		.word	1207960992
 1361 009c 60060048 		.word	1207961184
 1362 00a0 70060048 		.word	1207961200
 1363 00a4 80060048 		.word	1207961216
 1364 00a8 00070048 		.word	1207961344
ARM GAS  C:\Users\kingi\AppData\Local\Temp\ccdFO8Qx.s 			page 39


 1365 00ac 80070048 		.word	1207961472
 1366 00b0 00080048 		.word	1207961600
 1367 00b4 80080048 		.word	1207961728
 1368 00b8 00090048 		.word	1207961856
 1369 00bc 80090048 		.word	1207961984
 1370 00c0 000A0048 		.word	1207962112
 1371 00c4 800A0048 		.word	1207962240
 1372 00c8 000B0048 		.word	1207962368
 1373 00cc 800B0048 		.word	1207962496
 1374 00d0 000C0048 		.word	1207962624
 1375 00d4 800C0048 		.word	1207962752
 1376 00d8 000D0048 		.word	1207962880
 1377 00dc 800D0048 		.word	1207963008
 1378 00e0 000E0048 		.word	1207963136
 1379 00e4 800E0048 		.word	1207963264
 1380 00e8 000F0048 		.word	1207963392
 1381 00ec 800F0048 		.word	1207963520
 1382 00f0 00100048 		.word	1207963648
 1383 00f4 80100048 		.word	1207963776
 1384 00f8 00110048 		.word	1207963904
 1385 00fc 80110048 		.word	1207964032
 1386 0100 00120048 		.word	1207964160
 1387 0104 80120048 		.word	1207964288
 1388 0108 00130048 		.word	1207964416
 1389 010c 80130048 		.word	1207964544
 1390 0110 00140048 		.word	1207964672
 1391 0114 80140048 		.word	1207964800
 1392 0118 00150048 		.word	1207964928
 1393 011c 80150048 		.word	1207965056
 1394 0120 00160048 		.word	1207965184
 1395 0124 80160048 		.word	1207965312
 1396 0128 00170048 		.word	1207965440
 1397              		.section	.dma_init
 1398              		.align	2
 1399              		.type	DMA_TD_START_CMD.4847, %object
 1400              		.size	DMA_TD_START_CMD.4847, 5
 1401              	DMA_TD_START_CMD.4847:
 1402 0258 01       		.byte	1
 1403 0259 00       		.byte	0
 1404 025a 00       		.byte	0
 1405 025b 00       		.byte	0
 1406 025c 01       		.byte	1
 1407 025d 000000   		.align	2
 1408              		.type	CH6_ADDR_DATA0.4846, %object
 1409              		.size	CH6_ADDR_DATA0.4846, 8
 1410              	CH6_ADDR_DATA0.4846:
 1411 0260 01       		.byte	1
 1412 0261 00       		.byte	0
 1413 0262 00       		.byte	0
 1414 0263 00       		.byte	0
 1415 0264 00       		.byte	0
 1416 0265 48       		.byte	72
 1417 0266 01       		.byte	1
 1418 0267 40       		.byte	64
 1419              		.align	2
 1420              		.type	CH5_ADDR_DATA0.4845, %object
 1421              		.size	CH5_ADDR_DATA0.4845, 8
ARM GAS  C:\Users\kingi\AppData\Local\Temp\ccdFO8Qx.s 			page 40


 1422              	CH5_ADDR_DATA0.4845:
 1423 0268 01       		.byte	1
 1424 0269 00       		.byte	0
 1425 026a 00       		.byte	0
 1426 026b 00       		.byte	0
 1427 026c 00       		.byte	0
 1428 026d 48       		.byte	72
 1429 026e 00       		.byte	0
 1430 026f 40       		.byte	64
 1431              		.align	2
 1432              		.type	CH2_ADDR_DATA0.4844, %object
 1433              		.size	CH2_ADDR_DATA0.4844, 8
 1434              	CH2_ADDR_DATA0.4844:
 1435 0270 01       		.byte	1
 1436 0271 00       		.byte	0
 1437 0272 00       		.byte	0
 1438 0273 00       		.byte	0
 1439 0274 00       		.byte	0
 1440 0275 20       		.byte	32
 1441 0276 01       		.byte	1
 1442 0277 40       		.byte	64
 1443              		.align	2
 1444              		.type	CH1_ADDR_DATA0.4843, %object
 1445              		.size	CH1_ADDR_DATA0.4843, 8
 1446              	CH1_ADDR_DATA0.4843:
 1447 0278 01       		.byte	1
 1448 0279 00       		.byte	0
 1449 027a 00       		.byte	0
 1450 027b 00       		.byte	0
 1451 027c 00       		.byte	0
 1452 027d 20       		.byte	32
 1453 027e 00       		.byte	0
 1454 027f 40       		.byte	64
 1455              		.text
 1456              	.Letext0:
 1457              		.file 2 "c:\\program files (x86)\\cypress\\psoc creator\\3.3\\psoc creator\\import\\gnu\\arm\\4.9.
 1458              		.file 3 ".\\Generated_Source\\PSoC5\\cytypes.h"