ARM GAS  C:\Users\kingi\AppData\Local\Temp\ccQfLGi5.s 			page 1


   1              		.syntax unified
   2              		.cpu cortex-m3
   3              		.fpu softvfp
   4              		.eabi_attribute 20, 1
   5              		.eabi_attribute 21, 1
   6              		.eabi_attribute 23, 3
   7              		.eabi_attribute 24, 1
   8              		.eabi_attribute 25, 1
   9              		.eabi_attribute 26, 1
  10              		.eabi_attribute 30, 6
  11              		.eabi_attribute 34, 1
  12              		.eabi_attribute 18, 4
  13              		.thumb
  14              		.file	"main_1506.c"
  15              		.text
  16              	.Ltext0:
  17              		.cfi_sections	.debug_frame
  18              		.section	.rodata
  19              		.align	2
  20              	.LC0:
  21 0000 48656C6C 		.ascii	"Hello World\000"
  21      6F20576F 
  21      726C6400 
  22              		.section	.text.main,"ax",%progbits
  23              		.align	2
  24              		.global	main
  25              		.thumb
  26              		.thumb_func
  27              		.type	main, %function
  28              	main:
  29              	.LFB63:
  30              		.file 1 ".\\main_1506.c"
   1:.\main_1506.c **** 
   2:.\main_1506.c **** #include <device.h>
   3:.\main_1506.c **** 
   4:.\main_1506.c **** #define THREASHOLD (32)
   5:.\main_1506.c **** 
   6:.\main_1506.c **** int main()
   7:.\main_1506.c **** {
  31              		.loc 1 7 0
  32              		.cfi_startproc
  33              		@ args = 0, pretend = 0, frame = 0
  34              		@ frame_needed = 1, uses_anonymous_args = 0
  35 0000 B0B5     		push	{r4, r5, r7, lr}
  36              		.cfi_def_cfa_offset 16
  37              		.cfi_offset 4, -16
  38              		.cfi_offset 5, -12
  39              		.cfi_offset 7, -8
  40              		.cfi_offset 14, -4
  41 0002 00AF     		add	r7, sp, #0
  42              		.cfi_def_cfa_register 7
   8:.\main_1506.c ****     register int8 currVoltage;
   9:.\main_1506.c ****     register int8 lastVoltage;
  10:.\main_1506.c ****     
  11:.\main_1506.c **** 	/* Initialization */
  12:.\main_1506.c **** 	LCD_1506_Start();
  43              		.loc 1 12 0
ARM GAS  C:\Users\kingi\AppData\Local\Temp\ccQfLGi5.s 			page 2


  44 0004 FFF7FEFF 		bl	LCD_1506_Start
  13:.\main_1506.c ****     ADC_1506_Start();               
  45              		.loc 1 13 0
  46 0008 FFF7FEFF 		bl	ADC_1506_Start
  14:.\main_1506.c ****     VDAC_1506_Start();             
  47              		.loc 1 14 0
  48 000c FFF7FEFF 		bl	VDAC_1506_Start
  15:.\main_1506.c ****     Opamp_1506_Start();
  49              		.loc 1 15 0
  50 0010 FFF7FEFF 		bl	Opamp_1506_Start
  16:.\main_1506.c **** 	
  17:.\main_1506.c **** 	/* Print Hello World on LCD */
  18:.\main_1506.c **** 	LCD_1506_PrintString("Hello World");
  51              		.loc 1 18 0
  52 0014 1148     		ldr	r0, .L5
  53 0016 FFF7FEFF 		bl	LCD_1506_PrintString
  19:.\main_1506.c ****     
  20:.\main_1506.c ****     ADC_1506_StartConvert();
  54              		.loc 1 20 0
  55 001a FFF7FEFF 		bl	ADC_1506_StartConvert
  56              	.L4:
  21:.\main_1506.c **** 
  22:.\main_1506.c ****     /* Loop forever */
  23:.\main_1506.c **** 	for(;;)
  24:.\main_1506.c ****     {
  25:.\main_1506.c ****         lastVoltage = currVoltage;
  57              		.loc 1 25 0
  58 001e E5B2     		uxtb	r5, r4
  26:.\main_1506.c ****         ADC_1506_IsEndConversion(ADC_1506_WAIT_FOR_RESULT);
  59              		.loc 1 26 0
  60 0020 0020     		movs	r0, #0
  61 0022 FFF7FEFF 		bl	ADC_1506_IsEndConversion
  27:.\main_1506.c ****         currVoltage = ADC_1506_GetResult8();
  62              		.loc 1 27 0
  63 0026 FFF7FEFF 		bl	ADC_1506_GetResult8
  64 002a 0346     		mov	r3, r0
  65 002c 1C46     		mov	r4, r3
  28:.\main_1506.c ****         if (currVoltage > lastVoltage + THREASHOLD)
  66              		.loc 1 28 0
  67 002e 2246     		mov	r2, r4
  68 0030 6BB2     		sxtb	r3, r5
  69 0032 2033     		adds	r3, r3, #32
  70 0034 9A42     		cmp	r2, r3
  71 0036 03DD     		ble	.L2
  29:.\main_1506.c ****         {
  30:.\main_1506.c ****             currVoltage = lastVoltage + THREASHOLD;
  72              		.loc 1 30 0
  73 0038 EBB2     		uxtb	r3, r5
  74 003a 2033     		adds	r3, r3, #32
  75 003c DBB2     		uxtb	r3, r3
  76 003e DCB2     		uxtb	r4, r3
  77              	.L2:
  31:.\main_1506.c ****         }
  32:.\main_1506.c ****         if (currVoltage < lastVoltage - THREASHOLD)
  78              		.loc 1 32 0
  79 0040 62B2     		sxtb	r2, r4
  80 0042 6BB2     		sxtb	r3, r5
ARM GAS  C:\Users\kingi\AppData\Local\Temp\ccQfLGi5.s 			page 3


  81 0044 203B     		subs	r3, r3, #32
  82 0046 9A42     		cmp	r2, r3
  83 0048 03DA     		bge	.L3
  33:.\main_1506.c ****         {
  34:.\main_1506.c ****             currVoltage = lastVoltage - THREASHOLD;
  84              		.loc 1 34 0
  85 004a EBB2     		uxtb	r3, r5
  86 004c 203B     		subs	r3, r3, #32
  87 004e DBB2     		uxtb	r3, r3
  88 0050 DCB2     		uxtb	r4, r3
  89              	.L3:
  35:.\main_1506.c ****         }
  36:.\main_1506.c ****         VDAC_1506_SetValue(currVoltage);
  90              		.loc 1 36 0
  91 0052 E3B2     		uxtb	r3, r4
  92 0054 1846     		mov	r0, r3
  93 0056 FFF7FEFF 		bl	VDAC_1506_SetValue
  37:.\main_1506.c ****     }
  94              		.loc 1 37 0
  95 005a E0E7     		b	.L4
  96              	.L6:
  97              		.align	2
  98              	.L5:
  99 005c 00000000 		.word	.LC0
 100              		.cfi_endproc
 101              	.LFE63:
 102              		.size	main, .-main
 103              		.text
 104              	.Letext0:
 105              		.file 2 "c:\\program files (x86)\\cypress\\psoc creator\\3.3\\psoc creator\\import\\gnu\\arm\\4.9.
 106              		.file 3 "c:\\program files (x86)\\cypress\\psoc creator\\3.3\\psoc creator\\import\\gnu\\arm\\4.9.
 107              		.file 4 "Generated_Source\\PSoC5/cytypes.h"
 108              		.file 5 "Generated_Source\\PSoC5/core_cm3.h"