ARM GAS  C:\Users\JIANGL~1\AppData\Local\Temp\cc5OgKAF.s 			page 1


   1              		.syntax unified
   2              		.cpu cortex-m3
   3              		.fpu softvfp
   4              		.eabi_attribute 20, 1
   5              		.eabi_attribute 21, 1
   6              		.eabi_attribute 23, 3
   7              		.eabi_attribute 24, 1
   8              		.eabi_attribute 25, 1
   9              		.eabi_attribute 26, 1
  10              		.eabi_attribute 30, 6
  11              		.eabi_attribute 34, 1
  12              		.eabi_attribute 18, 4
  13              		.thumb
  14              		.file	"main.c"
  15              		.text
  16              	.Ltext0:
  17              		.cfi_sections	.debug_frame
  18              		.global _printf_float
  19              		.thumb
  20              		.global	dataReady_L
  21              		.bss
  22              		.type	dataReady_L, %object
  23              		.size	dataReady_L, 1
  24              	dataReady_L:
  25 0000 00       		.space	1
  26              		.global	result_L
  27 0001 000000   		.align	2
  28              		.type	result_L, %object
  29              		.size	result_L, 40
  30              	result_L:
  31 0004 00000000 		.space	40
  31      00000000 
  31      00000000 
  31      00000000 
  31      00000000 
  32              		.global	dataReady_R
  33              		.type	dataReady_R, %object
  34              		.size	dataReady_R, 1
  35              	dataReady_R:
  36 002c 00       		.space	1
  37              		.global	result_R
  38 002d 000000   		.align	2
  39              		.type	result_R, %object
  40              		.size	result_R, 40
  41              	result_R:
  42 0030 00000000 		.space	40
  42      00000000 
  42      00000000 
  42      00000000 
  42      00000000 
  43              		.section	.text.ADC_SAR_R_ISR_LOC,"ax",%progbits
  44              		.align	2
  45              		.global	ADC_SAR_R_ISR_LOC
  46              		.thumb
  47              		.thumb_func
  48              		.type	ADC_SAR_R_ISR_LOC, %function
  49              	ADC_SAR_R_ISR_LOC:
ARM GAS  C:\Users\JIANGL~1\AppData\Local\Temp\cc5OgKAF.s 			page 2


  50              	.LFB63:
  51              		.file 1 ".\\main.c"
   1:.\main.c      **** /*******************************************************************************
   2:.\main.c      **** * File Name: main.c
   3:.\main.c      **** *
   4:.\main.c      **** * Version: 2.0
   5:.\main.c      **** *
   6:.\main.c      **** * Description:
   7:.\main.c      **** *  The SAR ADC and PrISM datasheet example project.
   8:.\main.c      **** *  This example project demonstrates SAR ADC measurements and transferring
   9:.\main.c      **** *  results using ISR and DMA to the LCD and PrISM.
  10:.\main.c      **** *
  11:.\main.c      **** * Note:
  12:.\main.c      **** *  Pin_Vin pin (P1[4]) should be connected to the VR.
  13:.\main.c      **** *  Pin_LED pin (P1[6]) should be connected to the LED.
  14:.\main.c      **** *  Verify that VR_PWR(J11) is jumpered to ON.
  15:.\main.c      **** *
  16:.\main.c      **** * Hardware Dependency:
  17:.\main.c      **** *  CY8C55 Family Processor
  18:.\main.c      **** *
  19:.\main.c      **** ********************************************************************************
  20:.\main.c      **** * Copyright 2012, Cypress Semiconductor Corporation. All rights reserved.
  21:.\main.c      **** * This software is owned by Cypress Semiconductor Corporation and is protected
  22:.\main.c      **** * by and subject to worldwide patent and copyright laws and treaties.
  23:.\main.c      **** * Therefore, you may use this software only as provided in the license agreement
  24:.\main.c      **** * accompanying the software package from which you obtained this software.
  25:.\main.c      **** * CYPRESS AND ITS SUPPLIERS MAKE NO WARRANTY OF ANY KIND, EXPRESS OR IMPLIED,
  26:.\main.c      **** * WITH REGARD TO THIS SOFTWARE, INCLUDING, BUT NOT LIMITED TO, NONINFRINGEMENT,
  27:.\main.c      **** * IMPLIED WARRANTIES OF MERCHANTABILITY AND FITNESS FOR A PARTICULAR PURPOSE.
  28:.\main.c      **** *******************************************************************************/
  29:.\main.c      **** 
  30:.\main.c      **** #include <device.h>
  31:.\main.c      **** #include <stdio.h>
  32:.\main.c      **** #include "ServoMotor.h"
  33:.\main.c      **** #include "pid.h"
  34:.\main.c      **** #include "Bluetooth.h"
  35:.\main.c      **** 
  36:.\main.c      **** #if defined (__GNUC__)
  37:.\main.c      ****     /* Add an explicit reference to the floating point printf library */
  38:.\main.c      ****     /* to allow the usage of floating point conversion specifiers. */
  39:.\main.c      ****     /* This is not linked in by default with the newlib-nano library. */
  40:.\main.c      ****     asm (".global _printf_float");
  41:.\main.c      **** #endif
  42:.\main.c      **** 
  43:.\main.c      **** #define size 20
  44:.\main.c      **** 
  45:.\main.c      **** uint8 dataReady_L = 0u;
  46:.\main.c      **** uint16 result_L[size] = {0};
  47:.\main.c      **** uint8 dataReady_R = 0u;
  48:.\main.c      **** uint16 result_R[size] = {0};
  49:.\main.c      **** 
  50:.\main.c      **** //extern uint16 ADC_L;
  51:.\main.c      **** //extern uint16 ADC_R;
  52:.\main.c      **** 
  53:.\main.c      **** CY_ISR(ADC_SAR_R_ISR_LOC)
  54:.\main.c      **** {
  52              		.loc 1 54 0
ARM GAS  C:\Users\JIANGL~1\AppData\Local\Temp\cc5OgKAF.s 			page 3


  53              		.cfi_startproc
  54              		@ args = 0, pretend = 0, frame = 0
  55              		@ frame_needed = 1, uses_anonymous_args = 0
  56              		@ link register save eliminated.
  57 0000 80B4     		push	{r7}
  58              		.cfi_def_cfa_offset 4
  59              		.cfi_offset 7, -4
  60 0002 00AF     		add	r7, sp, #0
  61              		.cfi_def_cfa_register 7
  55:.\main.c      ****         ADC_R = CY_GET_REG16(ADC_SAR_R_SAR_WRK_PTR);
  62              		.loc 1 55 0
  63 0004 064B     		ldr	r3, .L2
  64 0006 1B88     		ldrh	r3, [r3]	@ movhi
  65 0008 9BB2     		uxth	r3, r3
  66 000a 9AB2     		uxth	r2, r3
  67 000c 054B     		ldr	r3, .L2+4
  68 000e 1A80     		strh	r2, [r3]	@ movhi
  56:.\main.c      ****         dataReady_R = 1u;
  69              		.loc 1 56 0
  70 0010 054B     		ldr	r3, .L2+8
  71 0012 0122     		movs	r2, #1
  72 0014 1A70     		strb	r2, [r3]
  57:.\main.c      **** }
  73              		.loc 1 57 0
  74 0016 BD46     		mov	sp, r7
  75              		.cfi_def_cfa_register 13
  76              		@ sp needed
  77 0018 5DF8047B 		ldr	r7, [sp], #4
  78              		.cfi_restore 7
  79              		.cfi_def_cfa_offset 0
  80 001c 7047     		bx	lr
  81              	.L3:
  82 001e 00BF     		.align	2
  83              	.L2:
  84 0020 A25B0040 		.word	1073765282
  85 0024 00000000 		.word	ADC_R
  86 0028 00000000 		.word	dataReady_R
  87              		.cfi_endproc
  88              	.LFE63:
  89              		.size	ADC_SAR_R_ISR_LOC, .-ADC_SAR_R_ISR_LOC
  90              		.section	.text.ADC_SAR_L_ISR_LOC,"ax",%progbits
  91              		.align	2
  92              		.global	ADC_SAR_L_ISR_LOC
  93              		.thumb
  94              		.thumb_func
  95              		.type	ADC_SAR_L_ISR_LOC, %function
  96              	ADC_SAR_L_ISR_LOC:
  97              	.LFB64:
  58:.\main.c      **** CY_ISR(ADC_SAR_L_ISR_LOC)
  59:.\main.c      **** {
  98              		.loc 1 59 0
  99              		.cfi_startproc
 100              		@ args = 0, pretend = 0, frame = 0
 101              		@ frame_needed = 1, uses_anonymous_args = 0
 102              		@ link register save eliminated.
 103 0000 80B4     		push	{r7}
 104              		.cfi_def_cfa_offset 4
ARM GAS  C:\Users\JIANGL~1\AppData\Local\Temp\cc5OgKAF.s 			page 4


 105              		.cfi_offset 7, -4
 106 0002 00AF     		add	r7, sp, #0
 107              		.cfi_def_cfa_register 7
  60:.\main.c      ****         ADC_L = CY_GET_REG16(ADC_SAR_L_SAR_WRK_PTR);
 108              		.loc 1 60 0
 109 0004 064B     		ldr	r3, .L5
 110 0006 1B88     		ldrh	r3, [r3]	@ movhi
 111 0008 9BB2     		uxth	r3, r3
 112 000a 9AB2     		uxth	r2, r3
 113 000c 054B     		ldr	r3, .L5+4
 114 000e 1A80     		strh	r2, [r3]	@ movhi
  61:.\main.c      ****         dataReady_L = 1u;
 115              		.loc 1 61 0
 116 0010 054B     		ldr	r3, .L5+8
 117 0012 0122     		movs	r2, #1
 118 0014 1A70     		strb	r2, [r3]
  62:.\main.c      **** }
 119              		.loc 1 62 0
 120 0016 BD46     		mov	sp, r7
 121              		.cfi_def_cfa_register 13
 122              		@ sp needed
 123 0018 5DF8047B 		ldr	r7, [sp], #4
 124              		.cfi_restore 7
 125              		.cfi_def_cfa_offset 0
 126 001c 7047     		bx	lr
 127              	.L6:
 128 001e 00BF     		.align	2
 129              	.L5:
 130 0020 A05B0040 		.word	1073765280
 131 0024 00000000 		.word	ADC_L
 132 0028 00000000 		.word	dataReady_L
 133              		.cfi_endproc
 134              	.LFE64:
 135              		.size	ADC_SAR_L_ISR_LOC, .-ADC_SAR_L_ISR_LOC
 136              		.section	.rodata
 137              		.align	2
 138              	.LC0:
 139 0000 41444331 		.ascii	"ADC1=      V\000"
 139      3D202020 
 139      20202056 
 139      00
 140 000d 000000   		.align	2
 141              	.LC1:
 142 0010 41444332 		.ascii	"ADC2=      V\000"
 142      3D202020 
 142      20202056 
 142      00
 143 001d 000000   		.align	2
 144              	.LC2:
 145 0020 25662025 		.ascii	"%f %f %f %f %f %f %f %d %d %f\000"
 145      66202566 
 145      20256620 
 145      25662025 
 145      66202566 
 146              		.global	__aeabi_f2d
 147 003e 0000     		.align	2
 148              	.LC3:
ARM GAS  C:\Users\JIANGL~1\AppData\Local\Temp\cc5OgKAF.s 			page 5


 149 0040 252B312E 		.ascii	"%+1.2f\000"
 149      326600
 150              		.global	__aeabi_i2f
 151              		.global	__aeabi_fadd
 152              		.global	__aeabi_fdiv
 153              		.global	__aeabi_f2uiz
 154 0047 00       		.align	2
 155              	.LC4:
 156 0048 20202020 		.ascii	"     \000"
 156      2000
 157 004e 0000     		.section	.text.main,"ax",%progbits
 158              		.align	2
 159              		.global	main
 160              		.thumb
 161              		.thumb_func
 162              		.type	main, %function
 163              	main:
 164              	.LFB65:
  63:.\main.c      **** 
  64:.\main.c      **** /*******************************************************************************
  65:.\main.c      **** * Function Name: main
  66:.\main.c      **** ********************************************************************************
  67:.\main.c      **** *
  68:.\main.c      **** * Summary:
  69:.\main.c      **** *  Main function performs following functions:
  70:.\main.c      **** *   1. Initialises the DMA to move data from ADC_SAR_1 work registers to the
  71:.\main.c      **** *      PrISM pulse density registers.
  72:.\main.c      **** *   2. Initialises the ISR connected to the DMA nrq terminal(DMA done).
  73:.\main.c      **** *   3. Initialises the LCD.
  74:.\main.c      **** *   4. Initialises the PrISM with 1Mhz clock.
  75:.\main.c      **** *   5. Initialises the two SAR ADCs.
  76:.\main.c      **** *   6. Displays the results of ADC_SAR_1 when DmaDone ISR rises.
  77:.\main.c      **** *      The results are read from PrISM pulse density register.
  78:.\main.c      **** *   7. Displays the results of ADC_SAR_2 when internal EOC ISR rises.
  79:.\main.c      **** *
  80:.\main.c      **** * Parameters:
  81:.\main.c      **** *  None.
  82:.\main.c      **** *
  83:.\main.c      **** * Return:
  84:.\main.c      **** *  None.
  85:.\main.c      **** *
  86:.\main.c      **** *******************************************************************************/
  87:.\main.c      **** int main()
  88:.\main.c      **** {
 165              		.loc 1 88 0
 166              		.cfi_startproc
 167              		@ args = 0, pretend = 0, frame = 32
 168              		@ frame_needed = 1, uses_anonymous_args = 0
 169 0000 B0B5     		push	{r4, r5, r7, lr}
 170              		.cfi_def_cfa_offset 16
 171              		.cfi_offset 4, -16
 172              		.cfi_offset 5, -12
 173              		.cfi_offset 7, -8
 174              		.cfi_offset 14, -4
 175 0002 90B0     		sub	sp, sp, #64
 176              		.cfi_def_cfa_offset 80
 177 0004 08AF     		add	r7, sp, #32
ARM GAS  C:\Users\JIANGL~1\AppData\Local\Temp\cc5OgKAF.s 			page 6


 178              		.cfi_def_cfa 7, 48
  89:.\main.c      ****     char8 resultStr[16u];
  90:.\main.c      ****     float res;
  91:.\main.c      ****     float sum;
  92:.\main.c      ****     uint16 L,R;
  93:.\main.c      ****     /* Initializes the LCD. */
  94:.\main.c      ****     LCD_Start();
 179              		.loc 1 94 0
 180 0006 FFF7FEFF 		bl	LCD_Start
  95:.\main.c      ****     LCD_Position(0u,0u);
 181              		.loc 1 95 0
 182 000a 0020     		movs	r0, #0
 183 000c 0021     		movs	r1, #0
 184 000e FFF7FEFF 		bl	LCD_Position
  96:.\main.c      ****     LCD_PrintString("ADC1=      V");
 185              		.loc 1 96 0
 186 0012 9048     		ldr	r0, .L16
 187 0014 FFF7FEFF 		bl	LCD_PrintString
  97:.\main.c      ****     LCD_Position(1u,0u);
 188              		.loc 1 97 0
 189 0018 0120     		movs	r0, #1
 190 001a 0021     		movs	r1, #0
 191 001c FFF7FEFF 		bl	LCD_Position
  98:.\main.c      ****     LCD_PrintString("ADC2=      V");
 192              		.loc 1 98 0
 193 0020 8D48     		ldr	r0, .L16+4
 194 0022 FFF7FEFF 		bl	LCD_PrintString
  99:.\main.c      **** 
 100:.\main.c      **** 
 101:.\main.c      **** 
 102:.\main.c      ****     ADC_SAR_L_Start();
 195              		.loc 1 102 0
 196 0026 FFF7FEFF 		bl	ADC_SAR_L_Start
 103:.\main.c      ****     ADC_SAR_L_IRQ_StartEx(ADC_SAR_L_ISR_LOC);
 197              		.loc 1 103 0
 198 002a 8C48     		ldr	r0, .L16+8
 199 002c FFF7FEFF 		bl	ADC_SAR_L_IRQ_StartEx
 104:.\main.c      ****     ADC_SAR_L_StartConvert();
 200              		.loc 1 104 0
 201 0030 FFF7FEFF 		bl	ADC_SAR_L_StartConvert
 105:.\main.c      ****     ADC_SAR_R_Start();
 202              		.loc 1 105 0
 203 0034 FFF7FEFF 		bl	ADC_SAR_R_Start
 106:.\main.c      ****     ADC_SAR_R_IRQ_StartEx(ADC_SAR_R_ISR_LOC);
 204              		.loc 1 106 0
 205 0038 8948     		ldr	r0, .L16+12
 206 003a FFF7FEFF 		bl	ADC_SAR_R_IRQ_StartEx
 107:.\main.c      ****     ADC_SAR_R_StartConvert();
 207              		.loc 1 107 0
 208 003e FFF7FEFF 		bl	ADC_SAR_R_StartConvert
 108:.\main.c      ****     CyGlobalIntEnable;
 209              		.loc 1 108 0
 210              	@ 108 ".\main.c" 1
 211 0042 62B6     		CPSIE   i
 212              	@ 0 "" 2
 109:.\main.c      ****     
 110:.\main.c      ****     UART_1_Start();
ARM GAS  C:\Users\JIANGL~1\AppData\Local\Temp\cc5OgKAF.s 			page 7


 213              		.loc 1 110 0
 214              		.thumb
 215 0044 FFF7FEFF 		bl	UART_1_Start
 111:.\main.c      ****     UART_2_Start();
 216              		.loc 1 111 0
 217 0048 FFF7FEFF 		bl	UART_2_Start
 112:.\main.c      ****     UART_3_Start();
 218              		.loc 1 112 0
 219 004c FFF7FEFF 		bl	UART_3_Start
 113:.\main.c      ****     //UART_4_Start();
 114:.\main.c      ****     
 115:.\main.c      ****     SetServoMode(_TOP);
 220              		.loc 1 115 0
 221 0050 0020     		movs	r0, #0
 222 0052 FFF7FEFF 		bl	SetServoMode
 116:.\main.c      ****     SetMotorMode(_LEFT);
 223              		.loc 1 116 0
 224 0056 0120     		movs	r0, #1
 225 0058 FFF7FEFF 		bl	SetMotorMode
 117:.\main.c      ****     SetMotorMode(_RIGHT);
 226              		.loc 1 117 0
 227 005c 0220     		movs	r0, #2
 228 005e FFF7FEFF 		bl	SetMotorMode
 118:.\main.c      ****     CyDelay(100);
 229              		.loc 1 118 0
 230 0062 6420     		movs	r0, #100
 231 0064 FFF7FEFF 		bl	CyDelay
 232              	.L15:
 233              	.LBB2:
 119:.\main.c      **** 
 120:.\main.c      ****     for(;;)
 121:.\main.c      ****     {
 122:.\main.c      ****         GetBluetoothString(buffer);
 234              		.loc 1 122 0
 235 0068 7E48     		ldr	r0, .L16+16
 236 006a FFF7FEFF 		bl	GetBluetoothString
 123:.\main.c      ****         if (buffer[0] != '\0')
 237              		.loc 1 123 0
 238 006e 7D4B     		ldr	r3, .L16+16
 239 0070 1B78     		ldrb	r3, [r3]	@ zero_extendqisi2
 240 0072 002B     		cmp	r3, #0
 241 0074 15D0     		beq	.L8
 124:.\main.c      ****         {
 125:.\main.c      ****             sscanf(buffer, "%f %f %f %f %f %f %f %d %d %f", &Ek, &Ek_1, &Ek_2, &Kp, &Ki, &Kd, &TopM
 242              		.loc 1 125 0
 243 0076 7C4B     		ldr	r3, .L16+20
 244 0078 0093     		str	r3, [sp]
 245 007a 7C4B     		ldr	r3, .L16+24
 246 007c 0193     		str	r3, [sp, #4]
 247 007e 7C4B     		ldr	r3, .L16+28
 248 0080 0293     		str	r3, [sp, #8]
 249 0082 7C4B     		ldr	r3, .L16+32
 250 0084 0393     		str	r3, [sp, #12]
 251 0086 7C4B     		ldr	r3, .L16+36
 252 0088 0493     		str	r3, [sp, #16]
 253 008a 7C4B     		ldr	r3, .L16+40
 254 008c 0593     		str	r3, [sp, #20]
ARM GAS  C:\Users\JIANGL~1\AppData\Local\Temp\cc5OgKAF.s 			page 8


 255 008e 7C4B     		ldr	r3, .L16+44
 256 0090 0693     		str	r3, [sp, #24]
 257 0092 7C4B     		ldr	r3, .L16+48
 258 0094 0793     		str	r3, [sp, #28]
 259 0096 7348     		ldr	r0, .L16+16
 260 0098 7B49     		ldr	r1, .L16+52
 261 009a 7C4A     		ldr	r2, .L16+56
 262 009c 7C4B     		ldr	r3, .L16+60
 263 009e FFF7FEFF 		bl	sscanf
 264              	.L8:
 126:.\main.c      ****         }
 127:.\main.c      ****         
 128:.\main.c      ****         uint8 i,j;
 129:.\main.c      ****         if(dataReady_L != 0u)
 265              		.loc 1 129 0
 266 00a2 7C4B     		ldr	r3, .L16+64
 267 00a4 1B78     		ldrb	r3, [r3]	@ zero_extendqisi2
 268 00a6 002B     		cmp	r3, #0
 269 00a8 64D0     		beq	.L9
 130:.\main.c      ****         {
 131:.\main.c      ****             sum = 0;
 270              		.loc 1 131 0
 271 00aa 4FF00003 		mov	r3, #0
 272 00ae FB61     		str	r3, [r7, #28]	@ float
 132:.\main.c      ****             res = ADC_SAR_L_CountsTo_Volts(ADC_L);
 273              		.loc 1 132 0
 274 00b0 794B     		ldr	r3, .L16+68
 275 00b2 1B88     		ldrh	r3, [r3]
 276 00b4 1BB2     		sxth	r3, r3
 277 00b6 1846     		mov	r0, r3
 278 00b8 FFF7FEFF 		bl	ADC_SAR_L_CountsTo_Volts
 279 00bc 7861     		str	r0, [r7, #20]	@ float
 133:.\main.c      ****             sprintf((char *)resultStr,"%+1.2f",res);
 280              		.loc 1 133 0
 281 00be 7869     		ldr	r0, [r7, #20]	@ float
 282 00c0 FFF7FEFF 		bl	__aeabi_f2d
 283 00c4 0446     		mov	r4, r0
 284 00c6 0D46     		mov	r5, r1
 285 00c8 3B46     		mov	r3, r7
 286 00ca 1846     		mov	r0, r3
 287 00cc 7349     		ldr	r1, .L16+72
 288 00ce 2246     		mov	r2, r4
 289 00d0 2B46     		mov	r3, r5
 290 00d2 FFF7FEFF 		bl	sprintf
 134:.\main.c      ****             for(j=0;j<size-1;j++)
 291              		.loc 1 134 0
 292 00d6 0023     		movs	r3, #0
 293 00d8 FB76     		strb	r3, [r7, #27]
 294 00da 1AE0     		b	.L10
 295              	.L11:
 135:.\main.c      ****             {
 136:.\main.c      ****                 result_L[j] = result_L[j+1];
 296              		.loc 1 136 0 discriminator 3
 297 00dc FB7E     		ldrb	r3, [r7, #27]	@ zero_extendqisi2
 298 00de FA7E     		ldrb	r2, [r7, #27]	@ zero_extendqisi2
 299 00e0 0132     		adds	r2, r2, #1
 300 00e2 6F49     		ldr	r1, .L16+76
ARM GAS  C:\Users\JIANGL~1\AppData\Local\Temp\cc5OgKAF.s 			page 9


 301 00e4 31F81210 		ldrh	r1, [r1, r2, lsl #1]
 302 00e8 6D4A     		ldr	r2, .L16+76
 303 00ea 22F81310 		strh	r1, [r2, r3, lsl #1]	@ movhi
 137:.\main.c      ****                 sum += result_L[j+1];
 304              		.loc 1 137 0 discriminator 3
 305 00ee FB7E     		ldrb	r3, [r7, #27]	@ zero_extendqisi2
 306 00f0 0133     		adds	r3, r3, #1
 307 00f2 6B4A     		ldr	r2, .L16+76
 308 00f4 32F81330 		ldrh	r3, [r2, r3, lsl #1]
 309 00f8 1846     		mov	r0, r3
 310 00fa FFF7FEFF 		bl	__aeabi_i2f
 311 00fe 0346     		mov	r3, r0
 312 0100 F869     		ldr	r0, [r7, #28]	@ float
 313 0102 1946     		mov	r1, r3
 314 0104 FFF7FEFF 		bl	__aeabi_fadd
 315 0108 0346     		mov	r3, r0
 316 010a FB61     		str	r3, [r7, #28]	@ float
 134:.\main.c      ****             for(j=0;j<size-1;j++)
 317              		.loc 1 134 0 discriminator 3
 318 010c FB7E     		ldrb	r3, [r7, #27]	@ zero_extendqisi2
 319 010e 0133     		adds	r3, r3, #1
 320 0110 FB76     		strb	r3, [r7, #27]
 321              	.L10:
 134:.\main.c      ****             for(j=0;j<size-1;j++)
 322              		.loc 1 134 0 is_stmt 0 discriminator 1
 323 0112 FB7E     		ldrb	r3, [r7, #27]	@ zero_extendqisi2
 324 0114 122B     		cmp	r3, #18
 325 0116 E1D9     		bls	.L11
 138:.\main.c      ****             }
 139:.\main.c      ****             result_L[size - 1] = ADC_L;
 326              		.loc 1 139 0 is_stmt 1
 327 0118 5F4B     		ldr	r3, .L16+68
 328 011a 1B88     		ldrh	r3, [r3]
 329 011c 9AB2     		uxth	r2, r3
 330 011e 604B     		ldr	r3, .L16+76
 331 0120 DA84     		strh	r2, [r3, #38]	@ movhi
 140:.\main.c      ****             sum = (sum+ADC_L)/size;
 332              		.loc 1 140 0
 333 0122 5D4B     		ldr	r3, .L16+68
 334 0124 1B88     		ldrh	r3, [r3]
 335 0126 1BB2     		sxth	r3, r3
 336 0128 1846     		mov	r0, r3
 337 012a FFF7FEFF 		bl	__aeabi_i2f
 338 012e 0346     		mov	r3, r0
 339 0130 1846     		mov	r0, r3
 340 0132 F969     		ldr	r1, [r7, #28]	@ float
 341 0134 FFF7FEFF 		bl	__aeabi_fadd
 342 0138 0346     		mov	r3, r0
 343 013a 1846     		mov	r0, r3
 344 013c 5949     		ldr	r1, .L16+80
 345 013e FFF7FEFF 		bl	__aeabi_fdiv
 346 0142 0346     		mov	r3, r0
 347 0144 FB61     		str	r3, [r7, #28]	@ float
 141:.\main.c      ****             L = sum;
 348              		.loc 1 141 0
 349 0146 F869     		ldr	r0, [r7, #28]	@ float
 350 0148 FFF7FEFF 		bl	__aeabi_f2uiz
ARM GAS  C:\Users\JIANGL~1\AppData\Local\Temp\cc5OgKAF.s 			page 10


 351 014c 0346     		mov	r3, r0
 352 014e 3B82     		strh	r3, [r7, #16]	@ movhi
 142:.\main.c      ****             LCD_Position(0u,5u);
 353              		.loc 1 142 0
 354 0150 0020     		movs	r0, #0
 355 0152 0521     		movs	r1, #5
 356 0154 FFF7FEFF 		bl	LCD_Position
 143:.\main.c      ****             LCD_PrintString("     ");
 357              		.loc 1 143 0
 358 0158 5348     		ldr	r0, .L16+84
 359 015a FFF7FEFF 		bl	LCD_PrintString
 144:.\main.c      ****             //LCD_PrintString(resultStr);
 145:.\main.c      ****             LCD_Position(0u,5u);
 360              		.loc 1 145 0
 361 015e 0020     		movs	r0, #0
 362 0160 0521     		movs	r1, #5
 363 0162 FFF7FEFF 		bl	LCD_Position
 146:.\main.c      ****             LCD_PrintNumber(L);
 364              		.loc 1 146 0
 365 0166 3B8A     		ldrh	r3, [r7, #16]
 366 0168 1846     		mov	r0, r3
 367 016a FFF7FEFF 		bl	LCD_PrintU32Number
 147:.\main.c      ****             dataReady_L = 0u;
 368              		.loc 1 147 0
 369 016e 494B     		ldr	r3, .L16+64
 370 0170 0022     		movs	r2, #0
 371 0172 1A70     		strb	r2, [r3]
 372              	.L9:
 148:.\main.c      ****             //CyDelay(1);
 149:.\main.c      ****         }
 150:.\main.c      ****         if(dataReady_R != 0u)
 373              		.loc 1 150 0
 374 0174 4D4B     		ldr	r3, .L16+88
 375 0176 1B78     		ldrb	r3, [r3]	@ zero_extendqisi2
 376 0178 002B     		cmp	r3, #0
 377 017a 64D0     		beq	.L12
 151:.\main.c      ****         {
 152:.\main.c      ****             sum = 0;
 378              		.loc 1 152 0
 379 017c 4FF00003 		mov	r3, #0
 380 0180 FB61     		str	r3, [r7, #28]	@ float
 153:.\main.c      ****             res = ADC_SAR_R_CountsTo_Volts(ADC_R);
 381              		.loc 1 153 0
 382 0182 4B4B     		ldr	r3, .L16+92
 383 0184 1B88     		ldrh	r3, [r3]
 384 0186 1BB2     		sxth	r3, r3
 385 0188 1846     		mov	r0, r3
 386 018a FFF7FEFF 		bl	ADC_SAR_R_CountsTo_Volts
 387 018e 7861     		str	r0, [r7, #20]	@ float
 154:.\main.c      ****             sprintf((char *)resultStr,"%+1.2f",res);
 388              		.loc 1 154 0
 389 0190 7869     		ldr	r0, [r7, #20]	@ float
 390 0192 FFF7FEFF 		bl	__aeabi_f2d
 391 0196 0446     		mov	r4, r0
 392 0198 0D46     		mov	r5, r1
 393 019a 3B46     		mov	r3, r7
 394 019c 1846     		mov	r0, r3
ARM GAS  C:\Users\JIANGL~1\AppData\Local\Temp\cc5OgKAF.s 			page 11


 395 019e 3F49     		ldr	r1, .L16+72
 396 01a0 2246     		mov	r2, r4
 397 01a2 2B46     		mov	r3, r5
 398 01a4 FFF7FEFF 		bl	sprintf
 155:.\main.c      ****             for(j=0;j<size-1;j++)
 399              		.loc 1 155 0
 400 01a8 0023     		movs	r3, #0
 401 01aa FB76     		strb	r3, [r7, #27]
 402 01ac 1AE0     		b	.L13
 403              	.L14:
 156:.\main.c      ****             {
 157:.\main.c      ****                 result_R[j] = result_R[j+1];
 404              		.loc 1 157 0 discriminator 3
 405 01ae FB7E     		ldrb	r3, [r7, #27]	@ zero_extendqisi2
 406 01b0 FA7E     		ldrb	r2, [r7, #27]	@ zero_extendqisi2
 407 01b2 0132     		adds	r2, r2, #1
 408 01b4 3F49     		ldr	r1, .L16+96
 409 01b6 31F81210 		ldrh	r1, [r1, r2, lsl #1]
 410 01ba 3E4A     		ldr	r2, .L16+96
 411 01bc 22F81310 		strh	r1, [r2, r3, lsl #1]	@ movhi
 158:.\main.c      ****                 sum += result_R[j+1];
 412              		.loc 1 158 0 discriminator 3
 413 01c0 FB7E     		ldrb	r3, [r7, #27]	@ zero_extendqisi2
 414 01c2 0133     		adds	r3, r3, #1
 415 01c4 3B4A     		ldr	r2, .L16+96
 416 01c6 32F81330 		ldrh	r3, [r2, r3, lsl #1]
 417 01ca 1846     		mov	r0, r3
 418 01cc FFF7FEFF 		bl	__aeabi_i2f
 419 01d0 0346     		mov	r3, r0
 420 01d2 F869     		ldr	r0, [r7, #28]	@ float
 421 01d4 1946     		mov	r1, r3
 422 01d6 FFF7FEFF 		bl	__aeabi_fadd
 423 01da 0346     		mov	r3, r0
 424 01dc FB61     		str	r3, [r7, #28]	@ float
 155:.\main.c      ****             for(j=0;j<size-1;j++)
 425              		.loc 1 155 0 discriminator 3
 426 01de FB7E     		ldrb	r3, [r7, #27]	@ zero_extendqisi2
 427 01e0 0133     		adds	r3, r3, #1
 428 01e2 FB76     		strb	r3, [r7, #27]
 429              	.L13:
 155:.\main.c      ****             for(j=0;j<size-1;j++)
 430              		.loc 1 155 0 is_stmt 0 discriminator 1
 431 01e4 FB7E     		ldrb	r3, [r7, #27]	@ zero_extendqisi2
 432 01e6 122B     		cmp	r3, #18
 433 01e8 E1D9     		bls	.L14
 159:.\main.c      ****             }
 160:.\main.c      ****             result_R[size - 1] = ADC_R;
 434              		.loc 1 160 0 is_stmt 1
 435 01ea 314B     		ldr	r3, .L16+92
 436 01ec 1B88     		ldrh	r3, [r3]
 437 01ee 9AB2     		uxth	r2, r3
 438 01f0 304B     		ldr	r3, .L16+96
 439 01f2 DA84     		strh	r2, [r3, #38]	@ movhi
 161:.\main.c      ****             sum = (sum+ADC_R)/size;
 440              		.loc 1 161 0
 441 01f4 2E4B     		ldr	r3, .L16+92
 442 01f6 1B88     		ldrh	r3, [r3]
ARM GAS  C:\Users\JIANGL~1\AppData\Local\Temp\cc5OgKAF.s 			page 12


 443 01f8 1BB2     		sxth	r3, r3
 444 01fa 1846     		mov	r0, r3
 445 01fc FFF7FEFF 		bl	__aeabi_i2f
 446 0200 0346     		mov	r3, r0
 447 0202 1846     		mov	r0, r3
 448 0204 F969     		ldr	r1, [r7, #28]	@ float
 449 0206 FFF7FEFF 		bl	__aeabi_fadd
 450 020a 0346     		mov	r3, r0
 451 020c 1846     		mov	r0, r3
 452 020e 2549     		ldr	r1, .L16+80
 453 0210 FFF7FEFF 		bl	__aeabi_fdiv
 454 0214 0346     		mov	r3, r0
 455 0216 FB61     		str	r3, [r7, #28]	@ float
 162:.\main.c      ****             R = sum;
 456              		.loc 1 162 0
 457 0218 F869     		ldr	r0, [r7, #28]	@ float
 458 021a FFF7FEFF 		bl	__aeabi_f2uiz
 459 021e 0346     		mov	r3, r0
 460 0220 7B82     		strh	r3, [r7, #18]	@ movhi
 163:.\main.c      ****             LCD_Position(1u,5u);
 461              		.loc 1 163 0
 462 0222 0120     		movs	r0, #1
 463 0224 0521     		movs	r1, #5
 464 0226 FFF7FEFF 		bl	LCD_Position
 164:.\main.c      ****             LCD_PrintString("     ");
 465              		.loc 1 164 0
 466 022a 1F48     		ldr	r0, .L16+84
 467 022c FFF7FEFF 		bl	LCD_PrintString
 165:.\main.c      ****             LCD_Position(1u,5u);
 468              		.loc 1 165 0
 469 0230 0120     		movs	r0, #1
 470 0232 0521     		movs	r1, #5
 471 0234 FFF7FEFF 		bl	LCD_Position
 166:.\main.c      ****             //LCD_PrintString(resultStr);
 167:.\main.c      ****             LCD_PrintNumber(R);
 472              		.loc 1 167 0
 473 0238 7B8A     		ldrh	r3, [r7, #18]
 474 023a 1846     		mov	r0, r3
 475 023c FFF7FEFF 		bl	LCD_PrintU32Number
 168:.\main.c      ****             dataReady_R = 0u;
 476              		.loc 1 168 0
 477 0240 1A4B     		ldr	r3, .L16+88
 478 0242 0022     		movs	r2, #0
 479 0244 1A70     		strb	r2, [r3]
 480              	.L12:
 169:.\main.c      ****             //CyDelay(1);
 170:.\main.c      ****         }
 171:.\main.c      ****         //SetServoPosition(_TOP, 512, 0x01ff);
 172:.\main.c      ****         PID();
 481              		.loc 1 172 0
 482 0246 FFF7FEFF 		bl	PID
 173:.\main.c      ****         CyDelay(2);
 483              		.loc 1 173 0
 484 024a 0220     		movs	r0, #2
 485 024c FFF7FEFF 		bl	CyDelay
 486              	.LBE2:
 174:.\main.c      ****     }
ARM GAS  C:\Users\JIANGL~1\AppData\Local\Temp\cc5OgKAF.s 			page 13


 487              		.loc 1 174 0
 488 0250 0AE7     		b	.L15
 489              	.L17:
 490 0252 00BF     		.align	2
 491              	.L16:
 492 0254 00000000 		.word	.LC0
 493 0258 10000000 		.word	.LC1
 494 025c 00000000 		.word	ADC_SAR_L_ISR_LOC
 495 0260 00000000 		.word	ADC_SAR_R_ISR_LOC
 496 0264 00000000 		.word	buffer
 497 0268 00000000 		.word	Ek_2
 498 026c 00000000 		.word	Kp
 499 0270 00000000 		.word	Ki
 500 0274 00000000 		.word	Kd
 501 0278 00000000 		.word	TopMotorAngleCoeff
 502 027c 00000000 		.word	ADC_L_balance
 503 0280 00000000 		.word	ADC_R_balance
 504 0284 00000000 		.word	range
 505 0288 20000000 		.word	.LC2
 506 028c 00000000 		.word	Ek
 507 0290 00000000 		.word	Ek_1
 508 0294 00000000 		.word	dataReady_L
 509 0298 00000000 		.word	ADC_L
 510 029c 40000000 		.word	.LC3
 511 02a0 00000000 		.word	result_L
 512 02a4 0000A041 		.word	1101004800
 513 02a8 48000000 		.word	.LC4
 514 02ac 00000000 		.word	dataReady_R
 515 02b0 00000000 		.word	ADC_R
 516 02b4 00000000 		.word	result_R
 517              		.cfi_endproc
 518              	.LFE65:
 519              		.size	main, .-main
 520              		.text
 521              	.Letext0:
 522              		.file 2 "d:\\program files (x86)\\cypress\\psoc creator\\3.3\\psoc creator\\import\\gnu\\arm\\4.9.
 523              		.file 3 "d:\\program files (x86)\\cypress\\psoc creator\\3.3\\psoc creator\\import\\gnu\\arm\\4.9.
 524              		.file 4 "Generated_Source\\PSoC5/cytypes.h"
 525              		.file 5 "Generated_Source\\PSoC5/core_cm3.h"
 526              		.file 6 ".\\pid.h"
 527              		.file 7 ".\\Bluetooth.h"