ARM GAS  C:\Users\JIANGL~1\AppData\Local\Temp\cc5OgKAF.s 			page 1


   1              		.syntax unified
   2              		.cpu cortex-m3
   3              		.fpu softvfp
   4              		.eabi_attribute 20, 1
   5              		.eabi_attribute 21, 1
   6              		.eabi_attribute 23, 3
   7              		.eabi_attribute 24, 1
   8              		.eabi_attribute 25, 1
   9              		.eabi_attribute 26, 1
  10              		.eabi_attribute 30, 6
  11              		.eabi_attribute 34, 1
  12              		.eabi_attribute 18, 4
  13              		.thumb
  14              		.file	"main.c"
  15              		.text
  16              	.Ltext0:
  17              		.cfi_sections	.debug_frame
  18              		.global _printf_float
  19              		.thumb
  20              		.global	dataReady_L
  21              		.bss
  22              		.type	dataReady_L, %object
  23              		.size	dataReady_L, 1
  24              	dataReady_L:
  25 0000 00       		.space	1
  26              		.global	result_L
  27 0001 000000   		.align	2
  28              		.type	result_L, %object
  29              		.size	result_L, 40
  30              	result_L:
  31 0004 00000000 		.space	40
  31      00000000 
  31      00000000 
  31      00000000 
  31      00000000 
  32              		.global	dataReady_R
  33              		.type	dataReady_R, %object
  34              		.size	dataReady_R, 1
  35              	dataReady_R:
  36 002c 00       		.space	1
  37              		.global	result_R
  38 002d 000000   		.align	2
  39              		.type	result_R, %object
  40              		.size	result_R, 40
  41              	result_R:
  42 0030 00000000 		.space	40
  42      00000000 
  42      00000000 
  42      00000000 
  42      00000000 
  43              		.section	.text.ADC_SAR_R_ISR_LOC,"ax",%progbits
  44              		.align	2
  45              		.global	ADC_SAR_R_ISR_LOC
  46              		.thumb
  47              		.thumb_func
  48              		.type	ADC_SAR_R_ISR_LOC, %function
  49              	ADC_SAR_R_ISR_LOC:
ARM GAS  C:\Users\JIANGL~1\AppData\Local\Temp\cc5OgKAF.s 			page 2


  50              	.LFB63:
  51              		.file 1 ".\\main.c"
   1:.\main.c      **** /*******************************************************************************
   2:.\main.c      **** * File Name: main.c
   3:.\main.c      **** *
   4:.\main.c      **** * Version: 2.0
   5:.\main.c      **** *
   6:.\main.c      **** * Description:
   7:.\main.c      **** *  The SAR ADC and PrISM datasheet example project.
   8:.\main.c      **** *  This example project demonstrates SAR ADC measurements and transferring
   9:.\main.c      **** *  results using ISR and DMA to the LCD and PrISM.
  10:.\main.c      **** *
  11:.\main.c      **** * Note:
  12:.\main.c      **** *  Pin_Vin pin (P1[4]) should be connected to the VR.
  13:.\main.c      **** *  Pin_LED pin (P1[6]) should be connected to the LED.
  14:.\main.c      **** *  Verify that VR_PWR(J11) is jumpered to ON.
  15:.\main.c      **** *
  16:.\main.c      **** * Hardware Dependency:
  17:.\main.c      **** *  CY8C55 Family Processor
  18:.\main.c      **** *
  19:.\main.c      **** ********************************************************************************
  20:.\main.c      **** * Copyright 2012, Cypress Semiconductor Corporation. All rights reserved.
  21:.\main.c      **** * This software is owned by Cypress Semiconductor Corporation and is protected
  22:.\main.c      **** * by and subject to worldwide patent and copyright laws and treaties.
  23:.\main.c      **** * Therefore, you may use this software only as provided in the license agreement
  24:.\main.c      **** * accompanying the software package from which you obtained this software.
  25:.\main.c      **** * CYPRESS AND ITS SUPPLIERS MAKE NO WARRANTY OF ANY KIND, EXPRESS OR IMPLIED,
  26:.\main.c      **** * WITH REGARD TO THIS SOFTWARE, INCLUDING, BUT NOT LIMITED TO, NONINFRINGEMENT,
  27:.\main.c      **** * IMPLIED WARRANTIES OF MERCHANTABILITY AND FITNESS FOR A PARTICULAR PURPOSE.
  28:.\main.c      **** *******************************************************************************/
  29:.\main.c      **** 
  30:.\main.c      **** #include <device.h>
  31:.\main.c      **** #include <stdio.h>
  32:.\main.c      **** #include "ServoMotor.h"
  33:.\main.c      **** #include "pid.h"
  34:.\main.c      **** #include "Bluetooth.h"
  35:.\main.c      **** 
  36:.\main.c      **** #if defined (__GNUC__)
  37:.\main.c      ****     /* Add an explicit reference to the floating point printf library */
  38:.\main.c      ****     /* to allow the usage of floating point conversion specifiers. */
  39:.\main.c      ****     /* This is not linked in by default with the newlib-nano library. */
  40:.\main.c      ****     asm (".global _printf_float");
  41:.\main.c      **** #endif
  42:.\main.c      **** 
  43:.\main.c      **** #define size 20
  44:.\main.c      **** 
  45:.\main.c      **** uint8 dataReady_L = 0u;
  46:.\main.c      **** uint16 result_L[size] = {0};
  47:.\main.c      **** uint8 dataReady_R = 0u;
  48:.\main.c      **** uint16 result_R[size] = {0};
  49:.\main.c      **** 
  50:.\main.c      **** //extern uint16 ADC_L;
  51:.\main.c      **** //extern uint16 ADC_R;
  52:.\main.c      **** 
  53:.\main.c      **** CY_ISR(ADC_SAR_R_ISR_LOC)
  54:.\main.c      **** {
  52              		.loc 1 54 0
ARM GAS  C:\Users\JIANGL~1\AppData\Local\Temp\cc5OgKAF.s 			page 3


  53              		.cfi_startproc
  54              		@ args = 0, pretend = 0, frame = 0
  55              		@ frame_needed = 1, uses_anonymous_args = 0
  56              		@ link register save eliminated.
  57 0000 80B4     		push	{r7}
  58              		.cfi_def_cfa_offset 4
  59              		.cfi_offset 7, -4
  60 0002 00AF     		add	r7, sp, #0
  61              		.cfi_def_cfa_register 7
  55:.\main.c      ****         ADC_R = CY_GET_REG16(ADC_SAR_R_SAR_WRK_PTR);
  62              		.loc 1 55 0
  63 0004 064B     		ldr	r3, .L2
  64 0006 1B88     		ldrh	r3, [r3]	@ movhi
  65 0008 9BB2     		uxth	r3, r3
  66 000a 9AB2     		uxth	r2, r3
  67 000c 054B     		ldr	r3, .L2+4
  68 000e 1A80     		strh	r2, [r3]	@ movhi
  56:.\main.c      ****         dataReady_R = 1u;
  69              		.loc 1 56 0
  70 0010 054B     		ldr	r3, .L2+8
  71 0012 0122     		movs	r2, #1
  72 0014 1A70     		strb	r2, [r3]
  57:.\main.c      **** }
  73              		.loc 1 57 0
  74 0016 BD46     		mov	sp, r7
  75              		.cfi_def_cfa_register 13
  76              		@ sp needed
  77 0018 5DF8047B 		ldr	r7, [sp], #4
  78              		.cfi_restore 7
  79              		.cfi_def_cfa_offset 0
  80 001c 7047     		bx	lr
  81              	.L3:
  82 001e 00BF     		.align	2
  83              	.L2:
  84 0020 A25B0040 		.word	1073765282
  85 0024 00000000 		.word	ADC_R
  86 0028 00000000 		.word	dataReady_R
  87              		.cfi_endproc
  88              	.LFE63:
  89              		.size	ADC_SAR_R_ISR_LOC, .-ADC_SAR_R_ISR_LOC
  90              		.section	.text.ADC_SAR_L_ISR_LOC,"ax",%progbits
  91              		.align	2
  92              		.global	ADC_SAR_L_ISR_LOC
  93              		.thumb
  94              		.thumb_func
  95              		.type	ADC_SAR_L_ISR_LOC, %function
  96              	ADC_SAR_L_ISR_LOC:
  97              	.LFB64:
  58:.\main.c      **** CY_ISR(ADC_SAR_L_ISR_LOC)
  59:.\main.c      **** {
  98              		.loc 1 59 0
  99              		.cfi_startproc
 100              		@ args = 0, pretend = 0, frame = 0
 101              		@ frame_needed = 1, uses_anonymous_args = 0
 102              		@ link register save eliminated.
 103 0000 80B4     		push	{r7}
 104              		.cfi_def_cfa_offset 4
ARM GAS  C:\Users\JIANGL~1\AppData\Local\Temp\cc5OgKAF.s 			page 4


 105              		.cfi_offset 7, -4
 106 0002 00AF     		add	r7, sp, #0
 107              		.cfi_def_cfa_register 7
  60:.\main.c      ****         ADC_L = CY_GET_REG16(ADC_SAR_L_SAR_WRK_PTR);
 108              		.loc 1 60 0
 109 0004 064B     		ldr	r3, .L5
 110 0006 1B88     		ldrh	r3, [r3]	@ movhi
 111 0008 9BB2     		uxth	r3, r3
 112 000a 9AB2     		uxth	r2, r3
 113 000c 054B     		ldr	r3, .L5+4
 114 000e 1A80     		strh	r2, [r3]	@ movhi
  61:.\main.c      ****         dataReady_L = 1u;
 115              		.loc 1 61 0
 116 0010 054B     		ldr	r3, .L5+8
 117 0012 0122     		movs	r2, #1
 118 0014 1A70     		strb	r2, [r3]
  62:.\main.c      **** }
 119              		.loc 1 62 0
 120 0016 BD46     		mov	sp, r7
 121              		.cfi_def_cfa_register 13
 122              		@ sp needed
 123 0018 5DF8047B 		ldr	r7, [sp], #4
 124              		.cfi_restore 7
 125              		.cfi_def_cfa_offset 0
 126 001c 7047     		bx	lr
 127              	.L6:
 128 001e 00BF     		.align	2
 129              	.L5:
 130 0020 A05B0040 		.word	1073765280
 131 0024 00000000 		.word	ADC_L
 132 0028 00000000 		.word	dataReady_L
 133              		.cfi_endproc
 134              	.LFE64:
 135              		.size	ADC_SAR_L_ISR_LOC, .-ADC_SAR_L_ISR_LOC
 136              		.section	.rodata
 137              		.align	2
 138              	.LC0:
 139 0000 41444331 		.ascii	"ADC1=      V\000"
 139      3D202020 
 139      20202056 
 139      00
 140 000d 000000   		.align	2
 141              	.LC1:
 142 0010 41444332 		.ascii	"ADC2=      V\000"
 142      3D202020 
 142      20202056 
 142      00
 143 001d 000000   		.align	2
 144              	.LC2:
 145 0020 25662025 		.ascii	"%f %f %f %f %f %f %f %d %d %f\000"
 145      66202566 
 145      20256620 
 145      25662025 
 145      66202566 
 146              		.global	__aeabi_f2d
 147 003e 0000     		.align	2
 148              	.LC3:
ARM GAS  C:\Users\JIANGL~1\AppData\Local\Temp\cc5OgKAF.s 			page 5


 149 0040 252B312E 		.ascii	"%+1.2f\000"
 149      326600
 150              		.global	__aeabi_i2f
 151              		.global	__aeabi_fadd
 152              		.global	__aeabi_fdiv
 153              		.global	__aeabi_f2uiz
 154 0047 00       		.align	2
 155              	.LC4:
 156 0048 20202020 		.ascii	"     \000"
 156      2000
 157 004e 0000     		.section	.text.main,"ax",%progbits
 158              		.align	2
 159              		.global	main
 160              		.thumb
 161              		.thumb_func
 162              		.type	main, %function
 163              	main:
 164              	.LFB65:
  63:.\main.c      **** 
  64:.\main.c      **** /*******************************************************************************
  65:.\main.c      **** * Function Name: main
  66:.\main.c      **** ********************************************************************************
  67:.\main.c      **** *
  68:.\main.c      **** * Summary:
  69:.\main.c      **** *  Main function performs following functions:
  70:.\main.c      **** *   1. Initialises the DMA to move data from ADC_SAR_1 work registers to the
  71:.\main.c      **** *      PrISM pulse density registers.
  72:.\main.c      **** *   2. Initialises the ISR connected to the DMA nrq terminal(DMA done).
  73:.\main.c      **** *   3. Initialises the LCD.
  74:.\main.c      **** *   4. Initialises the PrISM with 1Mhz clock.
  75:.\main.c      **** *   5. Initialises the two SAR ADCs.
  76:.\main.c      **** *   6. Displays the results of ADC_SAR_1 when DmaDone ISR rises.
  77:.\main.c      **** *      The results are read from PrISM pulse density register.
  78:.\main.c      **** *   7. Displays the results of ADC_SAR_2 when internal EOC ISR rises.
  79:.\main.c      **** *
  80:.\main.c      **** * Parameters:
  81:.\main.c      **** *  None.
  82:.\main.c      **** *
  83:.\main.c      **** * Return:
  84:.\main.c      **** *  None.
  85:.\main.c      **** *
  86:.\main.c      **** *******************************************************************************/
  87:.\main.c      **** int main()
  88:.\main.c      **** {
 165              		.loc 1 88 0
 166              		.cfi_startproc
 167              		@ args = 0, pretend = 0, frame = 32
 168              		@ frame_needed = 1, uses_anonymous_args = 0
 169 0000 B0B5     		push	{r4, r5, r7, lr}
 170              		.cfi_def_cfa_offset 16
 171              		.cfi_offset 4, -16
 172              		.cfi_offset 5, -12
 173              		.cfi_offset 7, -8
 174              		.cfi_offset 14, -4
 175 0002 90B0     		sub	sp, sp, #64
 176              		.cfi_def_cfa_offset 80
 177 0004 08AF     		add	r7, sp, #32
ARM GAS  C:\Users\JIANGL~1\AppData\Local\Temp\cc5OgKAF.s 			page 6


 178              		.cfi_def_cfa 7, 48
  89:.\main.c      ****     char8 resultStr[16u];
  90:.\main.c      ****     float res;
  91:.\main.c      ****     float sum;
  92:.\main.c      ****     uint16 L,R;
  93:.\main.c      ****     /* Initializes the LCD. */
  94:.\main.c      ****     LCD_Start();
 179              		.loc 1 94 0
 180 0006 FFF7FEFF 		bl	LCD_Start
  95:.\main.c      ****     LCD_Position(0u,0u);
 181              		.loc 1 95 0
 182 000a 0020     		movs	r0, #0
 183 000c 0021     		movs	r1, #0
 184 000e FFF7FEFF 		bl	LCD_Position
  96:.\main.c      ****     LCD_PrintString("ADC1=      V");
 185              		.loc 1 96 0
 186 0012 9048     		ldr	r0, .L16
 187 0014 FFF7FEFF 		bl	LCD_PrintString
  97:.\main.c      ****     LCD_Position(1u,0u);
 188              		.loc 1 97 0
 189 0018 0120     		movs	r0, #1
 190 001a 0021     		movs	r1, #0
 191 001c FFF7FEFF 		bl	LCD_Position
  98:.\main.c      ****     LCD_PrintString("ADC2=      V");
 192              		.loc 1 98 0
 193 0020 8D48     		ldr	r0, .L16+4
 194 0022 FFF7FEFF 		bl	LCD_PrintString
  99:.\main.c      **** 
 100:.\main.c      **** 
 101:.\main.c      **** 
 102:.\main.c      ****     ADC_SAR_L_Start();
 195              		.loc 1 102 0
 196 0026 FFF7FEFF 		bl	ADC_SAR_L_Start
 103:.\main.c      ****     ADC_SAR_L_IRQ_StartEx(ADC_SAR_L_ISR_LOC);
 197              		.loc 1 103 0
 198 002a 8C48     		ldr	r0, .L16+8
 199 002c FFF7FEFF 		bl	ADC_SAR_L_IRQ_StartEx
 104:.\main.c      ****     ADC_SAR_L_StartConvert();
 200              		.loc 1 104 0
 201 0030 FFF7FEFF 		bl	ADC_SAR_L_StartConvert
 105:.\main.c      ****     ADC_SAR_R_Start();
 202              		.loc 1 105 0
 203 0034 FFF7FEFF 		bl	ADC_SAR_R_Start
 106:.\main.c      ****     ADC_SAR_R_IRQ_StartEx(ADC_SAR_R_ISR_LOC);
 204              		.loc 1 106 0
 205 0038 8948     		ldr	r0, .L16+12
 206 003a FFF7FEFF 		bl	ADC_SAR_R_IRQ_StartEx
 107:.\main.c      ****     ADC_SAR_R_StartConvert();
 207              		.loc 1 107 0
 208 003e FFF7FEFF 		bl	ADC_SAR_R_StartConvert
 108:.\main.c      ****     CyGlobalIntEnable;
 209              		.loc 1 108 0
 210              	@ 108 ".\main.c" 1
 211 0042 62B6     		CPSIE   i
 212              	@ 0 "" 2
 109:.\main.c      ****     
 110:.\main.c      ****     UART_1_Start();
ARM GAS  C:\Users\JIANGL~1\AppData\Local\Temp\cc5OgKAF.s 			page 7


 213              		.loc 1 110 0
 214              		.thumb
 215 0044 FFF7FEFF 		bl	UART_1_Start
 111:.\main.c      ****     UART_2_Start();
 216              		.loc 1 111 0
 217 0048 FFF7FEFF 		bl	UART_2_Start
 112:.\main.c      ****     UART_3_Start();
 218              		.loc 1 112 0
 219 004c FFF7FEFF 		bl	UART_3_Start
 113:.\main.c      ****     //UART_4_Start();
 114:.\main.c      ****     
 115:.\main.c      ****     SetServoMode(_TOP);
 220              		.loc 1 115 0
 221 0050 0020     		movs	r0, #0
 222 0052 FFF7FEFF 		bl	SetServoMode
 116:.\main.c      ****     SetMotorMode(_LEFT);
 223              		.loc 1 116 0
 224 0056 0120     		movs	r0, #1
 225 0058 FFF7FEFF 		bl	SetMotorMode
 117:.\main.c      ****     SetMotorMode(_RIGHT);
 226              		.loc 1 117 0
 227 005c 0220     		movs	r0, #2
 228 005e FFF7FEFF 		bl	SetMotorMode
 118:.\main.c      ****     CyDelay(100);
 229              		.loc 1 118 0
 230 0062 6420     		movs	r0, #100
 231 0064 FFF7FEFF 		bl	CyDelay
 232              	.L15:
 233              	.LBB2:
 119:.\main.c      **** 
 120:.\main.c      ****     for(;;)
 121:.\main.c      ****     {
 122:.\main.c      ****         GetBluetoothString(buffer);
 234              		.loc 1 122 0
 235 0068 7E48     		ldr	r0, .L16+16
 236 006a FFF7FEFF 		bl	GetBluetoothString
 123:.\main.c      ****         if (buffer[0] != '\0')
 237              		.loc 1 123 0
 238 006e 7D4B     		ldr	r3, .L16+16
 239 0070 1B78     		ldrb	r3, [r3]	@ zero_extendqisi2
 240 0072 002B     		cmp	r3, #0
 241 0074 15D0     		beq	.L8
 124:.\main.c      ****         {
 125:.\main.c      ****             sscanf(buffer, "%f %f %f %f %f %f %f %d %d %f", &Ek, &Ek_1, &Ek_2, &Kp, &Ki, &Kd, &TopM
 242              		.loc 1 125 0
 243 0076 7C4B     		ldr	r3, .L16+20
 244 0078 0093     		str	r3, [sp]
 245 007a 7C4B     		ldr	r3, .L16+24
 246 007c 0193     		str	r3, [sp, #4]
 247 007e 7C4B     		ldr	r3, .L16+28
 248 0080 0293     		str	r3, [sp, #8]
 249 0082 7C4B     		ldr	r3, .L16+32
 250 0084 0393     		str	r3, [sp, #12]
 251 0086 7C4B     		ldr	r3, .L16+36
 252 0088 0493     		str	r3, [sp, #16]
 253 008a 7C4B     		ldr	r3, .L16+40
 254 008c 0593     		str	r3, [sp, #20]
ARM GAS  C:\Users\JIANGL~1\AppData\Local\Temp\cc5OgKAF.s 			page 8


 255 008e 7C4B     		ldr	r3, .L16+44
 256 0090 0693     		str	r3, [sp, #24]
 257 0092 7C4B     		ldr	r3, .L16+48
 258 0094 0793     		str	r3, [sp, #28]
 259 0096 7348     		ldr	r0, .L16+16
 260 0098 7B49     		ldr	r1, .L16+52
 261 009a 7C4A     		ldr	r2, .L16+56
 262 009c 7C4B     		ldr	r3, .L16+60
 263 009e FFF7FEFF 		bl	sscanf
 264              	.L8:
 126:.\main.c      ****         }
 127:.\main.c      ****         
 128:.\main.c      ****         uint8 i,j;
 129:.\main.c      ****         if(dataReady_L != 0u)
 265              		.loc 1 129 0
 266 00a2 7C4B     		ldr	r3, .L16+64
 267 00a4 1B78     		ldrb	r3, [r3]	@ zero_extendqisi2
 268 00a6 002B     		cmp	r3, #0
 269 00a8 64D0     		beq	.L9
 130:.\main.c      ****         {
 131:.\main.c      ****             sum = 0;
 270              		.loc 1 131 0
 271 00aa 4FF00003 		mov	r3, #0
 272 00ae FB61     		str	r3, [r7, #28]	@ float
 132:.\main.c      ****             res = ADC_SAR_L_CountsTo_Volts(ADC_L);
 273              		.loc 1 132 0
 274 00b0 794B     		ldr	r3, .L16+68
 275 00b2 1B88     		ldrh	r3, [r3]
 276 00b4 1BB2     		sxth	r3, r3
 277 00b6 1846     		mov	r0, r3
 278 00b8 FFF7FEFF 		bl	ADC_SAR_L_CountsTo_Volts
 279 00bc 7861     		str	r0, [r7, #20]	@ float
 133:.\main.c      ****             sprintf((char *)resultStr,"%+1.2f",res);
 280              		.loc 1 133 0
 281 00be 7869     		ldr	r0, [r7, #20]	@ float
 282 00c0 FFF7FEFF 		bl	__aeabi_f2d
 283 00c4 0446     		mov	r4, r0
 284 00c6 0D46     		mov	r5, r1
 285 00c8 3B46     		mov	r3, r7
 286 00ca 1846     		mov	r0, r3
 287 00cc 7349     		ldr	r1, .L16+72
 288 00ce 2246     		mov	r2, r4
 289 00d0 2B46     		mov	r3, r5
 290 00d2 FFF7FEFF 		bl	sprintf
 134:.\main.c      ****             for(j=0;j<size-1;j++)
 291              		.loc 1 134 0
 292 00d6 0023     		movs	r3, #0
 293 00d8 FB76     		strb	r3, [r7, #27]
 294 00da 1AE0     		b	.L10
 295              	.L11:
 135:.\main.c      ****             {
 136:.\main.c      ****                 result_L[j] = result_L[j+1];
 296              		.loc 1 136 0 discriminator 3
 297 00dc FB7E     		ldrb	r3, [r7, #27]	@ zero_extendqisi2
 298 00de FA7E     		ldrb	r2, [r7, #27]	@ zero_extendqisi2
 299 00e0 0132     		adds	r2, r2, #1
 300 00e2 6F49     		ldr	r1, .L16+76
ARM GAS  C:\Users\JIANGL~1\AppData\Local\Temp\cc5OgKAF.s 			page 9


 301 00e4 31F81210 		ldrh	r1, [r1, r2, lsl #1]
 302 00e8 6D4A     		ldr	r2, .L16+76
 303 00ea 22F81310 		strh	r1, [r2, r3, lsl #1]	@ movhi
 137:.\main.c      ****                 sum += result_L[j+1];
 304              		.loc 1 137 0 discriminator 3
 305 00ee FB7E     		ldrb	r3, [r7, #27]	@ zero_extendqisi2
 306 00f0 0133     		adds	r3, r3, #1
 307 00f2 6B4A     		ldr	r2, .L16+76
 308 00f4 32F81330 		ldrh	r3, [r2, r3, lsl #1]
 309 00f8 1846     		mov	r0, r3
 310 00fa FFF7FEFF 		bl	__aeabi_i2f
 311 00fe 0346     		mov	r3, r0
 312 0100 F869     		ldr	r0, [r7, #28]	@ float
 313 0102 1946     		mov	r1, r3
 314 0104 FFF7FEFF 		bl	__aeabi_fadd
 315 0108 0346     		mov	r3, r0
 316 010a FB61     		str	r3, [r7, #28]	@ float
 134:.\main.c      ****             for(j=0;j<size-1;j++)
 317              		.loc 1 134 0 discriminator 3
 318 010c FB7E     		ldrb	r3, [r7, #27]	@ zero_extendqisi2
 319 010e 0133     		adds	r3, r3, #1
 320 0110 FB76     		strb	r3, [r7, #27]
 321              	.L10:
 134:.\main.c      ****             for(j=0;j<size-1;j++)
 322              		.loc 1 134 0 is_stmt 0 discriminator 1
 323 0112 FB7E     		ldrb	r3, [r7, #27]	@ zero_extendqisi2
 324 0114 122B     		cmp	r3, #18
 325 0116 E1D9     		bls	.L11
 138:.\main.c      ****             }
 139:.\main.c      ****             result_L[size - 1] = ADC_L;
 326              		.loc 1 139 0 is_stmt 1
 327 0118 5F4B     		ldr	r3, .L16+68
 328 011a 1B88     		ldrh	r3, [r3]
 329 011c 9AB2     		uxth	r2, r3
 330 011e 604B     		ldr	r3, .L16+76
 331 0120 DA84     		strh	r2, [r3, #38]	@ movhi
 140:.\main.c      ****             sum = (sum+ADC_L)/size;
 332              		.loc 1 140 0
 333 0122 5D4B     		ldr	r3, .L16+68
 334 0124 1B88     		ldrh	r3, [r3]
 335 0126 1BB2     		sxth	r3, r3
 336 0128 1846     		mov	r0, r3
 337 012a FFF7FEFF 		bl	__aeabi_i2f
 338 012e 0346     		mov	r3, r0
 339 0130 1846     		mov	r0, r3
 340 0132 F969     		ldr	r1, [r7, #28]	@ float
 341 0134 FFF7FEFF 		bl	__aeabi_fadd
 342 0138 0346     		mov	r3, r0
 343 013a 1846     		mov	r0, r3
 344 013c 5949     		ldr	r1, .L16+80
 345 013e FFF7FEFF 		bl	__aeabi_fdiv
 346 0142 0346     		mov	r3, r0
 347 0144 FB61     		str	r3, [r7, #28]	@ float
 141:.\main.c      ****             L = sum;
 348              		.loc 1 141 0
 349 0146 F869     		ldr	r0, [r7, #28]	@ float
 350 0148 FFF7FEFF 		bl	__aeabi_f2uiz
ARM GAS  C:\Users\JIANGL~1\AppData\Local\Temp\cc5OgKAF.s 			page 10


 351 014c 0346     		mov	r3, r0
 352 014e 3B82     		strh	r3, [r7, #16]	@ movhi
 142:.\main.c      ****             LCD_Position(0u,5u);
 353              		.loc 1 142 0
 354 0150 0020     		movs	r0, #0
 355 0152 0521     		movs	r1, #5
 356 0154 FFF7FEFF 		bl	LCD_Position
 143:.\main.c      ****             LCD_PrintString("     ");
 357              		.loc 1 143 0
 358 0158 5348     		ldr	r0, .L16+84
 359 015a FFF7FEFF 		bl	LCD_PrintString
 144:.\main.c      ****             //LCD_PrintString(resultStr);
 145:.\main.c      ****             LCD_Position(0u,5u);
 360              		.loc 1 145 0
 361 015e 0020     		movs	r0, #0
 362 0160 0521     		movs	r1, #5
 363 0162 FFF7FEFF 		bl	LCD_Position
 146:.\main.c      ****             LCD_PrintNumber(L);
 364              		.loc 1 146 0
 365 0166 3B8A     		ldrh	r3, [r7, #16]
 366 0168 1846     		mov	r0, r3
 367 016a FFF7FEFF 		bl	LCD_PrintU32Number
 147:.\main.c      ****             dataReady_L = 0u;
 368              		.loc 1 147 0
 369 016e 494B     		ldr	r3, .L16+64
 370 0170 0022     		movs	r2, #0
 371 0172 1A70     		strb	r2, [r3]
 372              	.L9:
 148:.\main.c      ****             //CyDelay(1);
 149:.\main.c      ****         }
 150:.\main.c      ****         if(dataReady_R != 0u)
 373              		.loc 1 150 0
 374 0174 4D4B     		ldr	r3, .L16+88
 375 0176 1B78     		ldrb	r3, [r3]	@ zero_extendqisi2
 376 0178 002B     		cmp	r3, #0
 377 017a 64D0     		beq	.L12
 151:.\main.c      ****         {
 152:.\main.c      ****             sum = 0;
 378              		.loc 1 152 0
 379 017c 4FF00003 		mov	r3, #0
 380 0180 FB61     		str	r3, [r7, #28]	@ float
 153:.\main.c      ****             res = ADC_SAR_R_CountsTo_Volts(ADC_R);
 381              		.loc 1 153 0
 382 0182 4B4B     		ldr	r3, .L16+92
 383 0184 1B88     		ldrh	r3, [r3]
 384 0186 1BB2     		sxth	r3, r3
 385 0188 1846     		mov	r0, r3
 386 018a FFF7FEFF 		bl	ADC_SAR_R_CountsTo_Volts
 387 018e 7861     		str	r0, [r7, #20]	@ float
 154:.\main.c      ****             sprintf((char *)resultStr,"%+1.2f",res);
 388              		.loc 1 154 0
 389 0190 7869     		ldr	r0, [r7, #20]	@ float
 390 0192 FFF7FEFF 		bl	__aeabi_f2d
 391 0196 0446     		mov	r4, r0
 392 0198 0D46     		mov	r5, r1
 393 019a 3B46     		mov	r3, r7
 394 019c 1846     		mov	r0, r3
ARM GAS  C:\Users\JIANGL~1\AppData\Local\Temp\cc5OgKAF.s 			page 11


 395 019e 3F49     		ldr	r1, .L16+72
 396 01a0 2246     		mov	r2, r4
 397 01a2 2B46     		mov	r3, r5
 398 01a4 FFF7FEFF 		bl	sprintf
 155:.\main.c      ****             for(j=0;j<size-1;j++)
 399              		.loc 1 155 0
 400 01a8 0023     		movs	r3, #0
 401 01aa FB76     		strb	r3, [r7, #27]
 402 01ac 1AE0     		b	.L13
 403              	.L14:
 156:.\main.c      ****             {
 157:.\main.c      ****                 result_R[j] = result_R[j+1];
 404              		.loc 1 157 0 discriminator 3
 405 01ae FB7E     		ldrb	r3, [r7, #27]	@ zero_extendqisi2
 406 01b0 FA7E     		ldrb	r2, [r7, #27]	@ zero_extendqisi2
 407 01b2 0132     		adds	r2, r2, #1
 408 01b4 3F49     		ldr	r1, .L16+96
 409 01b6 31F81210 		ldrh	r1, [r1, r2, lsl #1]
 410 01ba 3E4A     		ldr	r2, .L16+96
 411 01bc 22F81310 		strh	r1, [r2, r3, lsl #1]	@ movhi
 158:.\main.c      ****                 sum += result_R[j+1];
 412              		.loc 1 158 0 discriminator 3
 413 01c0 FB7E     		ldrb	r3, [r7, #27]	@ zero_extendqisi2
 414 01c2 0133     		adds	r3, r3, #1
 415 01c4 3B4A     		ldr	r2, .L16+96
 416 01c6 32F81330 		ldrh	r3, [r2, r3, lsl #1]
 417 01ca 1846     		mov	r0, r3
 418 01cc FFF7FEFF 		bl	__aeabi_i2f
 419 01d0 0346     		mov	r3, r0
 420 01d2 F869     		ldr	r0, [r7, #28]	@ float
 421 01d4 1946     		mov	r1, r3
 422 01d6 FFF7FEFF 		bl	__aeabi_fadd
 423 01da 0346     		mov	r3, r0
 424 01dc FB61     		str	r3, [r7, #28]	@ float
 155:.\main.c      ****             for(j=0;j<size-1;j++)
 425              		.loc 1 155 0 discriminator 3
 426 01de FB7E     		ldrb	r3, [r7, #27]	@ zero_extendqisi2
 427 01e0 0133     		adds	r3, r3, #1
 428 01e2 FB76     		strb	r3, [r7, #27]
 429              	.L13:
 155:.\main.c      ****             for(j=0;j<size-1;j++)
 430              		.loc 1 155 0 is_stmt 0 discriminator 1
 431 01e4 FB7E     		ldrb	r3, [r7, #27]	@ zero_extendqisi2
 432 01e6 122B     		cmp	r3, #18
 433 01e8 E1D9     		bls	.L14
 159:.\main.c      ****             }
 160:.\main.c      ****             result_R[size - 1] = ADC_R;
 434              		.loc 1 160 0 is_stmt 1
 435 01ea 314B     		ldr	r3, .L16+92
 436 01ec 1B88     		ldrh	r3, [r3]
 437 01ee 9AB2     		uxth	r2, r3
 438 01f0 304B     		ldr	r3, .L16+96
 439 01f2 DA84     		strh	r2, [r3, #38]	@ movhi
 161:.\main.c      ****             sum = (sum+ADC_R)/size;
 440              		.loc 1 161 0
 441 01f4 2E4B     		ldr	r3, .L16+92
 442 01f6 1B88     		ldrh	r3, [r3]
ARM GAS  C:\Users\JIANGL~1\AppData\Local\Temp\cc5OgKAF.s 			page 12


 443 01f8 1BB2     		sxth	r3, r3
 444 01fa 1846     		mov	r0, r3
 445 01fc FFF7FEFF 		bl	__aeabi_i2f
 446 0200 0346     		mov	r3, r0
 447 0202 1846     		mov	r0, r3
 448 0204 F969     		ldr	r1, [r7, #28]	@ float
 449 0206 FFF7FEFF 		bl	__aeabi_fadd
 450 020a 0346     		mov	r3, r0
 451 020c 1846     		mov	r0, r3
 452 020e 2549     		ldr	r1, .L16+80
 453 0210 FFF7FEFF 		bl	__aeabi_fdiv
 454 0214 0346     		mov	r3, r0
 455 0216 FB61     		str	r3, [r7, #28]	@ float
 162:.\main.c      ****             R = sum;
 456              		.loc 1 162 0
 457 0218 F869     		ldr	r0, [r7, #28]	@ float
 458 021a FFF7FEFF 		bl	__aeabi_f2uiz
 459 021e 0346     		mov	r3, r0
 460 0220 7B82     		strh	r3, [r7, #18]	@ movhi
 163:.\main.c      ****             LCD_Position(1u,5u);
 461              		.loc 1 163 0
 462 0222 0120     		movs	r0, #1
 463 0224 0521     		movs	r1, #5
 464 0226 FFF7FEFF 		bl	LCD_Position
 164:.\main.c      ****             LCD_PrintString("     ");
 465              		.loc 1 164 0
 466 022a 1F48     		ldr	r0, .L16+84
 467 022c FFF7FEFF 		bl	LCD_PrintString
 165:.\main.c      ****             LCD_Position(1u,5u);
 468              		.loc 1 165 0
 469 0230 0120     		movs	r0, #1
 470 0232 0521     		movs	r1, #5
 471 0234 FFF7FEFF 		bl	LCD_Position
 166:.\main.c      ****             //LCD_PrintString(resultStr);
 167:.\main.c      ****             LCD_PrintNumber(R);
 472              		.loc 1 167 0
 473 0238 7B8A     		ldrh	r3, [r7, #18]
 474 023a 1846     		mov	r0, r3
 475 023c FFF7FEFF 		bl	LCD_PrintU32Number
 168:.\main.c      ****             dataReady_R = 0u;
 476              		.loc 1 168 0
 477 0240 1A4B     		ldr	r3, .L16+88
 478 0242 0022     		movs	r2, #0
 479 0244 1A70     		strb	r2, [r3]
 480              	.L12:
 169:.\main.c      ****             //CyDelay(1);
 170:.\main.c      ****         }
 171:.\main.c      ****         //SetServoPosition(_TOP, 512, 0x01ff);
 172:.\main.c      ****         PID();
 481              		.loc 1 172 0
 482 0246 FFF7FEFF 		bl	PID
 173:.\main.c      ****         CyDelay(2);
 483              		.loc 1 173 0
 484 024a 0220     		movs	r0, #2
 485 024c FFF7FEFF 		bl	CyDelay
 486              	.LBE2:
 174:.\main.c      ****     }
ARM GAS  C:\Users\JIANGL~1\AppData\Local\Temp\cc5OgKAF.s 			page 13


 487              		.loc 1 174 0
 488 0250 0AE7     		b	.L15
 489              	.L17:
 490 0252 00BF     		.align	2
 491              	.L16:
 492 0254 00000000 		.word	.LC0
 493 0258 10000000 		.word	.LC1
 494 025c 00000000 		.word	ADC_SAR_L_ISR_LOC
 495 0260 00000000 		.word	ADC_SAR_R_ISR_LOC
 496 0264 00000000 		.word	buffer
 497 0268 00000000 		.word	Ek_2
 498 026c 00000000 		.word	Kp
 499 0270 00000000 		.word	Ki
 500 0274 00000000 		.word	Kd
 501 0278 00000000 		.word	TopMotorAngleCoeff
 502 027c 00000000 		.word	ADC_L_balance
 503 0280 00000000 		.word	ADC_R_balance
 504 0284 00000000 		.word	range
 505 0288 20000000 		.word	.LC2
 506 028c 00000000 		.word	Ek
 507 0290 00000000 		.word	Ek_1
 508 0294 00000000 		.word	dataReady_L
 509 0298 00000000 		.word	ADC_L
 510 029c 40000000 		.word	.LC3
 511 02a0 00000000 		.word	result_L
 512 02a4 0000A041 		.word	1101004800
 513 02a8 48000000 		.word	.LC4
 514 02ac 00000000 		.word	dataReady_R
 515 02b0 00000000 		.word	ADC_R
 516 02b4 00000000 		.word	result_R
 517              		.cfi_endproc
 518              	.LFE65:
 519              		.size	main, .-main
 520              		.text
 521              	.Letext0:
 522              		.file 2 "d:\\program files (x86)\\cypress\\psoc creator\\3.3\\psoc creator\\import\\gnu\\arm\\4.9.
 523              		.file 3 "d:\\program files (x86)\\cypress\\psoc creator\\3.3\\psoc creator\\import\\gnu\\arm\\4.9.
 524              		.file 4 "Generated_Source\\PSoC5/cytypes.h"
 525              		.file 5 "Generated_Source\\PSoC5/core_cm3.h"
 526              		.file 6 ".\\pid.h"
 527              		.file 7 ".\\Bluetooth.h"
 528              		.section	.debug_info,"",%progbits
 529              	.Ldebug_info0:
 530 0000 94020000 		.4byte	0x294
 531 0004 0400     		.2byte	0x4
 532 0006 00000000 		.4byte	.Ldebug_abbrev0
 533 000a 04       		.byte	0x4
 534 000b 01       		.uleb128 0x1
 535 000c 2D000000 		.4byte	.LASF38
 536 0010 01       		.byte	0x1
 537 0011 D4000000 		.4byte	.LASF39
 538 0015 C8010000 		.4byte	.LASF40
 539 0019 00000000 		.4byte	.Ldebug_ranges0+0
 540 001d 00000000 		.4byte	0
 541 0021 00000000 		.4byte	.Ldebug_line0
 542 0025 02       		.uleb128 0x2
 543 0026 01       		.byte	0x1
ARM GAS  C:\Users\JIANGL~1\AppData\Local\Temp\cc5OgKAF.s 			page 14


 544 0027 06       		.byte	0x6
 545 0028 1C020000 		.4byte	.LASF0
 546 002c 02       		.uleb128 0x2
 547 002d 01       		.byte	0x1
 548 002e 08       		.byte	0x8
 549 002f F5000000 		.4byte	.LASF1
 550 0033 02       		.uleb128 0x2
 551 0034 02       		.byte	0x2
 552 0035 05       		.byte	0x5
 553 0036 F3010000 		.4byte	.LASF2
 554 003a 02       		.uleb128 0x2
 555 003b 02       		.byte	0x2
 556 003c 07       		.byte	0x7
 557 003d 28020000 		.4byte	.LASF3
 558 0041 03       		.uleb128 0x3
 559 0042 14000000 		.4byte	.LASF9
 560 0046 02       		.byte	0x2
 561 0047 3F       		.byte	0x3f
 562 0048 4C000000 		.4byte	0x4c
 563 004c 02       		.uleb128 0x2
 564 004d 04       		.byte	0x4
 565 004e 05       		.byte	0x5
 566 004f 24000000 		.4byte	.LASF4
 567 0053 02       		.uleb128 0x2
 568 0054 04       		.byte	0x4
 569 0055 07       		.byte	0x7
 570 0056 1B010000 		.4byte	.LASF5
 571 005a 02       		.uleb128 0x2
 572 005b 08       		.byte	0x8
 573 005c 05       		.byte	0x5
 574 005d A7010000 		.4byte	.LASF6
 575 0061 02       		.uleb128 0x2
 576 0062 08       		.byte	0x8
 577 0063 07       		.byte	0x7
 578 0064 6C010000 		.4byte	.LASF7
 579 0068 04       		.uleb128 0x4
 580 0069 04       		.byte	0x4
 581 006a 05       		.byte	0x5
 582 006b 696E7400 		.ascii	"int\000"
 583 006f 02       		.uleb128 0x2
 584 0070 04       		.byte	0x4
 585 0071 07       		.byte	0x7
 586 0072 5F010000 		.4byte	.LASF8
 587 0076 03       		.uleb128 0x3
 588 0077 8C010000 		.4byte	.LASF10
 589 007b 03       		.byte	0x3
 590 007c 2C       		.byte	0x2c
 591 007d 41000000 		.4byte	0x41
 592 0081 05       		.uleb128 0x5
 593 0082 0E020000 		.4byte	.LASF11
 594 0086 04       		.byte	0x4
 595 0087 3801     		.2byte	0x138
 596 0089 2C000000 		.4byte	0x2c
 597 008d 05       		.uleb128 0x5
 598 008e 58010000 		.4byte	.LASF12
 599 0092 04       		.byte	0x4
 600 0093 3901     		.2byte	0x139
ARM GAS  C:\Users\JIANGL~1\AppData\Local\Temp\cc5OgKAF.s 			page 15


 601 0095 3A000000 		.4byte	0x3a
 602 0099 05       		.uleb128 0x5
 603 009a 15010000 		.4byte	.LASF13
 604 009e 04       		.byte	0x4
 605 009f 3C01     		.2byte	0x13c
 606 00a1 33000000 		.4byte	0x33
 607 00a5 05       		.uleb128 0x5
 608 00a6 14020000 		.4byte	.LASF14
 609 00aa 04       		.byte	0x4
 610 00ab 3E01     		.2byte	0x13e
 611 00ad B1000000 		.4byte	0xb1
 612 00b1 02       		.uleb128 0x2
 613 00b2 04       		.byte	0x4
 614 00b3 04       		.byte	0x4
 615 00b4 DD000000 		.4byte	.LASF15
 616 00b8 02       		.uleb128 0x2
 617 00b9 08       		.byte	0x8
 618 00ba 04       		.byte	0x4
 619 00bb 4C010000 		.4byte	.LASF16
 620 00bf 05       		.uleb128 0x5
 621 00c0 0F010000 		.4byte	.LASF17
 622 00c4 04       		.byte	0x4
 623 00c5 4901     		.2byte	0x149
 624 00c7 CB000000 		.4byte	0xcb
 625 00cb 02       		.uleb128 0x2
 626 00cc 01       		.byte	0x1
 627 00cd 08       		.byte	0x8
 628 00ce C3010000 		.4byte	.LASF18
 629 00d2 05       		.uleb128 0x5
 630 00d3 00000000 		.4byte	.LASF19
 631 00d7 04       		.byte	0x4
 632 00d8 E301     		.2byte	0x1e3
 633 00da DE000000 		.4byte	0xde
 634 00de 06       		.uleb128 0x6
 635 00df 8D000000 		.4byte	0x8d
 636 00e3 02       		.uleb128 0x2
 637 00e4 04       		.byte	0x4
 638 00e5 07       		.byte	0x7
 639 00e6 9E010000 		.4byte	.LASF20
 640 00ea 07       		.uleb128 0x7
 641 00eb E3000000 		.4byte	.LASF21
 642 00ef 01       		.byte	0x1
 643 00f0 35       		.byte	0x35
 644 00f1 00000000 		.4byte	.LFB63
 645 00f5 2C000000 		.4byte	.LFE63-.LFB63
 646 00f9 01       		.uleb128 0x1
 647 00fa 9C       		.byte	0x9c
 648 00fb 07       		.uleb128 0x7
 649 00fc 44020000 		.4byte	.LASF22
 650 0100 01       		.byte	0x1
 651 0101 3A       		.byte	0x3a
 652 0102 00000000 		.4byte	.LFB64
 653 0106 2C000000 		.4byte	.LFE64-.LFB64
 654 010a 01       		.uleb128 0x1
 655 010b 9C       		.byte	0x9c
 656 010c 08       		.uleb128 0x8
 657 010d 53010000 		.4byte	.LASF41
ARM GAS  C:\Users\JIANGL~1\AppData\Local\Temp\cc5OgKAF.s 			page 16


 658 0111 01       		.byte	0x1
 659 0112 57       		.byte	0x57
 660 0113 68000000 		.4byte	0x68
 661 0117 00000000 		.4byte	.LFB65
 662 011b B8020000 		.4byte	.LFE65-.LFB65
 663 011f 01       		.uleb128 0x1
 664 0120 9C       		.byte	0x9c
 665 0121 87010000 		.4byte	0x187
 666 0125 09       		.uleb128 0x9
 667 0126 FD010000 		.4byte	.LASF23
 668 012a 01       		.byte	0x1
 669 012b 59       		.byte	0x59
 670 012c 87010000 		.4byte	0x187
 671 0130 02       		.uleb128 0x2
 672 0131 91       		.byte	0x91
 673 0132 50       		.sleb128 -48
 674 0133 0A       		.uleb128 0xa
 675 0134 72657300 		.ascii	"res\000"
 676 0138 01       		.byte	0x1
 677 0139 5A       		.byte	0x5a
 678 013a B1000000 		.4byte	0xb1
 679 013e 02       		.uleb128 0x2
 680 013f 91       		.byte	0x91
 681 0140 64       		.sleb128 -28
 682 0141 0A       		.uleb128 0xa
 683 0142 73756D00 		.ascii	"sum\000"
 684 0146 01       		.byte	0x1
 685 0147 5B       		.byte	0x5b
 686 0148 B1000000 		.4byte	0xb1
 687 014c 02       		.uleb128 0x2
 688 014d 91       		.byte	0x91
 689 014e 6C       		.sleb128 -20
 690 014f 0A       		.uleb128 0xa
 691 0150 4C00     		.ascii	"L\000"
 692 0152 01       		.byte	0x1
 693 0153 5C       		.byte	0x5c
 694 0154 8D000000 		.4byte	0x8d
 695 0158 02       		.uleb128 0x2
 696 0159 91       		.byte	0x91
 697 015a 60       		.sleb128 -32
 698 015b 0A       		.uleb128 0xa
 699 015c 5200     		.ascii	"R\000"
 700 015e 01       		.byte	0x1
 701 015f 5C       		.byte	0x5c
 702 0160 8D000000 		.4byte	0x8d
 703 0164 02       		.uleb128 0x2
 704 0165 91       		.byte	0x91
 705 0166 62       		.sleb128 -30
 706 0167 0B       		.uleb128 0xb
 707 0168 68000000 		.4byte	.LBB2
 708 016c E8010000 		.4byte	.LBE2-.LBB2
 709 0170 0C       		.uleb128 0xc
 710 0171 6900     		.ascii	"i\000"
 711 0173 01       		.byte	0x1
 712 0174 80       		.byte	0x80
 713 0175 81000000 		.4byte	0x81
 714 0179 0A       		.uleb128 0xa
ARM GAS  C:\Users\JIANGL~1\AppData\Local\Temp\cc5OgKAF.s 			page 17


 715 017a 6A00     		.ascii	"j\000"
 716 017c 01       		.byte	0x1
 717 017d 80       		.byte	0x80
 718 017e 81000000 		.4byte	0x81
 719 0182 02       		.uleb128 0x2
 720 0183 91       		.byte	0x91
 721 0184 6B       		.sleb128 -21
 722 0185 00       		.byte	0
 723 0186 00       		.byte	0
 724 0187 0D       		.uleb128 0xd
 725 0188 BF000000 		.4byte	0xbf
 726 018c 97010000 		.4byte	0x197
 727 0190 0E       		.uleb128 0xe
 728 0191 E3000000 		.4byte	0xe3
 729 0195 0F       		.byte	0xf
 730 0196 00       		.byte	0
 731 0197 0F       		.uleb128 0xf
 732 0198 39010000 		.4byte	.LASF24
 733 019c 05       		.byte	0x5
 734 019d 5506     		.2byte	0x655
 735 019f A3010000 		.4byte	0x1a3
 736 01a3 06       		.uleb128 0x6
 737 01a4 76000000 		.4byte	0x76
 738 01a8 10       		.uleb128 0x10
 739 01a9 456B00   		.ascii	"Ek\000"
 740 01ac 06       		.byte	0x6
 741 01ad 09       		.byte	0x9
 742 01ae A5000000 		.4byte	0xa5
 743 01b2 11       		.uleb128 0x11
 744 01b3 94010000 		.4byte	.LASF25
 745 01b7 06       		.byte	0x6
 746 01b8 0A       		.byte	0xa
 747 01b9 A5000000 		.4byte	0xa5
 748 01bd 11       		.uleb128 0x11
 749 01be 99010000 		.4byte	.LASF26
 750 01c2 06       		.byte	0x6
 751 01c3 0B       		.byte	0xb
 752 01c4 A5000000 		.4byte	0xa5
 753 01c8 10       		.uleb128 0x10
 754 01c9 4B7000   		.ascii	"Kp\000"
 755 01cc 06       		.byte	0x6
 756 01cd 0E       		.byte	0xe
 757 01ce A5000000 		.4byte	0xa5
 758 01d2 10       		.uleb128 0x10
 759 01d3 4B6900   		.ascii	"Ki\000"
 760 01d6 06       		.byte	0x6
 761 01d7 0F       		.byte	0xf
 762 01d8 A5000000 		.4byte	0xa5
 763 01dc 10       		.uleb128 0x10
 764 01dd 4B6400   		.ascii	"Kd\000"
 765 01e0 06       		.byte	0x6
 766 01e1 10       		.byte	0x10
 767 01e2 A5000000 		.4byte	0xa5
 768 01e6 11       		.uleb128 0x11
 769 01e7 C1000000 		.4byte	.LASF27
 770 01eb 06       		.byte	0x6
 771 01ec 11       		.byte	0x11
ARM GAS  C:\Users\JIANGL~1\AppData\Local\Temp\cc5OgKAF.s 			page 18


 772 01ed A5000000 		.4byte	0xa5
 773 01f1 11       		.uleb128 0x11
 774 01f2 B5010000 		.4byte	.LASF28
 775 01f6 06       		.byte	0x6
 776 01f7 12       		.byte	0x12
 777 01f8 99000000 		.4byte	0x99
 778 01fc 11       		.uleb128 0x11
 779 01fd 06000000 		.4byte	.LASF29
 780 0201 06       		.byte	0x6
 781 0202 13       		.byte	0x13
 782 0203 99000000 		.4byte	0x99
 783 0207 11       		.uleb128 0x11
 784 0208 1E000000 		.4byte	.LASF30
 785 020c 06       		.byte	0x6
 786 020d 14       		.byte	0x14
 787 020e 99000000 		.4byte	0x99
 788 0212 11       		.uleb128 0x11
 789 0213 BB000000 		.4byte	.LASF31
 790 0217 06       		.byte	0x6
 791 0218 15       		.byte	0x15
 792 0219 99000000 		.4byte	0x99
 793 021d 11       		.uleb128 0x11
 794 021e 46010000 		.4byte	.LASF32
 795 0222 06       		.byte	0x6
 796 0223 16       		.byte	0x16
 797 0224 A5000000 		.4byte	0xa5
 798 0228 0D       		.uleb128 0xd
 799 0229 81000000 		.4byte	0x81
 800 022d 38020000 		.4byte	0x238
 801 0231 0E       		.uleb128 0xe
 802 0232 E3000000 		.4byte	0xe3
 803 0236 63       		.byte	0x63
 804 0237 00       		.byte	0
 805 0238 11       		.uleb128 0x11
 806 0239 07020000 		.4byte	.LASF33
 807 023d 07       		.byte	0x7
 808 023e 08       		.byte	0x8
 809 023f 28020000 		.4byte	0x228
 810 0243 12       		.uleb128 0x12
 811 0244 03010000 		.4byte	.LASF34
 812 0248 01       		.byte	0x1
 813 0249 2D       		.byte	0x2d
 814 024a 81000000 		.4byte	0x81
 815 024e 05       		.uleb128 0x5
 816 024f 03       		.byte	0x3
 817 0250 00000000 		.4byte	dataReady_L
 818 0254 0D       		.uleb128 0xd
 819 0255 8D000000 		.4byte	0x8d
 820 0259 64020000 		.4byte	0x264
 821 025d 0E       		.uleb128 0xe
 822 025e E3000000 		.4byte	0xe3
 823 0262 13       		.byte	0x13
 824 0263 00       		.byte	0
 825 0264 12       		.uleb128 0x12
 826 0265 3B020000 		.4byte	.LASF35
 827 0269 01       		.byte	0x1
 828 026a 2E       		.byte	0x2e
ARM GAS  C:\Users\JIANGL~1\AppData\Local\Temp\cc5OgKAF.s 			page 19


 829 026b 54020000 		.4byte	0x254
 830 026f 05       		.uleb128 0x5
 831 0270 03       		.byte	0x3
 832 0271 00000000 		.4byte	result_L
 833 0275 12       		.uleb128 0x12
 834 0276 2D010000 		.4byte	.LASF36
 835 027a 01       		.byte	0x1
 836 027b 2F       		.byte	0x2f
 837 027c 81000000 		.4byte	0x81
 838 0280 05       		.uleb128 0x5
 839 0281 03       		.byte	0x3
 840 0282 00000000 		.4byte	dataReady_R
 841 0286 12       		.uleb128 0x12
 842 0287 83010000 		.4byte	.LASF37
 843 028b 01       		.byte	0x1
 844 028c 30       		.byte	0x30
 845 028d 54020000 		.4byte	0x254
 846 0291 05       		.uleb128 0x5
 847 0292 03       		.byte	0x3
 848 0293 00000000 		.4byte	result_R
 849 0297 00       		.byte	0
 850              		.section	.debug_abbrev,"",%progbits
 851              	.Ldebug_abbrev0:
 852 0000 01       		.uleb128 0x1
 853 0001 11       		.uleb128 0x11
 854 0002 01       		.byte	0x1
 855 0003 25       		.uleb128 0x25
 856 0004 0E       		.uleb128 0xe
 857 0005 13       		.uleb128 0x13
 858 0006 0B       		.uleb128 0xb
 859 0007 03       		.uleb128 0x3
 860 0008 0E       		.uleb128 0xe
 861 0009 1B       		.uleb128 0x1b
 862 000a 0E       		.uleb128 0xe
 863 000b 55       		.uleb128 0x55
 864 000c 17       		.uleb128 0x17
 865 000d 11       		.uleb128 0x11
 866 000e 01       		.uleb128 0x1
 867 000f 10       		.uleb128 0x10
 868 0010 17       		.uleb128 0x17
 869 0011 00       		.byte	0
 870 0012 00       		.byte	0
 871 0013 02       		.uleb128 0x2
 872 0014 24       		.uleb128 0x24
 873 0015 00       		.byte	0
 874 0016 0B       		.uleb128 0xb
 875 0017 0B       		.uleb128 0xb
 876 0018 3E       		.uleb128 0x3e
 877 0019 0B       		.uleb128 0xb
 878 001a 03       		.uleb128 0x3
 879 001b 0E       		.uleb128 0xe
 880 001c 00       		.byte	0
 881 001d 00       		.byte	0
 882 001e 03       		.uleb128 0x3
 883 001f 16       		.uleb128 0x16
 884 0020 00       		.byte	0
 885 0021 03       		.uleb128 0x3
ARM GAS  C:\Users\JIANGL~1\AppData\Local\Temp\cc5OgKAF.s 			page 20


 886 0022 0E       		.uleb128 0xe
 887 0023 3A       		.uleb128 0x3a
 888 0024 0B       		.uleb128 0xb
 889 0025 3B       		.uleb128 0x3b
 890 0026 0B       		.uleb128 0xb
 891 0027 49       		.uleb128 0x49
 892 0028 13       		.uleb128 0x13
 893 0029 00       		.byte	0
 894 002a 00       		.byte	0
 895 002b 04       		.uleb128 0x4
 896 002c 24       		.uleb128 0x24
 897 002d 00       		.byte	0
 898 002e 0B       		.uleb128 0xb
 899 002f 0B       		.uleb128 0xb
 900 0030 3E       		.uleb128 0x3e
 901 0031 0B       		.uleb128 0xb
 902 0032 03       		.uleb128 0x3
 903 0033 08       		.uleb128 0x8
 904 0034 00       		.byte	0
 905 0035 00       		.byte	0
 906 0036 05       		.uleb128 0x5
 907 0037 16       		.uleb128 0x16
 908 0038 00       		.byte	0
 909 0039 03       		.uleb128 0x3
 910 003a 0E       		.uleb128 0xe
 911 003b 3A       		.uleb128 0x3a
 912 003c 0B       		.uleb128 0xb
 913 003d 3B       		.uleb128 0x3b
 914 003e 05       		.uleb128 0x5
 915 003f 49       		.uleb128 0x49
 916 0040 13       		.uleb128 0x13
 917 0041 00       		.byte	0
 918 0042 00       		.byte	0
 919 0043 06       		.uleb128 0x6
 920 0044 35       		.uleb128 0x35
 921 0045 00       		.byte	0
 922 0046 49       		.uleb128 0x49
 923 0047 13       		.uleb128 0x13
 924 0048 00       		.byte	0
 925 0049 00       		.byte	0
 926 004a 07       		.uleb128 0x7
 927 004b 2E       		.uleb128 0x2e
 928 004c 00       		.byte	0
 929 004d 3F       		.uleb128 0x3f
 930 004e 19       		.uleb128 0x19
 931 004f 03       		.uleb128 0x3
 932 0050 0E       		.uleb128 0xe
 933 0051 3A       		.uleb128 0x3a
 934 0052 0B       		.uleb128 0xb
 935 0053 3B       		.uleb128 0x3b
 936 0054 0B       		.uleb128 0xb
 937 0055 27       		.uleb128 0x27
 938 0056 19       		.uleb128 0x19
 939 0057 11       		.uleb128 0x11
 940 0058 01       		.uleb128 0x1
 941 0059 12       		.uleb128 0x12
 942 005a 06       		.uleb128 0x6
ARM GAS  C:\Users\JIANGL~1\AppData\Local\Temp\cc5OgKAF.s 			page 21


 943 005b 40       		.uleb128 0x40
 944 005c 18       		.uleb128 0x18
 945 005d 9742     		.uleb128 0x2117
 946 005f 19       		.uleb128 0x19
 947 0060 00       		.byte	0
 948 0061 00       		.byte	0
 949 0062 08       		.uleb128 0x8
 950 0063 2E       		.uleb128 0x2e
 951 0064 01       		.byte	0x1
 952 0065 3F       		.uleb128 0x3f
 953 0066 19       		.uleb128 0x19
 954 0067 03       		.uleb128 0x3
 955 0068 0E       		.uleb128 0xe
 956 0069 3A       		.uleb128 0x3a
 957 006a 0B       		.uleb128 0xb
 958 006b 3B       		.uleb128 0x3b
 959 006c 0B       		.uleb128 0xb
 960 006d 49       		.uleb128 0x49
 961 006e 13       		.uleb128 0x13
 962 006f 11       		.uleb128 0x11
 963 0070 01       		.uleb128 0x1
 964 0071 12       		.uleb128 0x12
 965 0072 06       		.uleb128 0x6
 966 0073 40       		.uleb128 0x40
 967 0074 18       		.uleb128 0x18
 968 0075 9642     		.uleb128 0x2116
 969 0077 19       		.uleb128 0x19
 970 0078 01       		.uleb128 0x1
 971 0079 13       		.uleb128 0x13
 972 007a 00       		.byte	0
 973 007b 00       		.byte	0
 974 007c 09       		.uleb128 0x9
 975 007d 34       		.uleb128 0x34
 976 007e 00       		.byte	0
 977 007f 03       		.uleb128 0x3
 978 0080 0E       		.uleb128 0xe
 979 0081 3A       		.uleb128 0x3a
 980 0082 0B       		.uleb128 0xb
 981 0083 3B       		.uleb128 0x3b
 982 0084 0B       		.uleb128 0xb
 983 0085 49       		.uleb128 0x49
 984 0086 13       		.uleb128 0x13
 985 0087 02       		.uleb128 0x2
 986 0088 18       		.uleb128 0x18
 987 0089 00       		.byte	0
 988 008a 00       		.byte	0
 989 008b 0A       		.uleb128 0xa
 990 008c 34       		.uleb128 0x34
 991 008d 00       		.byte	0
 992 008e 03       		.uleb128 0x3
 993 008f 08       		.uleb128 0x8
 994 0090 3A       		.uleb128 0x3a
 995 0091 0B       		.uleb128 0xb
 996 0092 3B       		.uleb128 0x3b
 997 0093 0B       		.uleb128 0xb
 998 0094 49       		.uleb128 0x49
 999 0095 13       		.uleb128 0x13
ARM GAS  C:\Users\JIANGL~1\AppData\Local\Temp\cc5OgKAF.s 			page 22


 1000 0096 02       		.uleb128 0x2
 1001 0097 18       		.uleb128 0x18
 1002 0098 00       		.byte	0
 1003 0099 00       		.byte	0
 1004 009a 0B       		.uleb128 0xb
 1005 009b 0B       		.uleb128 0xb
 1006 009c 01       		.byte	0x1
 1007 009d 11       		.uleb128 0x11
 1008 009e 01       		.uleb128 0x1
 1009 009f 12       		.uleb128 0x12
 1010 00a0 06       		.uleb128 0x6
 1011 00a1 00       		.byte	0
 1012 00a2 00       		.byte	0
 1013 00a3 0C       		.uleb128 0xc
 1014 00a4 34       		.uleb128 0x34
 1015 00a5 00       		.byte	0
 1016 00a6 03       		.uleb128 0x3
 1017 00a7 08       		.uleb128 0x8
 1018 00a8 3A       		.uleb128 0x3a
 1019 00a9 0B       		.uleb128 0xb
 1020 00aa 3B       		.uleb128 0x3b
 1021 00ab 0B       		.uleb128 0xb
 1022 00ac 49       		.uleb128 0x49
 1023 00ad 13       		.uleb128 0x13
 1024 00ae 00       		.byte	0
 1025 00af 00       		.byte	0
 1026 00b0 0D       		.uleb128 0xd
 1027 00b1 01       		.uleb128 0x1
 1028 00b2 01       		.byte	0x1
 1029 00b3 49       		.uleb128 0x49
 1030 00b4 13       		.uleb128 0x13
 1031 00b5 01       		.uleb128 0x1
 1032 00b6 13       		.uleb128 0x13
 1033 00b7 00       		.byte	0
 1034 00b8 00       		.byte	0
 1035 00b9 0E       		.uleb128 0xe
 1036 00ba 21       		.uleb128 0x21
 1037 00bb 00       		.byte	0
 1038 00bc 49       		.uleb128 0x49
 1039 00bd 13       		.uleb128 0x13
 1040 00be 2F       		.uleb128 0x2f
 1041 00bf 0B       		.uleb128 0xb
 1042 00c0 00       		.byte	0
 1043 00c1 00       		.byte	0
 1044 00c2 0F       		.uleb128 0xf
 1045 00c3 34       		.uleb128 0x34
 1046 00c4 00       		.byte	0
 1047 00c5 03       		.uleb128 0x3
 1048 00c6 0E       		.uleb128 0xe
 1049 00c7 3A       		.uleb128 0x3a
 1050 00c8 0B       		.uleb128 0xb
 1051 00c9 3B       		.uleb128 0x3b
 1052 00ca 05       		.uleb128 0x5
 1053 00cb 49       		.uleb128 0x49
 1054 00cc 13       		.uleb128 0x13
 1055 00cd 3F       		.uleb128 0x3f
 1056 00ce 19       		.uleb128 0x19
ARM GAS  C:\Users\JIANGL~1\AppData\Local\Temp\cc5OgKAF.s 			page 23


 1057 00cf 3C       		.uleb128 0x3c
 1058 00d0 19       		.uleb128 0x19
 1059 00d1 00       		.byte	0
 1060 00d2 00       		.byte	0
 1061 00d3 10       		.uleb128 0x10
 1062 00d4 34       		.uleb128 0x34
 1063 00d5 00       		.byte	0
 1064 00d6 03       		.uleb128 0x3
 1065 00d7 08       		.uleb128 0x8
 1066 00d8 3A       		.uleb128 0x3a
 1067 00d9 0B       		.uleb128 0xb
 1068 00da 3B       		.uleb128 0x3b
 1069 00db 0B       		.uleb128 0xb
 1070 00dc 49       		.uleb128 0x49
 1071 00dd 13       		.uleb128 0x13
 1072 00de 3F       		.uleb128 0x3f
 1073 00df 19       		.uleb128 0x19
 1074 00e0 3C       		.uleb128 0x3c
 1075 00e1 19       		.uleb128 0x19
 1076 00e2 00       		.byte	0
 1077 00e3 00       		.byte	0
 1078 00e4 11       		.uleb128 0x11
 1079 00e5 34       		.uleb128 0x34
 1080 00e6 00       		.byte	0
 1081 00e7 03       		.uleb128 0x3
 1082 00e8 0E       		.uleb128 0xe
 1083 00e9 3A       		.uleb128 0x3a
 1084 00ea 0B       		.uleb128 0xb
 1085 00eb 3B       		.uleb128 0x3b
 1086 00ec 0B       		.uleb128 0xb
 1087 00ed 49       		.uleb128 0x49
 1088 00ee 13       		.uleb128 0x13
 1089 00ef 3F       		.uleb128 0x3f
 1090 00f0 19       		.uleb128 0x19
 1091 00f1 3C       		.uleb128 0x3c
 1092 00f2 19       		.uleb128 0x19
 1093 00f3 00       		.byte	0
 1094 00f4 00       		.byte	0
 1095 00f5 12       		.uleb128 0x12
 1096 00f6 34       		.uleb128 0x34
 1097 00f7 00       		.byte	0
 1098 00f8 03       		.uleb128 0x3
 1099 00f9 0E       		.uleb128 0xe
 1100 00fa 3A       		.uleb128 0x3a
 1101 00fb 0B       		.uleb128 0xb
 1102 00fc 3B       		.uleb128 0x3b
 1103 00fd 0B       		.uleb128 0xb
 1104 00fe 49       		.uleb128 0x49
 1105 00ff 13       		.uleb128 0x13
 1106 0100 3F       		.uleb128 0x3f
 1107 0101 19       		.uleb128 0x19
 1108 0102 02       		.uleb128 0x2
 1109 0103 18       		.uleb128 0x18
 1110 0104 00       		.byte	0
 1111 0105 00       		.byte	0
 1112 0106 00       		.byte	0
 1113              		.section	.debug_aranges,"",%progbits
ARM GAS  C:\Users\JIANGL~1\AppData\Local\Temp\cc5OgKAF.s 			page 24


 1114 0000 2C000000 		.4byte	0x2c
 1115 0004 0200     		.2byte	0x2
 1116 0006 00000000 		.4byte	.Ldebug_info0
 1117 000a 04       		.byte	0x4
 1118 000b 00       		.byte	0
 1119 000c 0000     		.2byte	0
 1120 000e 0000     		.2byte	0
 1121 0010 00000000 		.4byte	.LFB63
 1122 0014 2C000000 		.4byte	.LFE63-.LFB63
 1123 0018 00000000 		.4byte	.LFB64
 1124 001c 2C000000 		.4byte	.LFE64-.LFB64
 1125 0020 00000000 		.4byte	.LFB65
 1126 0024 B8020000 		.4byte	.LFE65-.LFB65
 1127 0028 00000000 		.4byte	0
 1128 002c 00000000 		.4byte	0
 1129              		.section	.debug_ranges,"",%progbits
 1130              	.Ldebug_ranges0:
 1131 0000 00000000 		.4byte	.LFB63
 1132 0004 2C000000 		.4byte	.LFE63
 1133 0008 00000000 		.4byte	.LFB64
 1134 000c 2C000000 		.4byte	.LFE64
 1135 0010 00000000 		.4byte	.LFB65
 1136 0014 B8020000 		.4byte	.LFE65
 1137 0018 00000000 		.4byte	0
 1138 001c 00000000 		.4byte	0
 1139              		.section	.debug_line,"",%progbits
 1140              	.Ldebug_line0:
 1141 0000 01020000 		.section	.debug_str,"MS",%progbits,1
 1141      02006501 
 1141      00000201 
 1141      FB0E0D00 
 1141      01010101 
 1142              	.LASF19:
 1143 0000 72656731 		.ascii	"reg16\000"
 1143      3600
 1144              	.LASF29:
 1145 0006 4144435F 		.ascii	"ADC_R_balance\000"
 1145      525F6261 
 1145      6C616E63 
 1145      6500
 1146              	.LASF9:
 1147 0014 5F5F696E 		.ascii	"__int32_t\000"
 1147      7433325F 
 1147      7400
 1148              	.LASF30:
 1149 001e 4144435F 		.ascii	"ADC_L\000"
 1149      4C00
 1150              	.LASF4:
 1151 0024 6C6F6E67 		.ascii	"long int\000"
 1151      20696E74 
 1151      00
 1152              	.LASF38:
 1153 002d 474E5520 		.ascii	"GNU C 4.9.3 20150303 (release) [ARM/embedded-4_9-br"
 1153      4320342E 
 1153      392E3320 
 1153      32303135 
 1153      30333033 
ARM GAS  C:\Users\JIANGL~1\AppData\Local\Temp\cc5OgKAF.s 			page 25


 1154 0060 616E6368 		.ascii	"anch revision 221220] -mcpu=cortex-m3 -mthumb -g -O"
 1154      20726576 
 1154      6973696F 
 1154      6E203232 
 1154      31323230 
 1155 0093 30202D66 		.ascii	"0 -ffunction-sections -ffat-lto-objects\000"
 1155      66756E63 
 1155      74696F6E 
 1155      2D736563 
 1155      74696F6E 
 1156              	.LASF31:
 1157 00bb 4144435F 		.ascii	"ADC_R\000"
 1157      5200
 1158              	.LASF27:
 1159 00c1 546F704D 		.ascii	"TopMotorAngleCoeff\000"
 1159      6F746F72 
 1159      416E676C 
 1159      65436F65 
 1159      666600
 1160              	.LASF39:
 1161 00d4 2E5C6D61 		.ascii	".\\main.c\000"
 1161      696E2E63 
 1161      00
 1162              	.LASF15:
 1163 00dd 666C6F61 		.ascii	"float\000"
 1163      7400
 1164              	.LASF21:
 1165 00e3 4144435F 		.ascii	"ADC_SAR_R_ISR_LOC\000"
 1165      5341525F 
 1165      525F4953 
 1165      525F4C4F 
 1165      4300
 1166              	.LASF1:
 1167 00f5 756E7369 		.ascii	"unsigned char\000"
 1167      676E6564 
 1167      20636861 
 1167      7200
 1168              	.LASF34:
 1169 0103 64617461 		.ascii	"dataReady_L\000"
 1169      52656164 
 1169      795F4C00 
 1170              	.LASF17:
 1171 010f 63686172 		.ascii	"char8\000"
 1171      3800
 1172              	.LASF13:
 1173 0115 696E7431 		.ascii	"int16\000"
 1173      3600
 1174              	.LASF5:
 1175 011b 6C6F6E67 		.ascii	"long unsigned int\000"
 1175      20756E73 
 1175      69676E65 
 1175      6420696E 
 1175      7400
 1176              	.LASF36:
 1177 012d 64617461 		.ascii	"dataReady_R\000"
 1177      52656164 
 1177      795F5200 
ARM GAS  C:\Users\JIANGL~1\AppData\Local\Temp\cc5OgKAF.s 			page 26


 1178              	.LASF24:
 1179 0139 49544D5F 		.ascii	"ITM_RxBuffer\000"
 1179      52784275 
 1179      66666572 
 1179      00
 1180              	.LASF32:
 1181 0146 72616E67 		.ascii	"range\000"
 1181      6500
 1182              	.LASF16:
 1183 014c 646F7562 		.ascii	"double\000"
 1183      6C6500
 1184              	.LASF41:
 1185 0153 6D61696E 		.ascii	"main\000"
 1185      00
 1186              	.LASF12:
 1187 0158 75696E74 		.ascii	"uint16\000"
 1187      313600
 1188              	.LASF8:
 1189 015f 756E7369 		.ascii	"unsigned int\000"
 1189      676E6564 
 1189      20696E74 
 1189      00
 1190              	.LASF7:
 1191 016c 6C6F6E67 		.ascii	"long long unsigned int\000"
 1191      206C6F6E 
 1191      6720756E 
 1191      7369676E 
 1191      65642069 
 1192              	.LASF37:
 1193 0183 72657375 		.ascii	"result_R\000"
 1193      6C745F52 
 1193      00
 1194              	.LASF10:
 1195 018c 696E7433 		.ascii	"int32_t\000"
 1195      325F7400 
 1196              	.LASF25:
 1197 0194 456B5F31 		.ascii	"Ek_1\000"
 1197      00
 1198              	.LASF26:
 1199 0199 456B5F32 		.ascii	"Ek_2\000"
 1199      00
 1200              	.LASF20:
 1201 019e 73697A65 		.ascii	"sizetype\000"
 1201      74797065 
 1201      00
 1202              	.LASF6:
 1203 01a7 6C6F6E67 		.ascii	"long long int\000"
 1203      206C6F6E 
 1203      6720696E 
 1203      7400
 1204              	.LASF28:
 1205 01b5 4144435F 		.ascii	"ADC_L_balance\000"
 1205      4C5F6261 
 1205      6C616E63 
 1205      6500
 1206              	.LASF18:
 1207 01c3 63686172 		.ascii	"char\000"
ARM GAS  C:\Users\JIANGL~1\AppData\Local\Temp\cc5OgKAF.s 			page 27


 1207      00
 1208              	.LASF40:
 1209 01c8 433A5C55 		.ascii	"C:\\Users\\Jiang Liu\\Desktop\\ee\\961901.cydsn\000"
 1209      73657273 
 1209      5C4A6961 
 1209      6E67204C 
 1209      69755C44 
 1210              	.LASF2:
 1211 01f3 73686F72 		.ascii	"short int\000"
 1211      7420696E 
 1211      7400
 1212              	.LASF23:
 1213 01fd 72657375 		.ascii	"resultStr\000"
 1213      6C745374 
 1213      7200
 1214              	.LASF33:
 1215 0207 62756666 		.ascii	"buffer\000"
 1215      657200
 1216              	.LASF11:
 1217 020e 75696E74 		.ascii	"uint8\000"
 1217      3800
 1218              	.LASF14:
 1219 0214 666C6F61 		.ascii	"float32\000"
 1219      74333200 
 1220              	.LASF0:
 1221 021c 7369676E 		.ascii	"signed char\000"
 1221      65642063 
 1221      68617200 
 1222              	.LASF3:
 1223 0228 73686F72 		.ascii	"short unsigned int\000"
 1223      7420756E 
 1223      7369676E 
 1223      65642069 
 1223      6E7400
 1224              	.LASF35:
 1225 023b 72657375 		.ascii	"result_L\000"
 1225      6C745F4C 
 1225      00
 1226              	.LASF22:
 1227 0244 4144435F 		.ascii	"ADC_SAR_L_ISR_LOC\000"
 1227      5341525F 
 1227      4C5F4953 
 1227      525F4C4F 
 1227      4300
 1228              		.ident	"GCC: (GNU Tools for ARM Embedded Processors) 4.9.3 20150303 (release) [ARM/embedded-4_9-br
