ARM GAS  C:\Users\JIANGL~1\AppData\Local\Temp\ccRF8EuX.s 			page 1


   1              		.syntax unified
   2              		.cpu cortex-m3
   3              		.fpu softvfp
   4              		.eabi_attribute 20, 1
   5              		.eabi_attribute 21, 1
   6              		.eabi_attribute 23, 3
   7              		.eabi_attribute 24, 1
   8              		.eabi_attribute 25, 1
   9              		.eabi_attribute 26, 1
  10              		.eabi_attribute 30, 6
  11              		.eabi_attribute 34, 1
  12              		.eabi_attribute 18, 4
  13              		.thumb
  14              		.file	"pid.c"
  15              		.text
  16              	.Ltext0:
  17              		.cfi_sections	.debug_frame
  18              		.global	Ek
  19              		.bss
  20              		.align	2
  21              		.type	Ek, %object
  22              		.size	Ek, 4
  23              	Ek:
  24 0000 00000000 		.space	4
  25              		.global	Ek_1
  26              		.align	2
  27              		.type	Ek_1, %object
  28              		.size	Ek_1, 4
  29              	Ek_1:
  30 0004 00000000 		.space	4
  31              		.global	Ek_2
  32              		.align	2
  33              		.type	Ek_2, %object
  34              		.size	Ek_2, 4
  35              	Ek_2:
  36 0008 00000000 		.space	4
  37              		.global	Uk
  38              		.align	2
  39              		.type	Uk, %object
  40              		.size	Uk, 4
  41              	Uk:
  42 000c 00000000 		.space	4
  43              		.global	Ukk
  44              		.align	2
  45              		.type	Ukk, %object
  46              		.size	Ukk, 4
  47              	Ukk:
  48 0010 00000000 		.space	4
  49              		.global	Kp
  50              		.data
  51              		.align	2
  52              		.type	Kp, %object
  53              		.size	Kp, 4
  54              	Kp:
  55 0000 00000041 		.word	1090519040
  56              		.global	Ki
  57              		.align	2
ARM GAS  C:\Users\JIANGL~1\AppData\Local\Temp\ccRF8EuX.s 			page 2


  58              		.type	Ki, %object
  59              		.size	Ki, 4
  60              	Ki:
  61 0004 EC51B83D 		.word	1035489772
  62              		.global	Kd
  63              		.align	2
  64              		.type	Kd, %object
  65              		.size	Kd, 4
  66              	Kd:
  67 0008 8FC2F53E 		.word	1056293519
  68              		.global	TopMotorAngleCoeff
  69              		.align	2
  70              		.type	TopMotorAngleCoeff, %object
  71              		.size	TopMotorAngleCoeff, 4
  72              	TopMotorAngleCoeff:
  73 000c 00008040 		.word	1082130432
  74              		.global	ADC_L_balance
  75              		.align	1
  76              		.type	ADC_L_balance, %object
  77              		.size	ADC_L_balance, 2
  78              	ADC_L_balance:
  79 0010 B202     		.short	690
  80              		.global	ADC_R_balance
  81              		.align	1
  82              		.type	ADC_R_balance, %object
  83              		.size	ADC_R_balance, 2
  84              	ADC_R_balance:
  85 0012 D002     		.short	720
  86              		.global	bias
  87              		.align	1
  88              		.type	bias, %object
  89              		.size	bias, 2
  90              	bias:
  91 0014 F6FF     		.short	-10
  92              		.comm	ADC_L,2,2
  93              		.comm	ADC_R,2,2
  94              		.global	range
  95 0016 0000     		.align	2
  96              		.type	range, %object
  97              		.size	range, 4
  98              	range:
  99 0018 00002041 		.word	1092616192
 100              		.global	speed1
 101              		.bss
 102              		.align	1
 103              		.type	speed1, %object
 104              		.size	speed1, 2
 105              	speed1:
 106 0014 0000     		.space	2
 107              		.global	speed2
 108              		.align	1
 109              		.type	speed2, %object
 110              		.size	speed2, 2
 111              	speed2:
 112 0016 0000     		.space	2
 113              		.global	angle3
 114              		.align	1
ARM GAS  C:\Users\JIANGL~1\AppData\Local\Temp\ccRF8EuX.s 			page 3


 115              		.type	angle3, %object
 116              		.size	angle3, 2
 117              	angle3:
 118 0018 0000     		.space	2
 119              		.global	__aeabi_i2f
 120              		.global	__aeabi_fsub
 121              		.global	__aeabi_fmul
 122              		.global	__aeabi_fadd
 123              		.global	__aeabi_f2d
 124              		.global	__aeabi_dmul
 125              		.global	__aeabi_dadd
 126              		.global	__aeabi_d2f
 127              		.global	__aeabi_fcmple
 128              		.global	__aeabi_fcmpgt
 129              		.global	__aeabi_fcmplt
 130              		.global	__aeabi_f2iz
 131              		.global	__aeabi_fdiv
 132              		.global	__aeabi_f2uiz
 133 001a 0000     		.section	.text.PID,"ax",%progbits
 134              		.align	2
 135              		.global	PID
 136              		.thumb
 137              		.thumb_func
 138              		.type	PID, %function
 139              	PID:
 140              	.LFB63:
 141              		.file 1 ".\\pid.c"
   1:.\pid.c       **** // author: Jiang LIU
   2:.\pid.c       **** 
   3:.\pid.c       **** #include "pid.h"
   4:.\pid.c       **** 
   5:.\pid.c       **** float32 Ek = 0;
   6:.\pid.c       **** float32 Ek_1 = 0;
   7:.\pid.c       **** float32 Ek_2 = 0;
   8:.\pid.c       **** float32 Uk = 0;
   9:.\pid.c       **** float32 Ukk = 0;
  10:.\pid.c       **** float32 Kp = 8;
  11:.\pid.c       **** float32 Ki = 0.09;
  12:.\pid.c       **** float32 Kd = 0.48;//0,2
  13:.\pid.c       **** float32 TopMotorAngleCoeff = 4;
  14:.\pid.c       **** int16 ADC_L_balance = 690; 
  15:.\pid.c       **** int16 ADC_R_balance = 720; 
  16:.\pid.c       **** //int16 bias = ADC_L_balance - ADC_R_balance;
  17:.\pid.c       **** int16 bias = -10;
  18:.\pid.c       **** 
  19:.\pid.c       **** int16 ADC_L;
  20:.\pid.c       **** int16 ADC_R;
  21:.\pid.c       **** float32 range = 10;
  22:.\pid.c       **** int16 speed1 = 0; // -0x03ff ~ 0x03ff
  23:.\pid.c       **** int16 speed2 = 0;
  24:.\pid.c       **** uint16 angle3 = 0; // 0 - 300 degrees
  25:.\pid.c       **** 
  26:.\pid.c       **** void PID()
  27:.\pid.c       **** {
 142              		.loc 1 27 0
 143              		.cfi_startproc
 144              		@ args = 0, pretend = 0, frame = 0
ARM GAS  C:\Users\JIANGL~1\AppData\Local\Temp\ccRF8EuX.s 			page 4


 145              		@ frame_needed = 1, uses_anonymous_args = 0
 146 0000 B0B5     		push	{r4, r5, r7, lr}
 147              		.cfi_def_cfa_offset 16
 148              		.cfi_offset 4, -16
 149              		.cfi_offset 5, -12
 150              		.cfi_offset 7, -8
 151              		.cfi_offset 14, -4
 152 0002 00AF     		add	r7, sp, #0
 153              		.cfi_def_cfa_register 7
  28:.\pid.c       ****     Ek = (ADC_L - ADC_R) - bias;
 154              		.loc 1 28 0
 155 0004 824B     		ldr	r3, .L14+8
 156 0006 1B88     		ldrh	r3, [r3]
 157 0008 1AB2     		sxth	r2, r3
 158 000a 824B     		ldr	r3, .L14+12
 159 000c 1B88     		ldrh	r3, [r3]
 160 000e 1BB2     		sxth	r3, r3
 161 0010 D21A     		subs	r2, r2, r3
 162 0012 814B     		ldr	r3, .L14+16
 163 0014 1B88     		ldrh	r3, [r3]
 164 0016 1BB2     		sxth	r3, r3
 165 0018 D31A     		subs	r3, r2, r3
 166 001a 1846     		mov	r0, r3
 167 001c FFF7FEFF 		bl	__aeabi_i2f
 168 0020 0246     		mov	r2, r0
 169 0022 7E4B     		ldr	r3, .L14+20
 170 0024 1A60     		str	r2, [r3]	@ float
  29:.\pid.c       ****     Uk = Kp * (Ek - Ek_1 + Ki*Ek + Kd*(Ek - 2*Ek_1 + Ek_2)) + 0.95 * Ukk;
 171              		.loc 1 29 0
 172 0026 7D4B     		ldr	r3, .L14+20
 173 0028 1A68     		ldr	r2, [r3]	@ float
 174 002a 7D4B     		ldr	r3, .L14+24
 175 002c 1B68     		ldr	r3, [r3]	@ float
 176 002e 1046     		mov	r0, r2
 177 0030 1946     		mov	r1, r3
 178 0032 FFF7FEFF 		bl	__aeabi_fsub
 179 0036 0346     		mov	r3, r0
 180 0038 1C46     		mov	r4, r3
 181 003a 7A4B     		ldr	r3, .L14+28
 182 003c 1A68     		ldr	r2, [r3]	@ float
 183 003e 774B     		ldr	r3, .L14+20
 184 0040 1B68     		ldr	r3, [r3]	@ float
 185 0042 1046     		mov	r0, r2
 186 0044 1946     		mov	r1, r3
 187 0046 FFF7FEFF 		bl	__aeabi_fmul
 188 004a 0346     		mov	r3, r0
 189 004c 2046     		mov	r0, r4
 190 004e 1946     		mov	r1, r3
 191 0050 FFF7FEFF 		bl	__aeabi_fadd
 192 0054 0346     		mov	r3, r0
 193 0056 1D46     		mov	r5, r3
 194 0058 704B     		ldr	r3, .L14+20
 195 005a 1C68     		ldr	r4, [r3]	@ float
 196 005c 704B     		ldr	r3, .L14+24
 197 005e 1B68     		ldr	r3, [r3]	@ float
 198 0060 1846     		mov	r0, r3
 199 0062 1946     		mov	r1, r3
ARM GAS  C:\Users\JIANGL~1\AppData\Local\Temp\ccRF8EuX.s 			page 5


 200 0064 FFF7FEFF 		bl	__aeabi_fadd
 201 0068 0346     		mov	r3, r0
 202 006a 2046     		mov	r0, r4
 203 006c 1946     		mov	r1, r3
 204 006e FFF7FEFF 		bl	__aeabi_fsub
 205 0072 0346     		mov	r3, r0
 206 0074 1A46     		mov	r2, r3
 207 0076 6C4B     		ldr	r3, .L14+32
 208 0078 1B68     		ldr	r3, [r3]	@ float
 209 007a 1046     		mov	r0, r2
 210 007c 1946     		mov	r1, r3
 211 007e FFF7FEFF 		bl	__aeabi_fadd
 212 0082 0346     		mov	r3, r0
 213 0084 1A46     		mov	r2, r3
 214 0086 694B     		ldr	r3, .L14+36
 215 0088 1B68     		ldr	r3, [r3]	@ float
 216 008a 1046     		mov	r0, r2
 217 008c 1946     		mov	r1, r3
 218 008e FFF7FEFF 		bl	__aeabi_fmul
 219 0092 0346     		mov	r3, r0
 220 0094 2846     		mov	r0, r5
 221 0096 1946     		mov	r1, r3
 222 0098 FFF7FEFF 		bl	__aeabi_fadd
 223 009c 0346     		mov	r3, r0
 224 009e 1A46     		mov	r2, r3
 225 00a0 634B     		ldr	r3, .L14+40
 226 00a2 1B68     		ldr	r3, [r3]	@ float
 227 00a4 1046     		mov	r0, r2
 228 00a6 1946     		mov	r1, r3
 229 00a8 FFF7FEFF 		bl	__aeabi_fmul
 230 00ac 0346     		mov	r3, r0
 231 00ae 1846     		mov	r0, r3
 232 00b0 FFF7FEFF 		bl	__aeabi_f2d
 233 00b4 0446     		mov	r4, r0
 234 00b6 0D46     		mov	r5, r1
 235 00b8 5E4B     		ldr	r3, .L14+44
 236 00ba 1B68     		ldr	r3, [r3]	@ float
 237 00bc 1846     		mov	r0, r3
 238 00be FFF7FEFF 		bl	__aeabi_f2d
 239 00c2 0246     		mov	r2, r0
 240 00c4 0B46     		mov	r3, r1
 241 00c6 1046     		mov	r0, r2
 242 00c8 1946     		mov	r1, r3
 243 00ca 4FA3     		adr	r3, .L14
 244 00cc D3E90023 		ldrd	r2, [r3]
 245 00d0 FFF7FEFF 		bl	__aeabi_dmul
 246 00d4 0246     		mov	r2, r0
 247 00d6 0B46     		mov	r3, r1
 248 00d8 2046     		mov	r0, r4
 249 00da 2946     		mov	r1, r5
 250 00dc FFF7FEFF 		bl	__aeabi_dadd
 251 00e0 0246     		mov	r2, r0
 252 00e2 0B46     		mov	r3, r1
 253 00e4 1046     		mov	r0, r2
 254 00e6 1946     		mov	r1, r3
 255 00e8 FFF7FEFF 		bl	__aeabi_d2f
 256 00ec 0246     		mov	r2, r0
ARM GAS  C:\Users\JIANGL~1\AppData\Local\Temp\ccRF8EuX.s 			page 6


 257 00ee 524B     		ldr	r3, .L14+48
 258 00f0 1A60     		str	r2, [r3]	@ float
  30:.\pid.c       ****     Ukk = Uk;
 259              		.loc 1 30 0
 260 00f2 514B     		ldr	r3, .L14+48
 261 00f4 1B68     		ldr	r3, [r3]	@ float
 262 00f6 4F4A     		ldr	r2, .L14+44
 263 00f8 1360     		str	r3, [r2]	@ float
  31:.\pid.c       ****     Ek_2 = Ek_1;
 264              		.loc 1 31 0
 265 00fa 494B     		ldr	r3, .L14+24
 266 00fc 1B68     		ldr	r3, [r3]	@ float
 267 00fe 4A4A     		ldr	r2, .L14+32
 268 0100 1360     		str	r3, [r2]	@ float
  32:.\pid.c       ****     Ek_1 = Ek;
 269              		.loc 1 32 0
 270 0102 464B     		ldr	r3, .L14+20
 271 0104 1B68     		ldr	r3, [r3]	@ float
 272 0106 464A     		ldr	r2, .L14+24
 273 0108 1360     		str	r3, [r2]	@ float
  33:.\pid.c       ****     if(Uk>=-range && Ukk <=range)
 274              		.loc 1 33 0
 275 010a 4C4B     		ldr	r3, .L14+52
 276 010c 1B68     		ldr	r3, [r3]	@ float
 277 010e 83F00042 		eor	r2, r3, #-2147483648
 278 0112 494B     		ldr	r3, .L14+48
 279 0114 1B68     		ldr	r3, [r3]	@ float
 280 0116 1046     		mov	r0, r2
 281 0118 1946     		mov	r1, r3
 282 011a FFF7FEFF 		bl	__aeabi_fcmple
 283 011e 0346     		mov	r3, r0
 284 0120 002B     		cmp	r3, #0
 285 0122 16D0     		beq	.L2
 286              		.loc 1 33 0 is_stmt 0 discriminator 1
 287 0124 434B     		ldr	r3, .L14+44
 288 0126 1A68     		ldr	r2, [r3]	@ float
 289 0128 444B     		ldr	r3, .L14+52
 290 012a 1B68     		ldr	r3, [r3]	@ float
 291 012c 1046     		mov	r0, r2
 292 012e 1946     		mov	r1, r3
 293 0130 FFF7FEFF 		bl	__aeabi_fcmple
 294 0134 0346     		mov	r3, r0
 295 0136 002B     		cmp	r3, #0
 296 0138 0BD0     		beq	.L2
  34:.\pid.c       ****     {
  35:.\pid.c       ****         speed1 = speed2 = 0;
 297              		.loc 1 35 0 is_stmt 1
 298 013a 414B     		ldr	r3, .L14+56
 299 013c 0022     		movs	r2, #0
 300 013e 1A80     		strh	r2, [r3]	@ movhi
 301 0140 3F4B     		ldr	r3, .L14+56
 302 0142 1A88     		ldrh	r2, [r3]
 303 0144 3F4B     		ldr	r3, .L14+60
 304 0146 1A80     		strh	r2, [r3]	@ movhi
  36:.\pid.c       ****         angle3 = 512;
 305              		.loc 1 36 0
 306 0148 3F4B     		ldr	r3, .L14+64
ARM GAS  C:\Users\JIANGL~1\AppData\Local\Temp\ccRF8EuX.s 			page 7


 307 014a 4FF40072 		mov	r2, #512
 308 014e 1A80     		strh	r2, [r3]	@ movhi
 309 0150 41E0     		b	.L5
 310              	.L2:
  37:.\pid.c       ****     }
  38:.\pid.c       ****     else
  39:.\pid.c       ****     {
  40:.\pid.c       ****         if(Uk > 1023) Uk = 1023;
 311              		.loc 1 40 0
 312 0152 394B     		ldr	r3, .L14+48
 313 0154 1B68     		ldr	r3, [r3]	@ float
 314 0156 1846     		mov	r0, r3
 315 0158 3C49     		ldr	r1, .L14+68
 316 015a FFF7FEFF 		bl	__aeabi_fcmpgt
 317 015e 0346     		mov	r3, r0
 318 0160 002B     		cmp	r3, #0
 319 0162 02D0     		beq	.L6
 320              		.loc 1 40 0 is_stmt 0 discriminator 1
 321 0164 344B     		ldr	r3, .L14+48
 322 0166 394A     		ldr	r2, .L14+68
 323 0168 1A60     		str	r2, [r3]	@ float
 324              	.L6:
  41:.\pid.c       ****         if(Uk < -1023) Uk = -1023;
 325              		.loc 1 41 0 is_stmt 1
 326 016a 334B     		ldr	r3, .L14+48
 327 016c 1B68     		ldr	r3, [r3]	@ float
 328 016e 1846     		mov	r0, r3
 329 0170 3749     		ldr	r1, .L14+72
 330 0172 FFF7FEFF 		bl	__aeabi_fcmplt
 331 0176 0346     		mov	r3, r0
 332 0178 002B     		cmp	r3, #0
 333 017a 02D0     		beq	.L8
 334              		.loc 1 41 0 is_stmt 0 discriminator 1
 335 017c 2E4B     		ldr	r3, .L14+48
 336 017e 344A     		ldr	r2, .L14+72
 337 0180 1A60     		str	r2, [r3]	@ float
 338              	.L8:
  42:.\pid.c       ****         speed1 = Uk;
 339              		.loc 1 42 0 is_stmt 1
 340 0182 2D4B     		ldr	r3, .L14+48
 341 0184 1B68     		ldr	r3, [r3]	@ float
 342 0186 1846     		mov	r0, r3
 343 0188 FFF7FEFF 		bl	__aeabi_f2iz
 344 018c 0346     		mov	r3, r0
 345 018e 9AB2     		uxth	r2, r3
 346 0190 2C4B     		ldr	r3, .L14+60
 347 0192 1A80     		strh	r2, [r3]	@ movhi
  43:.\pid.c       ****         speed2 = -Uk;
 348              		.loc 1 43 0
 349 0194 284B     		ldr	r3, .L14+48
 350 0196 1B68     		ldr	r3, [r3]	@ float
 351 0198 83F00043 		eor	r3, r3, #-2147483648
 352 019c 1846     		mov	r0, r3
 353 019e FFF7FEFF 		bl	__aeabi_f2iz
 354 01a2 0346     		mov	r3, r0
 355 01a4 9AB2     		uxth	r2, r3
 356 01a6 264B     		ldr	r3, .L14+56
ARM GAS  C:\Users\JIANGL~1\AppData\Local\Temp\ccRF8EuX.s 			page 8


 357 01a8 1A80     		strh	r2, [r3]	@ movhi
  44:.\pid.c       ****         angle3 = 512 + (Uk / TopMotorAngleCoeff);
 358              		.loc 1 44 0
 359 01aa 234B     		ldr	r3, .L14+48
 360 01ac 1A68     		ldr	r2, [r3]	@ float
 361 01ae 294B     		ldr	r3, .L14+76
 362 01b0 1B68     		ldr	r3, [r3]	@ float
 363 01b2 1046     		mov	r0, r2
 364 01b4 1946     		mov	r1, r3
 365 01b6 FFF7FEFF 		bl	__aeabi_fdiv
 366 01ba 0346     		mov	r3, r0
 367 01bc 1846     		mov	r0, r3
 368 01be 4FF08841 		mov	r1, #1140850688
 369 01c2 FFF7FEFF 		bl	__aeabi_fadd
 370 01c6 0346     		mov	r3, r0
 371 01c8 1846     		mov	r0, r3
 372 01ca FFF7FEFF 		bl	__aeabi_f2uiz
 373 01ce 0346     		mov	r3, r0
 374 01d0 9AB2     		uxth	r2, r3
 375 01d2 1D4B     		ldr	r3, .L14+64
 376 01d4 1A80     		strh	r2, [r3]	@ movhi
 377              	.L5:
  45:.\pid.c       ****     }
  46:.\pid.c       ****     SetMotorSpeed(_LEFT, speed1, 255);
 378              		.loc 1 46 0
 379 01d6 1B4B     		ldr	r3, .L14+60
 380 01d8 1B88     		ldrh	r3, [r3]
 381 01da 1BB2     		sxth	r3, r3
 382 01dc 0120     		movs	r0, #1
 383 01de 1946     		mov	r1, r3
 384 01e0 FF22     		movs	r2, #255
 385 01e2 FFF7FEFF 		bl	SetMotorSpeed
  47:.\pid.c       ****     SetMotorSpeed(_RIGHT, speed2, 255);
 386              		.loc 1 47 0
 387 01e6 164B     		ldr	r3, .L14+56
 388 01e8 1B88     		ldrh	r3, [r3]
 389 01ea 1BB2     		sxth	r3, r3
 390 01ec 0220     		movs	r0, #2
 391 01ee 1946     		mov	r1, r3
 392 01f0 FF22     		movs	r2, #255
 393 01f2 FFF7FEFF 		bl	SetMotorSpeed
  48:.\pid.c       ****     SetServoPosition(_TOP, angle3, 0x03ff);
 394              		.loc 1 48 0
 395 01f6 144B     		ldr	r3, .L14+64
 396 01f8 1B88     		ldrh	r3, [r3]
 397 01fa 0020     		movs	r0, #0
 398 01fc 1946     		mov	r1, r3
 399 01fe 40F2FF32 		movw	r2, #1023
 400 0202 FFF7FEFF 		bl	SetServoPosition
  49:.\pid.c       **** }...
 401              		.loc 1 49 0
 402 0206 B0BD     		pop	{r4, r5, r7, pc}
 403              	.L15:
 404              		.align	3
 405              	.L14:
 406 0208 66666666 		.word	1717986918
 407 020c 6666EE3F 		.word	1072588390
ARM GAS  C:\Users\JIANGL~1\AppData\Local\Temp\ccRF8EuX.s 			page 9


 408 0210 00000000 		.word	ADC_L
 409 0214 00000000 		.word	ADC_R
 410 0218 00000000 		.word	bias
 411 021c 00000000 		.word	Ek
 412 0220 00000000 		.word	Ek_1
 413 0224 00000000 		.word	Ki
 414 0228 00000000 		.word	Ek_2
 415 022c 00000000 		.word	Kd
 416 0230 00000000 		.word	Kp
 417 0234 00000000 		.word	Ukk
 418 0238 00000000 		.word	Uk
 419 023c 00000000 		.word	range
 420 0240 00000000 		.word	speed2
 421 0244 00000000 		.word	speed1
 422 0248 00000000 		.word	angle3
 423 024c 00C07F44 		.word	1149222912
 424 0250 00C07FC4 		.word	-998260736
 425 0254 00000000 		.word	TopMotorAngleCoeff
 426              		.cfi_endproc
 427              	.LFE63:
 428              		.size	PID, .-PID
 429              		.text
 430              	.Letext0:
 431              		.file 2 "d:\\program files (x86)\\cypress\\psoc creator\\3.3\\psoc creator\\import\\gnu\\arm\\4.9.
 432              		.file 3 "d:\\program files (x86)\\cypress\\psoc creator\\3.3\\psoc creator\\import\\gnu\\arm\\4.9.
 433              		.file 4 "Generated_Source\\PSoC5/cytypes.h"
 434              		.file 5 "Generated_Source\\PSoC5/core_cm3.h"