ARM GAS  C:\Users\kingi\AppData\Local\Temp\ccIG4g29.s 			page 1


   1              		.syntax unified
   2              		.cpu cortex-m3
   3              		.fpu softvfp
   4              		.eabi_attribute 20, 1
   5              		.eabi_attribute 21, 1
   6              		.eabi_attribute 23, 3
   7              		.eabi_attribute 24, 1
   8              		.eabi_attribute 25, 1
   9              		.eabi_attribute 26, 1
  10              		.eabi_attribute 30, 6
  11              		.eabi_attribute 34, 1
  12              		.eabi_attribute 18, 4
  13              		.thumb
  14              		.file	"LCD.c"
  15              		.text
  16              	.Ltext0:
  17              		.cfi_sections	.debug_frame
  18              		.global	LCD_enableState
  19              		.bss
  20              		.type	LCD_enableState, %object
  21              		.size	LCD_enableState, 1
  22              	LCD_enableState:
  23 0000 00       		.space	1
  24              		.global	LCD_initVar
  25              		.type	LCD_initVar, %object
  26              		.size	LCD_initVar, 1
  27              	LCD_initVar:
  28 0001 00       		.space	1
  29              		.section	.text.LCD_Init,"ax",%progbits
  30              		.align	2
  31              		.global	LCD_Init
  32              		.thumb
  33              		.thumb_func
  34              		.type	LCD_Init, %function
  35              	LCD_Init:
  36              	.LFB0:
  37              		.file 1 ".\\Generated_Source\\PSoC5\\LCD.c"
   1:.\Generated_Source\PSoC5/LCD.c **** /*******************************************************************************
   2:.\Generated_Source\PSoC5/LCD.c **** * File Name: LCD.c
   3:.\Generated_Source\PSoC5/LCD.c **** * Version 1.90
   4:.\Generated_Source\PSoC5/LCD.c **** *
   5:.\Generated_Source\PSoC5/LCD.c **** * Description:
   6:.\Generated_Source\PSoC5/LCD.c **** *  This file provides source code for the Character LCD component's API.
   7:.\Generated_Source\PSoC5/LCD.c **** *
   8:.\Generated_Source\PSoC5/LCD.c **** * Note:
   9:.\Generated_Source\PSoC5/LCD.c **** *
  10:.\Generated_Source\PSoC5/LCD.c **** ********************************************************************************
  11:.\Generated_Source\PSoC5/LCD.c **** * Copyright 2008-2012, Cypress Semiconductor Corporation.  All rights reserved.
  12:.\Generated_Source\PSoC5/LCD.c **** * You may use this file only in accordance with the license, terms, conditions,
  13:.\Generated_Source\PSoC5/LCD.c **** * disclaimers, and limitations in the end user license agreement accompanying
  14:.\Generated_Source\PSoC5/LCD.c **** * the software package with which this file was provided.
  15:.\Generated_Source\PSoC5/LCD.c **** *******************************************************************************/
  16:.\Generated_Source\PSoC5/LCD.c **** 
  17:.\Generated_Source\PSoC5/LCD.c **** #include "CyLib.h"
  18:.\Generated_Source\PSoC5/LCD.c **** #include "LCD.h"
  19:.\Generated_Source\PSoC5/LCD.c **** 
  20:.\Generated_Source\PSoC5/LCD.c **** 
ARM GAS  C:\Users\kingi\AppData\Local\Temp\ccIG4g29.s 			page 2


  21:.\Generated_Source\PSoC5/LCD.c **** static void LCD_WrDatNib(uint8 nibble) ;
  22:.\Generated_Source\PSoC5/LCD.c **** static void LCD_WrCntrlNib(uint8 nibble) ;
  23:.\Generated_Source\PSoC5/LCD.c **** 
  24:.\Generated_Source\PSoC5/LCD.c **** /* Stores the state of conponent. Indicates wherewer component is 
  25:.\Generated_Source\PSoC5/LCD.c **** * in enable state or not.
  26:.\Generated_Source\PSoC5/LCD.c **** */
  27:.\Generated_Source\PSoC5/LCD.c **** uint8 LCD_enableState = 0u;
  28:.\Generated_Source\PSoC5/LCD.c **** 
  29:.\Generated_Source\PSoC5/LCD.c **** uint8 LCD_initVar = 0u;
  30:.\Generated_Source\PSoC5/LCD.c **** 
  31:.\Generated_Source\PSoC5/LCD.c **** 
  32:.\Generated_Source\PSoC5/LCD.c **** /*******************************************************************************
  33:.\Generated_Source\PSoC5/LCD.c **** * Function Name: LCD_Init
  34:.\Generated_Source\PSoC5/LCD.c **** ********************************************************************************
  35:.\Generated_Source\PSoC5/LCD.c **** *
  36:.\Generated_Source\PSoC5/LCD.c **** * Summary:
  37:.\Generated_Source\PSoC5/LCD.c **** *  Perform initialization required for components normal work.
  38:.\Generated_Source\PSoC5/LCD.c **** *  This function initializes the LCD hardware module as follows:
  39:.\Generated_Source\PSoC5/LCD.c **** *        Enable 4-bit interface
  40:.\Generated_Source\PSoC5/LCD.c **** *        Clear the display
  41:.\Generated_Source\PSoC5/LCD.c **** *        Enable auto cursor increment
  42:.\Generated_Source\PSoC5/LCD.c **** *        Resets the cursor to start position
  43:.\Generated_Source\PSoC5/LCD.c **** *  Also loads custom character set to LCD if it was defined in the customizer.
  44:.\Generated_Source\PSoC5/LCD.c **** *
  45:.\Generated_Source\PSoC5/LCD.c **** * Parameters:
  46:.\Generated_Source\PSoC5/LCD.c **** *  None.
  47:.\Generated_Source\PSoC5/LCD.c **** *
  48:.\Generated_Source\PSoC5/LCD.c **** * Return:
  49:.\Generated_Source\PSoC5/LCD.c **** *  None.
  50:.\Generated_Source\PSoC5/LCD.c **** *
  51:.\Generated_Source\PSoC5/LCD.c **** * Reentrant:
  52:.\Generated_Source\PSoC5/LCD.c **** *  No.
  53:.\Generated_Source\PSoC5/LCD.c **** *
  54:.\Generated_Source\PSoC5/LCD.c **** *******************************************************************************/
  55:.\Generated_Source\PSoC5/LCD.c **** void LCD_Init(void) 
  56:.\Generated_Source\PSoC5/LCD.c **** {
  38              		.loc 1 56 0
  39              		.cfi_startproc
  40              		@ args = 0, pretend = 0, frame = 0
  41              		@ frame_needed = 1, uses_anonymous_args = 0
  42 0000 80B5     		push	{r7, lr}
  43              		.cfi_def_cfa_offset 8
  44              		.cfi_offset 7, -8
  45              		.cfi_offset 14, -4
  46 0002 00AF     		add	r7, sp, #0
  47              		.cfi_def_cfa_register 7
  57:.\Generated_Source\PSoC5/LCD.c ****     /* INIT CODE */
  58:.\Generated_Source\PSoC5/LCD.c ****     CyDelay(40u);                                                        /* Delay 40 ms */
  48              		.loc 1 58 0
  49 0004 2820     		movs	r0, #40
  50 0006 FFF7FEFF 		bl	CyDelay
  59:.\Generated_Source\PSoC5/LCD.c ****     LCD_WrCntrlNib(LCD_DISPLAY_8_BIT_INIT);    /* Selects 8-bit mode */
  51              		.loc 1 59 0
  52 000a 0320     		movs	r0, #3
  53 000c FFF7FEFF 		bl	LCD_WrCntrlNib
  60:.\Generated_Source\PSoC5/LCD.c ****     CyDelay(5u);                                                         /* Delay 5 ms */
  54              		.loc 1 60 0
ARM GAS  C:\Users\kingi\AppData\Local\Temp\ccIG4g29.s 			page 3


  55 0010 0520     		movs	r0, #5
  56 0012 FFF7FEFF 		bl	CyDelay
  61:.\Generated_Source\PSoC5/LCD.c ****     LCD_WrCntrlNib(LCD_DISPLAY_8_BIT_INIT);    /* Selects 8-bit mode */
  57              		.loc 1 61 0
  58 0016 0320     		movs	r0, #3
  59 0018 FFF7FEFF 		bl	LCD_WrCntrlNib
  62:.\Generated_Source\PSoC5/LCD.c ****     CyDelay(15u);                                                        /* Delay 15 ms */
  60              		.loc 1 62 0
  61 001c 0F20     		movs	r0, #15
  62 001e FFF7FEFF 		bl	CyDelay
  63:.\Generated_Source\PSoC5/LCD.c ****     LCD_WrCntrlNib(LCD_DISPLAY_8_BIT_INIT);    /* Selects 8-bit mode */
  63              		.loc 1 63 0
  64 0022 0320     		movs	r0, #3
  65 0024 FFF7FEFF 		bl	LCD_WrCntrlNib
  64:.\Generated_Source\PSoC5/LCD.c ****     CyDelay(1u);                                                         /* Delay 1 ms */
  66              		.loc 1 64 0
  67 0028 0120     		movs	r0, #1
  68 002a FFF7FEFF 		bl	CyDelay
  65:.\Generated_Source\PSoC5/LCD.c ****     LCD_WrCntrlNib(LCD_DISPLAY_4_BIT_INIT);    /* Selects 4-bit mode */
  69              		.loc 1 65 0
  70 002e 0220     		movs	r0, #2
  71 0030 FFF7FEFF 		bl	LCD_WrCntrlNib
  66:.\Generated_Source\PSoC5/LCD.c ****     CyDelay(5u);                                                         /* Delay 5 ms */
  72              		.loc 1 66 0
  73 0034 0520     		movs	r0, #5
  74 0036 FFF7FEFF 		bl	CyDelay
  67:.\Generated_Source\PSoC5/LCD.c **** 
  68:.\Generated_Source\PSoC5/LCD.c ****     LCD_WriteControl(LCD_CURSOR_AUTO_INCR_ON);    /* Incr Cursor After Writes */
  75              		.loc 1 68 0
  76 003a 0620     		movs	r0, #6
  77 003c FFF7FEFF 		bl	LCD_WriteControl
  69:.\Generated_Source\PSoC5/LCD.c ****     LCD_WriteControl(LCD_DISPLAY_CURSOR_ON);      /* Turn Display, Cursor ON */
  78              		.loc 1 69 0
  79 0040 0E20     		movs	r0, #14
  80 0042 FFF7FEFF 		bl	LCD_WriteControl
  70:.\Generated_Source\PSoC5/LCD.c ****     LCD_WriteControl(LCD_DISPLAY_2_LINES_5x10);   /* 2 Lines by 5x10 Characters */
  81              		.loc 1 70 0
  82 0046 2C20     		movs	r0, #44
  83 0048 FFF7FEFF 		bl	LCD_WriteControl
  71:.\Generated_Source\PSoC5/LCD.c ****     LCD_WriteControl(LCD_DISPLAY_CURSOR_OFF);     /* Turn Display, Cursor OFF */
  84              		.loc 1 71 0
  85 004c 0820     		movs	r0, #8
  86 004e FFF7FEFF 		bl	LCD_WriteControl
  72:.\Generated_Source\PSoC5/LCD.c ****     LCD_WriteControl(LCD_CLEAR_DISPLAY);          /* Clear LCD Screen */
  87              		.loc 1 72 0
  88 0052 0120     		movs	r0, #1
  89 0054 FFF7FEFF 		bl	LCD_WriteControl
  73:.\Generated_Source\PSoC5/LCD.c ****     LCD_WriteControl(LCD_DISPLAY_ON_CURSOR_OFF);  /* Turn Display ON, Cursor OFF */
  90              		.loc 1 73 0
  91 0058 0C20     		movs	r0, #12
  92 005a FFF7FEFF 		bl	LCD_WriteControl
  74:.\Generated_Source\PSoC5/LCD.c ****     LCD_WriteControl(LCD_RESET_CURSOR_POSITION);  /* Set Cursor to 0,0 */
  93              		.loc 1 74 0
  94 005e 0320     		movs	r0, #3
  95 0060 FFF7FEFF 		bl	LCD_WriteControl
  75:.\Generated_Source\PSoC5/LCD.c ****     CyDelay(5u);
  96              		.loc 1 75 0
ARM GAS  C:\Users\kingi\AppData\Local\Temp\ccIG4g29.s 			page 4


  97 0064 0520     		movs	r0, #5
  98 0066 FFF7FEFF 		bl	CyDelay
  76:.\Generated_Source\PSoC5/LCD.c **** 
  77:.\Generated_Source\PSoC5/LCD.c ****     #if(LCD_CUSTOM_CHAR_SET != LCD_NONE)
  78:.\Generated_Source\PSoC5/LCD.c ****         LCD_LoadCustomFonts(LCD_customFonts);
  79:.\Generated_Source\PSoC5/LCD.c ****     #endif /* LCD_CUSTOM_CHAR_SET != LCD_NONE */
  80:.\Generated_Source\PSoC5/LCD.c **** }
  99              		.loc 1 80 0
 100 006a 80BD     		pop	{r7, pc}
 101              		.cfi_endproc
 102              	.LFE0:
 103              		.size	LCD_Init, .-LCD_Init
 104              		.section	.text.LCD_Enable,"ax",%progbits
 105              		.align	2
 106              		.global	LCD_Enable
 107              		.thumb
 108              		.thumb_func
 109              		.type	LCD_Enable, %function
 110              	LCD_Enable:
 111              	.LFB1:
  81:.\Generated_Source\PSoC5/LCD.c **** 
  82:.\Generated_Source\PSoC5/LCD.c **** 
  83:.\Generated_Source\PSoC5/LCD.c **** /*******************************************************************************
  84:.\Generated_Source\PSoC5/LCD.c **** * Function Name: LCD_Enable
  85:.\Generated_Source\PSoC5/LCD.c **** ********************************************************************************
  86:.\Generated_Source\PSoC5/LCD.c **** *
  87:.\Generated_Source\PSoC5/LCD.c **** * Summary:
  88:.\Generated_Source\PSoC5/LCD.c **** *  Turns on the display.
  89:.\Generated_Source\PSoC5/LCD.c **** *
  90:.\Generated_Source\PSoC5/LCD.c **** * Parameters:
  91:.\Generated_Source\PSoC5/LCD.c **** *  None.
  92:.\Generated_Source\PSoC5/LCD.c **** *
  93:.\Generated_Source\PSoC5/LCD.c **** * Return:
  94:.\Generated_Source\PSoC5/LCD.c **** *  None.
  95:.\Generated_Source\PSoC5/LCD.c **** *
  96:.\Generated_Source\PSoC5/LCD.c **** * Reentrant:
  97:.\Generated_Source\PSoC5/LCD.c **** *  No.
  98:.\Generated_Source\PSoC5/LCD.c **** *
  99:.\Generated_Source\PSoC5/LCD.c **** * Theory:
 100:.\Generated_Source\PSoC5/LCD.c **** *  This finction has no effect when it called first time as
 101:.\Generated_Source\PSoC5/LCD.c **** *  LCD_Init() turns on the LCD.
 102:.\Generated_Source\PSoC5/LCD.c **** *
 103:.\Generated_Source\PSoC5/LCD.c **** *******************************************************************************/
 104:.\Generated_Source\PSoC5/LCD.c **** void LCD_Enable(void) 
 105:.\Generated_Source\PSoC5/LCD.c **** {
 112              		.loc 1 105 0
 113              		.cfi_startproc
 114              		@ args = 0, pretend = 0, frame = 0
 115              		@ frame_needed = 1, uses_anonymous_args = 0
 116 0000 80B5     		push	{r7, lr}
 117              		.cfi_def_cfa_offset 8
 118              		.cfi_offset 7, -8
 119              		.cfi_offset 14, -4
 120 0002 00AF     		add	r7, sp, #0
 121              		.cfi_def_cfa_register 7
 106:.\Generated_Source\PSoC5/LCD.c ****     LCD_DisplayOn();
 122              		.loc 1 106 0
ARM GAS  C:\Users\kingi\AppData\Local\Temp\ccIG4g29.s 			page 5


 123 0004 0C20     		movs	r0, #12
 124 0006 FFF7FEFF 		bl	LCD_WriteControl
 107:.\Generated_Source\PSoC5/LCD.c ****     LCD_enableState = 1u;
 125              		.loc 1 107 0
 126 000a 024B     		ldr	r3, .L3
 127 000c 0122     		movs	r2, #1
 128 000e 1A70     		strb	r2, [r3]
 108:.\Generated_Source\PSoC5/LCD.c **** }
 129              		.loc 1 108 0
 130 0010 80BD     		pop	{r7, pc}
 131              	.L4:
 132 0012 00BF     		.align	2
 133              	.L3:
 134 0014 00000000 		.word	LCD_enableState
 135              		.cfi_endproc
 136              	.LFE1:
 137              		.size	LCD_Enable, .-LCD_Enable
 138              		.section	.text.LCD_Start,"ax",%progbits
 139              		.align	2
 140              		.global	LCD_Start
 141              		.thumb
 142              		.thumb_func
 143              		.type	LCD_Start, %function
 144              	LCD_Start:
 145              	.LFB2:
 109:.\Generated_Source\PSoC5/LCD.c **** 
 110:.\Generated_Source\PSoC5/LCD.c **** 
 111:.\Generated_Source\PSoC5/LCD.c **** /*******************************************************************************
 112:.\Generated_Source\PSoC5/LCD.c **** * Function Name: LCD_Start
 113:.\Generated_Source\PSoC5/LCD.c **** ********************************************************************************
 114:.\Generated_Source\PSoC5/LCD.c **** *
 115:.\Generated_Source\PSoC5/LCD.c **** * Summary:
 116:.\Generated_Source\PSoC5/LCD.c **** *  Perform initialization required for components normal work.
 117:.\Generated_Source\PSoC5/LCD.c **** *  This function initializes the LCD hardware module as follows:
 118:.\Generated_Source\PSoC5/LCD.c **** *        Enable 4-bit interface
 119:.\Generated_Source\PSoC5/LCD.c **** *        Clear the display
 120:.\Generated_Source\PSoC5/LCD.c **** *        Enable auto cursor increment
 121:.\Generated_Source\PSoC5/LCD.c **** *        Resets the cursor to start position
 122:.\Generated_Source\PSoC5/LCD.c **** *  Also loads custom character set to LCD if it was defined in the customizer.
 123:.\Generated_Source\PSoC5/LCD.c **** *  If it was not the first call in this project then it just turns on the
 124:.\Generated_Source\PSoC5/LCD.c **** *  display
 125:.\Generated_Source\PSoC5/LCD.c **** *
 126:.\Generated_Source\PSoC5/LCD.c **** *
 127:.\Generated_Source\PSoC5/LCD.c **** * Parameters:
 128:.\Generated_Source\PSoC5/LCD.c **** *  LCD_initVar - global variable.
 129:.\Generated_Source\PSoC5/LCD.c **** *
 130:.\Generated_Source\PSoC5/LCD.c **** * Return:
 131:.\Generated_Source\PSoC5/LCD.c **** *  LCD_initVar - global variable.
 132:.\Generated_Source\PSoC5/LCD.c **** *
 133:.\Generated_Source\PSoC5/LCD.c **** * Reentrant:
 134:.\Generated_Source\PSoC5/LCD.c **** *  No.
 135:.\Generated_Source\PSoC5/LCD.c **** *
 136:.\Generated_Source\PSoC5/LCD.c **** *******************************************************************************/
 137:.\Generated_Source\PSoC5/LCD.c **** void LCD_Start(void) 
 138:.\Generated_Source\PSoC5/LCD.c **** {
 146              		.loc 1 138 0
 147              		.cfi_startproc
ARM GAS  C:\Users\kingi\AppData\Local\Temp\ccIG4g29.s 			page 6


 148              		@ args = 0, pretend = 0, frame = 0
 149              		@ frame_needed = 1, uses_anonymous_args = 0
 150 0000 80B5     		push	{r7, lr}
 151              		.cfi_def_cfa_offset 8
 152              		.cfi_offset 7, -8
 153              		.cfi_offset 14, -4
 154 0002 00AF     		add	r7, sp, #0
 155              		.cfi_def_cfa_register 7
 139:.\Generated_Source\PSoC5/LCD.c ****     /* If not initialized then perform initialization */
 140:.\Generated_Source\PSoC5/LCD.c ****     if(LCD_initVar == 0u)
 156              		.loc 1 140 0
 157 0004 054B     		ldr	r3, .L7
 158 0006 1B78     		ldrb	r3, [r3]	@ zero_extendqisi2
 159 0008 002B     		cmp	r3, #0
 160 000a 04D1     		bne	.L6
 141:.\Generated_Source\PSoC5/LCD.c ****     {
 142:.\Generated_Source\PSoC5/LCD.c ****         LCD_Init();
 161              		.loc 1 142 0
 162 000c FFF7FEFF 		bl	LCD_Init
 143:.\Generated_Source\PSoC5/LCD.c ****         LCD_initVar = 1u;
 163              		.loc 1 143 0
 164 0010 024B     		ldr	r3, .L7
 165 0012 0122     		movs	r2, #1
 166 0014 1A70     		strb	r2, [r3]
 167              	.L6:
 144:.\Generated_Source\PSoC5/LCD.c ****     }
 145:.\Generated_Source\PSoC5/LCD.c **** 
 146:.\Generated_Source\PSoC5/LCD.c ****     /* Turn on the LCD */
 147:.\Generated_Source\PSoC5/LCD.c ****     LCD_Enable();
 168              		.loc 1 147 0
 169 0016 FFF7FEFF 		bl	LCD_Enable
 148:.\Generated_Source\PSoC5/LCD.c **** }
 170              		.loc 1 148 0
 171 001a 80BD     		pop	{r7, pc}
 172              	.L8:
 173              		.align	2
 174              	.L7:
 175 001c 00000000 		.word	LCD_initVar
 176              		.cfi_endproc
 177              	.LFE2:
 178              		.size	LCD_Start, .-LCD_Start
 179              		.section	.text.LCD_Stop,"ax",%progbits
 180              		.align	2
 181              		.global	LCD_Stop
 182              		.thumb
 183              		.thumb_func
 184              		.type	LCD_Stop, %function
 185              	LCD_Stop:
 186              	.LFB3:
 149:.\Generated_Source\PSoC5/LCD.c **** 
 150:.\Generated_Source\PSoC5/LCD.c **** 
 151:.\Generated_Source\PSoC5/LCD.c **** /*******************************************************************************
 152:.\Generated_Source\PSoC5/LCD.c **** * Function Name: LCD_Stop
 153:.\Generated_Source\PSoC5/LCD.c **** ********************************************************************************
 154:.\Generated_Source\PSoC5/LCD.c **** *
 155:.\Generated_Source\PSoC5/LCD.c **** * Summary:
 156:.\Generated_Source\PSoC5/LCD.c **** *  Turns off the display of the LCD screen.
ARM GAS  C:\Users\kingi\AppData\Local\Temp\ccIG4g29.s 			page 7


 157:.\Generated_Source\PSoC5/LCD.c **** *
 158:.\Generated_Source\PSoC5/LCD.c **** * Parameters:
 159:.\Generated_Source\PSoC5/LCD.c **** *  None.
 160:.\Generated_Source\PSoC5/LCD.c **** *
 161:.\Generated_Source\PSoC5/LCD.c **** * Return:
 162:.\Generated_Source\PSoC5/LCD.c **** *  None.
 163:.\Generated_Source\PSoC5/LCD.c **** *
 164:.\Generated_Source\PSoC5/LCD.c **** * Reentrant:
 165:.\Generated_Source\PSoC5/LCD.c **** *  No.
 166:.\Generated_Source\PSoC5/LCD.c **** *
 167:.\Generated_Source\PSoC5/LCD.c **** *******************************************************************************/
 168:.\Generated_Source\PSoC5/LCD.c **** void LCD_Stop(void) 
 169:.\Generated_Source\PSoC5/LCD.c **** {
 187              		.loc 1 169 0
 188              		.cfi_startproc
 189              		@ args = 0, pretend = 0, frame = 0
 190              		@ frame_needed = 1, uses_anonymous_args = 0
 191 0000 80B5     		push	{r7, lr}
 192              		.cfi_def_cfa_offset 8
 193              		.cfi_offset 7, -8
 194              		.cfi_offset 14, -4
 195 0002 00AF     		add	r7, sp, #0
 196              		.cfi_def_cfa_register 7
 170:.\Generated_Source\PSoC5/LCD.c ****     /* Calls LCD Off Macro */
 171:.\Generated_Source\PSoC5/LCD.c ****     LCD_DisplayOff();
 197              		.loc 1 171 0
 198 0004 0820     		movs	r0, #8
 199 0006 FFF7FEFF 		bl	LCD_WriteControl
 172:.\Generated_Source\PSoC5/LCD.c ****     LCD_enableState = 0u;
 200              		.loc 1 172 0
 201 000a 024B     		ldr	r3, .L10
 202 000c 0022     		movs	r2, #0
 203 000e 1A70     		strb	r2, [r3]
 173:.\Generated_Source\PSoC5/LCD.c **** }
 204              		.loc 1 173 0
 205 0010 80BD     		pop	{r7, pc}
 206              	.L11:
 207 0012 00BF     		.align	2
 208              	.L10:
 209 0014 00000000 		.word	LCD_enableState
 210              		.cfi_endproc
 211              	.LFE3:
 212              		.size	LCD_Stop, .-LCD_Stop
 213              		.section	.text.LCD_Position,"ax",%progbits
 214              		.align	2
 215              		.global	LCD_Position
 216              		.thumb
 217              		.thumb_func
 218              		.type	LCD_Position, %function
 219              	LCD_Position:
 220              	.LFB4:
 174:.\Generated_Source\PSoC5/LCD.c **** 
 175:.\Generated_Source\PSoC5/LCD.c **** 
 176:.\Generated_Source\PSoC5/LCD.c **** /*******************************************************************************
 177:.\Generated_Source\PSoC5/LCD.c **** *  Function Name: LCD_Position
 178:.\Generated_Source\PSoC5/LCD.c **** ********************************************************************************
 179:.\Generated_Source\PSoC5/LCD.c **** *
ARM GAS  C:\Users\kingi\AppData\Local\Temp\ccIG4g29.s 			page 8


 180:.\Generated_Source\PSoC5/LCD.c **** * Summary:
 181:.\Generated_Source\PSoC5/LCD.c **** *  Moves active cursor location to a point specified by the input arguments
 182:.\Generated_Source\PSoC5/LCD.c **** *
 183:.\Generated_Source\PSoC5/LCD.c **** * Parameters:
 184:.\Generated_Source\PSoC5/LCD.c **** *  row:     Specific row of LCD module to be written
 185:.\Generated_Source\PSoC5/LCD.c **** *  column:  Column of LCD module to be written
 186:.\Generated_Source\PSoC5/LCD.c **** *
 187:.\Generated_Source\PSoC5/LCD.c **** * Return:
 188:.\Generated_Source\PSoC5/LCD.c **** *  None.
 189:.\Generated_Source\PSoC5/LCD.c **** *
 190:.\Generated_Source\PSoC5/LCD.c **** * Note:
 191:.\Generated_Source\PSoC5/LCD.c **** *  This only applies for LCD displays which use the 2X40 address mode.
 192:.\Generated_Source\PSoC5/LCD.c **** *  This results in Row 2 offset from row one by 0x28.
 193:.\Generated_Source\PSoC5/LCD.c **** *  When there are more than 2 rows, each row must be fewer than 20 characters.
 194:.\Generated_Source\PSoC5/LCD.c **** *
 195:.\Generated_Source\PSoC5/LCD.c **** *******************************************************************************/
 196:.\Generated_Source\PSoC5/LCD.c **** void LCD_Position(uint8 row, uint8 column) 
 197:.\Generated_Source\PSoC5/LCD.c **** {
 221              		.loc 1 197 0
 222              		.cfi_startproc
 223              		@ args = 0, pretend = 0, frame = 8
 224              		@ frame_needed = 1, uses_anonymous_args = 0
 225 0000 80B5     		push	{r7, lr}
 226              		.cfi_def_cfa_offset 8
 227              		.cfi_offset 7, -8
 228              		.cfi_offset 14, -4
 229 0002 82B0     		sub	sp, sp, #8
 230              		.cfi_def_cfa_offset 16
 231 0004 00AF     		add	r7, sp, #0
 232              		.cfi_def_cfa_register 7
 233 0006 0346     		mov	r3, r0
 234 0008 0A46     		mov	r2, r1
 235 000a FB71     		strb	r3, [r7, #7]
 236 000c 1346     		mov	r3, r2
 237 000e BB71     		strb	r3, [r7, #6]
 198:.\Generated_Source\PSoC5/LCD.c ****     switch (row)
 238              		.loc 1 198 0
 239 0010 FB79     		ldrb	r3, [r7, #7]	@ zero_extendqisi2
 240 0012 032B     		cmp	r3, #3
 241 0014 26D8     		bhi	.L20
 242 0016 01A2     		adr	r2, .L15
 243 0018 52F823F0 		ldr	pc, [r2, r3, lsl #2]
 244              		.p2align 2
 245              	.L15:
 246 001c 2D000000 		.word	.L14+1
 247 0020 3B000000 		.word	.L16+1
 248 0024 49000000 		.word	.L17+1
 249 0028 57000000 		.word	.L18+1
 250              		.p2align 1
 251              	.L14:
 199:.\Generated_Source\PSoC5/LCD.c ****     {
 200:.\Generated_Source\PSoC5/LCD.c ****         case (uint8)0:
 201:.\Generated_Source\PSoC5/LCD.c ****             LCD_WriteControl(LCD_ROW_0_START + column);
 252              		.loc 1 201 0
 253 002c BB79     		ldrb	r3, [r7, #6]
 254 002e 803B     		subs	r3, r3, #128
 255 0030 DBB2     		uxtb	r3, r3
ARM GAS  C:\Users\kingi\AppData\Local\Temp\ccIG4g29.s 			page 9


 256 0032 1846     		mov	r0, r3
 257 0034 FFF7FEFF 		bl	LCD_WriteControl
 202:.\Generated_Source\PSoC5/LCD.c ****             break;
 258              		.loc 1 202 0
 259 0038 15E0     		b	.L12
 260              	.L16:
 203:.\Generated_Source\PSoC5/LCD.c ****         case (uint8) 1:
 204:.\Generated_Source\PSoC5/LCD.c ****             LCD_WriteControl(LCD_ROW_1_START + column);
 261              		.loc 1 204 0
 262 003a BB79     		ldrb	r3, [r7, #6]
 263 003c 403B     		subs	r3, r3, #64
 264 003e DBB2     		uxtb	r3, r3
 265 0040 1846     		mov	r0, r3
 266 0042 FFF7FEFF 		bl	LCD_WriteControl
 205:.\Generated_Source\PSoC5/LCD.c ****             break;
 267              		.loc 1 205 0
 268 0046 0EE0     		b	.L12
 269              	.L17:
 206:.\Generated_Source\PSoC5/LCD.c ****         case (uint8) 2:
 207:.\Generated_Source\PSoC5/LCD.c ****             LCD_WriteControl(LCD_ROW_2_START + column);
 270              		.loc 1 207 0
 271 0048 BB79     		ldrb	r3, [r7, #6]
 272 004a 6C3B     		subs	r3, r3, #108
 273 004c DBB2     		uxtb	r3, r3
 274 004e 1846     		mov	r0, r3
 275 0050 FFF7FEFF 		bl	LCD_WriteControl
 208:.\Generated_Source\PSoC5/LCD.c ****             break;
 276              		.loc 1 208 0
 277 0054 07E0     		b	.L12
 278              	.L18:
 209:.\Generated_Source\PSoC5/LCD.c ****         case (uint8) 3:
 210:.\Generated_Source\PSoC5/LCD.c ****             LCD_WriteControl(LCD_ROW_3_START + column);
 279              		.loc 1 210 0
 280 0056 BB79     		ldrb	r3, [r7, #6]
 281 0058 2C3B     		subs	r3, r3, #44
 282 005a DBB2     		uxtb	r3, r3
 283 005c 1846     		mov	r0, r3
 284 005e FFF7FEFF 		bl	LCD_WriteControl
 211:.\Generated_Source\PSoC5/LCD.c ****             break;
 285              		.loc 1 211 0
 286 0062 00E0     		b	.L12
 287              	.L20:
 212:.\Generated_Source\PSoC5/LCD.c ****         default:
 213:.\Generated_Source\PSoC5/LCD.c ****             /* if default case is hit, invalid row argument was passed.*/
 214:.\Generated_Source\PSoC5/LCD.c ****             break;
 288              		.loc 1 214 0
 289 0064 00BF     		nop
 290              	.L12:
 215:.\Generated_Source\PSoC5/LCD.c ****     }
 216:.\Generated_Source\PSoC5/LCD.c **** }
 291              		.loc 1 216 0
 292 0066 0837     		adds	r7, r7, #8
 293              		.cfi_def_cfa_offset 8
 294 0068 BD46     		mov	sp, r7
 295              		.cfi_def_cfa_register 13
 296              		@ sp needed
 297 006a 80BD     		pop	{r7, pc}
ARM GAS  C:\Users\kingi\AppData\Local\Temp\ccIG4g29.s 			page 10


 298              		.cfi_endproc
 299              	.LFE4:
 300              		.size	LCD_Position, .-LCD_Position
 301              		.section	.text.LCD_PrintString,"ax",%progbits
 302              		.align	2
 303              		.global	LCD_PrintString
 304              		.thumb
 305              		.thumb_func
 306              		.type	LCD_PrintString, %function
 307              	LCD_PrintString:
 308              	.LFB5:
 217:.\Generated_Source\PSoC5/LCD.c **** 
 218:.\Generated_Source\PSoC5/LCD.c **** 
 219:.\Generated_Source\PSoC5/LCD.c **** /*******************************************************************************
 220:.\Generated_Source\PSoC5/LCD.c **** * Function Name: LCD_PrintString
 221:.\Generated_Source\PSoC5/LCD.c **** ********************************************************************************
 222:.\Generated_Source\PSoC5/LCD.c **** *
 223:.\Generated_Source\PSoC5/LCD.c **** * Summary:
 224:.\Generated_Source\PSoC5/LCD.c **** *  Writes a zero terminated string to the LCD.
 225:.\Generated_Source\PSoC5/LCD.c **** *
 226:.\Generated_Source\PSoC5/LCD.c **** * Parameters:
 227:.\Generated_Source\PSoC5/LCD.c **** *  string:  pointer to head of char8 array to be written to the LCD module
 228:.\Generated_Source\PSoC5/LCD.c **** *
 229:.\Generated_Source\PSoC5/LCD.c **** * Return:
 230:.\Generated_Source\PSoC5/LCD.c **** *  None.
 231:.\Generated_Source\PSoC5/LCD.c **** *
 232:.\Generated_Source\PSoC5/LCD.c **** *******************************************************************************/
 233:.\Generated_Source\PSoC5/LCD.c **** void LCD_PrintString(char8 const string[]) 
 234:.\Generated_Source\PSoC5/LCD.c **** {
 309              		.loc 1 234 0
 310              		.cfi_startproc
 311              		@ args = 0, pretend = 0, frame = 16
 312              		@ frame_needed = 1, uses_anonymous_args = 0
 313 0000 80B5     		push	{r7, lr}
 314              		.cfi_def_cfa_offset 8
 315              		.cfi_offset 7, -8
 316              		.cfi_offset 14, -4
 317 0002 84B0     		sub	sp, sp, #16
 318              		.cfi_def_cfa_offset 24
 319 0004 00AF     		add	r7, sp, #0
 320              		.cfi_def_cfa_register 7
 321 0006 7860     		str	r0, [r7, #4]
 235:.\Generated_Source\PSoC5/LCD.c ****     uint8 indexU8 = 1u;
 322              		.loc 1 235 0
 323 0008 0123     		movs	r3, #1
 324 000a FB73     		strb	r3, [r7, #15]
 236:.\Generated_Source\PSoC5/LCD.c ****     char8 current = *string;
 325              		.loc 1 236 0
 326 000c 7B68     		ldr	r3, [r7, #4]
 327 000e 1B78     		ldrb	r3, [r3]
 328 0010 BB73     		strb	r3, [r7, #14]
 237:.\Generated_Source\PSoC5/LCD.c **** 
 238:.\Generated_Source\PSoC5/LCD.c ****     /* Until null is reached, print next character */
 239:.\Generated_Source\PSoC5/LCD.c ****     while((char8) '\0' != current)
 329              		.loc 1 239 0
 330 0012 0BE0     		b	.L22
 331              	.L23:
ARM GAS  C:\Users\kingi\AppData\Local\Temp\ccIG4g29.s 			page 11


 240:.\Generated_Source\PSoC5/LCD.c ****     {
 241:.\Generated_Source\PSoC5/LCD.c ****         LCD_WriteData((uint8)current);
 332              		.loc 1 241 0
 333 0014 BB7B     		ldrb	r3, [r7, #14]	@ zero_extendqisi2
 334 0016 1846     		mov	r0, r3
 335 0018 FFF7FEFF 		bl	LCD_WriteData
 242:.\Generated_Source\PSoC5/LCD.c ****         current = string[indexU8];
 336              		.loc 1 242 0
 337 001c FB7B     		ldrb	r3, [r7, #15]	@ zero_extendqisi2
 338 001e 7A68     		ldr	r2, [r7, #4]
 339 0020 1344     		add	r3, r3, r2
 340 0022 1B78     		ldrb	r3, [r3]
 341 0024 BB73     		strb	r3, [r7, #14]
 243:.\Generated_Source\PSoC5/LCD.c ****         indexU8++;
 342              		.loc 1 243 0
 343 0026 FB7B     		ldrb	r3, [r7, #15]	@ zero_extendqisi2
 344 0028 0133     		adds	r3, r3, #1
 345 002a FB73     		strb	r3, [r7, #15]
 346              	.L22:
 239:.\Generated_Source\PSoC5/LCD.c ****     {
 347              		.loc 1 239 0
 348 002c BB7B     		ldrb	r3, [r7, #14]	@ zero_extendqisi2
 349 002e 002B     		cmp	r3, #0
 350 0030 F0D1     		bne	.L23
 244:.\Generated_Source\PSoC5/LCD.c ****     }
 245:.\Generated_Source\PSoC5/LCD.c **** }
 351              		.loc 1 245 0
 352 0032 1037     		adds	r7, r7, #16
 353              		.cfi_def_cfa_offset 8
 354 0034 BD46     		mov	sp, r7
 355              		.cfi_def_cfa_register 13
 356              		@ sp needed
 357 0036 80BD     		pop	{r7, pc}
 358              		.cfi_endproc
 359              	.LFE5:
 360              		.size	LCD_PrintString, .-LCD_PrintString
 361              		.section	.text.LCD_PutChar,"ax",%progbits
 362              		.align	2
 363              		.global	LCD_PutChar
 364              		.thumb
 365              		.thumb_func
 366              		.type	LCD_PutChar, %function
 367              	LCD_PutChar:
 368              	.LFB6:
 246:.\Generated_Source\PSoC5/LCD.c **** 
 247:.\Generated_Source\PSoC5/LCD.c **** 
 248:.\Generated_Source\PSoC5/LCD.c **** /*******************************************************************************
 249:.\Generated_Source\PSoC5/LCD.c **** *  Function Name: LCD_PutChar
 250:.\Generated_Source\PSoC5/LCD.c **** ********************************************************************************
 251:.\Generated_Source\PSoC5/LCD.c **** *
 252:.\Generated_Source\PSoC5/LCD.c **** * Summary:
 253:.\Generated_Source\PSoC5/LCD.c **** *  Writes a single character to the current cursor position of the LCD module.
 254:.\Generated_Source\PSoC5/LCD.c **** *  Custom character names (_CUSTOM_0 through
 255:.\Generated_Source\PSoC5/LCD.c **** *  _CUSTOM_7) are acceptable as inputs.
 256:.\Generated_Source\PSoC5/LCD.c **** *
 257:.\Generated_Source\PSoC5/LCD.c **** * Parameters:
 258:.\Generated_Source\PSoC5/LCD.c **** *  character:  character to be written to the LCD
ARM GAS  C:\Users\kingi\AppData\Local\Temp\ccIG4g29.s 			page 12


 259:.\Generated_Source\PSoC5/LCD.c **** *
 260:.\Generated_Source\PSoC5/LCD.c **** * Return:
 261:.\Generated_Source\PSoC5/LCD.c **** *  None.
 262:.\Generated_Source\PSoC5/LCD.c **** *
 263:.\Generated_Source\PSoC5/LCD.c **** *******************************************************************************/
 264:.\Generated_Source\PSoC5/LCD.c **** void LCD_PutChar(char8 character) 
 265:.\Generated_Source\PSoC5/LCD.c **** {
 369              		.loc 1 265 0
 370              		.cfi_startproc
 371              		@ args = 0, pretend = 0, frame = 8
 372              		@ frame_needed = 1, uses_anonymous_args = 0
 373 0000 80B5     		push	{r7, lr}
 374              		.cfi_def_cfa_offset 8
 375              		.cfi_offset 7, -8
 376              		.cfi_offset 14, -4
 377 0002 82B0     		sub	sp, sp, #8
 378              		.cfi_def_cfa_offset 16
 379 0004 00AF     		add	r7, sp, #0
 380              		.cfi_def_cfa_register 7
 381 0006 0346     		mov	r3, r0
 382 0008 FB71     		strb	r3, [r7, #7]
 266:.\Generated_Source\PSoC5/LCD.c ****     LCD_WriteData((uint8)character);
 383              		.loc 1 266 0
 384 000a FB79     		ldrb	r3, [r7, #7]	@ zero_extendqisi2
 385 000c 1846     		mov	r0, r3
 386 000e FFF7FEFF 		bl	LCD_WriteData
 267:.\Generated_Source\PSoC5/LCD.c **** }
 387              		.loc 1 267 0
 388 0012 0837     		adds	r7, r7, #8
 389              		.cfi_def_cfa_offset 8
 390 0014 BD46     		mov	sp, r7
 391              		.cfi_def_cfa_register 13
 392              		@ sp needed
 393 0016 80BD     		pop	{r7, pc}
 394              		.cfi_endproc
 395              	.LFE6:
 396              		.size	LCD_PutChar, .-LCD_PutChar
 397              		.section	.text.LCD_WriteData,"ax",%progbits
 398              		.align	2
 399              		.global	LCD_WriteData
 400              		.thumb
 401              		.thumb_func
 402              		.type	LCD_WriteData, %function
 403              	LCD_WriteData:
 404              	.LFB7:
 268:.\Generated_Source\PSoC5/LCD.c **** 
 269:.\Generated_Source\PSoC5/LCD.c **** 
 270:.\Generated_Source\PSoC5/LCD.c **** /*******************************************************************************
 271:.\Generated_Source\PSoC5/LCD.c **** *  Function Name: LCD_WriteData
 272:.\Generated_Source\PSoC5/LCD.c **** ********************************************************************************
 273:.\Generated_Source\PSoC5/LCD.c **** *
 274:.\Generated_Source\PSoC5/LCD.c **** * Summary:
 275:.\Generated_Source\PSoC5/LCD.c **** *  Writes a data byte to the LCD module's Data Display RAM.
 276:.\Generated_Source\PSoC5/LCD.c **** *
 277:.\Generated_Source\PSoC5/LCD.c **** * Parameters:
 278:.\Generated_Source\PSoC5/LCD.c **** *  dByte:  byte to be written to LCD module.
 279:.\Generated_Source\PSoC5/LCD.c **** *
ARM GAS  C:\Users\kingi\AppData\Local\Temp\ccIG4g29.s 			page 13


 280:.\Generated_Source\PSoC5/LCD.c **** * Return:
 281:.\Generated_Source\PSoC5/LCD.c **** *  None.
 282:.\Generated_Source\PSoC5/LCD.c **** *
 283:.\Generated_Source\PSoC5/LCD.c **** *******************************************************************************/
 284:.\Generated_Source\PSoC5/LCD.c **** void LCD_WriteData(uint8 dByte) 
 285:.\Generated_Source\PSoC5/LCD.c **** {
 405              		.loc 1 285 0
 406              		.cfi_startproc
 407              		@ args = 0, pretend = 0, frame = 16
 408              		@ frame_needed = 1, uses_anonymous_args = 0
 409 0000 80B5     		push	{r7, lr}
 410              		.cfi_def_cfa_offset 8
 411              		.cfi_offset 7, -8
 412              		.cfi_offset 14, -4
 413 0002 84B0     		sub	sp, sp, #16
 414              		.cfi_def_cfa_offset 24
 415 0004 00AF     		add	r7, sp, #0
 416              		.cfi_def_cfa_register 7
 417 0006 0346     		mov	r3, r0
 418 0008 FB71     		strb	r3, [r7, #7]
 286:.\Generated_Source\PSoC5/LCD.c ****     uint8 nibble;
 287:.\Generated_Source\PSoC5/LCD.c **** 
 288:.\Generated_Source\PSoC5/LCD.c ****     LCD_IsReady();
 419              		.loc 1 288 0
 420 000a FFF7FEFF 		bl	LCD_IsReady
 289:.\Generated_Source\PSoC5/LCD.c ****     nibble = dByte >> LCD_NIBBLE_SHIFT;
 421              		.loc 1 289 0
 422 000e FB79     		ldrb	r3, [r7, #7]	@ zero_extendqisi2
 423 0010 1B09     		lsrs	r3, r3, #4
 424 0012 FB73     		strb	r3, [r7, #15]
 290:.\Generated_Source\PSoC5/LCD.c **** 
 291:.\Generated_Source\PSoC5/LCD.c ****     /* Write high nibble */
 292:.\Generated_Source\PSoC5/LCD.c ****     LCD_WrDatNib(nibble);
 425              		.loc 1 292 0
 426 0014 FB7B     		ldrb	r3, [r7, #15]	@ zero_extendqisi2
 427 0016 1846     		mov	r0, r3
 428 0018 FFF7FEFF 		bl	LCD_WrDatNib
 293:.\Generated_Source\PSoC5/LCD.c **** 
 294:.\Generated_Source\PSoC5/LCD.c ****     nibble = dByte & LCD_NIBBLE_MASK;
 429              		.loc 1 294 0
 430 001c FB79     		ldrb	r3, [r7, #7]
 431 001e 03F00F03 		and	r3, r3, #15
 432 0022 FB73     		strb	r3, [r7, #15]
 295:.\Generated_Source\PSoC5/LCD.c ****     /* Write low nibble */
 296:.\Generated_Source\PSoC5/LCD.c ****     LCD_WrDatNib(nibble);
 433              		.loc 1 296 0
 434 0024 FB7B     		ldrb	r3, [r7, #15]	@ zero_extendqisi2
 435 0026 1846     		mov	r0, r3
 436 0028 FFF7FEFF 		bl	LCD_WrDatNib
 297:.\Generated_Source\PSoC5/LCD.c **** }
 437              		.loc 1 297 0
 438 002c 1037     		adds	r7, r7, #16
 439              		.cfi_def_cfa_offset 8
 440 002e BD46     		mov	sp, r7
 441              		.cfi_def_cfa_register 13
 442              		@ sp needed
 443 0030 80BD     		pop	{r7, pc}
ARM GAS  C:\Users\kingi\AppData\Local\Temp\ccIG4g29.s 			page 14


 444              		.cfi_endproc
 445              	.LFE7:
 446              		.size	LCD_WriteData, .-LCD_WriteData
 447 0032 00BF     		.section	.text.LCD_WriteControl,"ax",%progbits
 448              		.align	2
 449              		.global	LCD_WriteControl
 450              		.thumb
 451              		.thumb_func
 452              		.type	LCD_WriteControl, %function
 453              	LCD_WriteControl:
 454              	.LFB8:
 298:.\Generated_Source\PSoC5/LCD.c **** 
 299:.\Generated_Source\PSoC5/LCD.c **** 
 300:.\Generated_Source\PSoC5/LCD.c **** /*******************************************************************************
 301:.\Generated_Source\PSoC5/LCD.c **** *  Function Name: LCD_WriteControl
 302:.\Generated_Source\PSoC5/LCD.c **** ********************************************************************************
 303:.\Generated_Source\PSoC5/LCD.c **** *
 304:.\Generated_Source\PSoC5/LCD.c **** * Summary:
 305:.\Generated_Source\PSoC5/LCD.c **** *  Writes a command byte to the LCD module.
 306:.\Generated_Source\PSoC5/LCD.c **** *
 307:.\Generated_Source\PSoC5/LCD.c **** * Parameters:
 308:.\Generated_Source\PSoC5/LCD.c **** *  cByte:   byte to be written to LCD module.
 309:.\Generated_Source\PSoC5/LCD.c **** *
 310:.\Generated_Source\PSoC5/LCD.c **** * Return:
 311:.\Generated_Source\PSoC5/LCD.c **** *  None.
 312:.\Generated_Source\PSoC5/LCD.c **** *
 313:.\Generated_Source\PSoC5/LCD.c **** *******************************************************************************/
 314:.\Generated_Source\PSoC5/LCD.c **** void LCD_WriteControl(uint8 cByte) 
 315:.\Generated_Source\PSoC5/LCD.c **** {
 455              		.loc 1 315 0
 456              		.cfi_startproc
 457              		@ args = 0, pretend = 0, frame = 16
 458              		@ frame_needed = 1, uses_anonymous_args = 0
 459 0000 80B5     		push	{r7, lr}
 460              		.cfi_def_cfa_offset 8
 461              		.cfi_offset 7, -8
 462              		.cfi_offset 14, -4
 463 0002 84B0     		sub	sp, sp, #16
 464              		.cfi_def_cfa_offset 24
 465 0004 00AF     		add	r7, sp, #0
 466              		.cfi_def_cfa_register 7
 467 0006 0346     		mov	r3, r0
 468 0008 FB71     		strb	r3, [r7, #7]
 316:.\Generated_Source\PSoC5/LCD.c ****     uint8 nibble;
 317:.\Generated_Source\PSoC5/LCD.c **** 
 318:.\Generated_Source\PSoC5/LCD.c ****     LCD_IsReady();
 469              		.loc 1 318 0
 470 000a FFF7FEFF 		bl	LCD_IsReady
 319:.\Generated_Source\PSoC5/LCD.c **** 
 320:.\Generated_Source\PSoC5/LCD.c ****     nibble = cByte >> LCD_NIBBLE_SHIFT;
 471              		.loc 1 320 0
 472 000e FB79     		ldrb	r3, [r7, #7]	@ zero_extendqisi2
 473 0010 1B09     		lsrs	r3, r3, #4
 474 0012 FB73     		strb	r3, [r7, #15]
 321:.\Generated_Source\PSoC5/LCD.c ****     
 322:.\Generated_Source\PSoC5/LCD.c ****     /* WrCntrlNib(High Nibble) */
 323:.\Generated_Source\PSoC5/LCD.c ****     LCD_WrCntrlNib(nibble);
ARM GAS  C:\Users\kingi\AppData\Local\Temp\ccIG4g29.s 			page 15


 475              		.loc 1 323 0
 476 0014 FB7B     		ldrb	r3, [r7, #15]	@ zero_extendqisi2
 477 0016 1846     		mov	r0, r3
 478 0018 FFF7FEFF 		bl	LCD_WrCntrlNib
 324:.\Generated_Source\PSoC5/LCD.c ****     nibble = cByte & LCD_NIBBLE_MASK;
 479              		.loc 1 324 0
 480 001c FB79     		ldrb	r3, [r7, #7]
 481 001e 03F00F03 		and	r3, r3, #15
 482 0022 FB73     		strb	r3, [r7, #15]
 325:.\Generated_Source\PSoC5/LCD.c **** 
 326:.\Generated_Source\PSoC5/LCD.c ****     /* WrCntrlNib(Low Nibble) */
 327:.\Generated_Source\PSoC5/LCD.c ****     LCD_WrCntrlNib(nibble);
 483              		.loc 1 327 0
 484 0024 FB7B     		ldrb	r3, [r7, #15]	@ zero_extendqisi2
 485 0026 1846     		mov	r0, r3
 486 0028 FFF7FEFF 		bl	LCD_WrCntrlNib
 328:.\Generated_Source\PSoC5/LCD.c **** }
 487              		.loc 1 328 0
 488 002c 1037     		adds	r7, r7, #16
 489              		.cfi_def_cfa_offset 8
 490 002e BD46     		mov	sp, r7
 491              		.cfi_def_cfa_register 13
 492              		@ sp needed
 493 0030 80BD     		pop	{r7, pc}
 494              		.cfi_endproc
 495              	.LFE8:
 496              		.size	LCD_WriteControl, .-LCD_WriteControl
 497 0032 00BF     		.section	.text.LCD_IsReady,"ax",%progbits
 498              		.align	2
 499              		.global	LCD_IsReady
 500              		.thumb
 501              		.thumb_func
 502              		.type	LCD_IsReady, %function
 503              	LCD_IsReady:
 504              	.LFB9:
 329:.\Generated_Source\PSoC5/LCD.c **** 
 330:.\Generated_Source\PSoC5/LCD.c **** 
 331:.\Generated_Source\PSoC5/LCD.c **** /*******************************************************************************
 332:.\Generated_Source\PSoC5/LCD.c **** * Function Name: LCD_IsReady
 333:.\Generated_Source\PSoC5/LCD.c **** ********************************************************************************
 334:.\Generated_Source\PSoC5/LCD.c **** *
 335:.\Generated_Source\PSoC5/LCD.c **** * Summary:
 336:.\Generated_Source\PSoC5/LCD.c **** *  Polls LCD until the ready bit is set.
 337:.\Generated_Source\PSoC5/LCD.c **** *
 338:.\Generated_Source\PSoC5/LCD.c **** * Parameters:
 339:.\Generated_Source\PSoC5/LCD.c **** *  None.
 340:.\Generated_Source\PSoC5/LCD.c **** *
 341:.\Generated_Source\PSoC5/LCD.c **** * Return:
 342:.\Generated_Source\PSoC5/LCD.c **** *  None.
 343:.\Generated_Source\PSoC5/LCD.c **** *
 344:.\Generated_Source\PSoC5/LCD.c **** * Note:
 345:.\Generated_Source\PSoC5/LCD.c **** *  Changes pins to High-Z.
 346:.\Generated_Source\PSoC5/LCD.c **** *
 347:.\Generated_Source\PSoC5/LCD.c **** *******************************************************************************/
 348:.\Generated_Source\PSoC5/LCD.c **** void LCD_IsReady(void) 
 349:.\Generated_Source\PSoC5/LCD.c **** {
 505              		.loc 1 349 0
ARM GAS  C:\Users\kingi\AppData\Local\Temp\ccIG4g29.s 			page 16


 506              		.cfi_startproc
 507              		@ args = 0, pretend = 0, frame = 8
 508              		@ frame_needed = 1, uses_anonymous_args = 0
 509 0000 80B5     		push	{r7, lr}
 510              		.cfi_def_cfa_offset 8
 511              		.cfi_offset 7, -8
 512              		.cfi_offset 14, -4
 513 0002 82B0     		sub	sp, sp, #8
 514              		.cfi_def_cfa_offset 16
 515 0004 00AF     		add	r7, sp, #0
 516              		.cfi_def_cfa_register 7
 350:.\Generated_Source\PSoC5/LCD.c ****     uint8 value;
 351:.\Generated_Source\PSoC5/LCD.c **** 
 352:.\Generated_Source\PSoC5/LCD.c ****     /* Clear the LCD port*/
 353:.\Generated_Source\PSoC5/LCD.c ****     LCD_PORT_DR_REG &= ((uint8)(~LCD_PORT_MASK));
 517              		.loc 1 353 0
 518 0006 4F4A     		ldr	r2, .L29
 519 0008 4E4B     		ldr	r3, .L29
 520 000a 1B78     		ldrb	r3, [r3]
 521 000c DBB2     		uxtb	r3, r3
 522 000e 23F07F03 		bic	r3, r3, #127
 523 0012 DBB2     		uxtb	r3, r3
 524 0014 1370     		strb	r3, [r2]
 354:.\Generated_Source\PSoC5/LCD.c **** 
 355:.\Generated_Source\PSoC5/LCD.c ****     /* PSoC4 has a bit different port/pin organization for setting Drive Modes than
 356:.\Generated_Source\PSoC5/LCD.c ****     * PSoC3/5.
 357:.\Generated_Source\PSoC5/LCD.c ****     */
 358:.\Generated_Source\PSoC5/LCD.c ****     #if (CY_PSOC4)
 359:.\Generated_Source\PSoC5/LCD.c ****         
 360:.\Generated_Source\PSoC5/LCD.c ****         /* Mask off data pins to clear old values out */
 361:.\Generated_Source\PSoC5/LCD.c ****         value = LCD_PORT_PC_REG & ((uint32) (~ LCD_DM_DATA_MASK));
 362:.\Generated_Source\PSoC5/LCD.c ****         /* Load in high Z values for data pins, others unchanged */
 363:.\Generated_Source\PSoC5/LCD.c ****         LCD_PORT_PC_REG = value | LCD_HIGH_Z_DATA_DM;
 364:.\Generated_Source\PSoC5/LCD.c **** 
 365:.\Generated_Source\PSoC5/LCD.c ****     #else
 366:.\Generated_Source\PSoC5/LCD.c ****     
 367:.\Generated_Source\PSoC5/LCD.c ****         /* Change Port to High-Z Status on data pins */
 368:.\Generated_Source\PSoC5/LCD.c **** 
 369:.\Generated_Source\PSoC5/LCD.c ****         /* Mask off data pins to clear old values out */
 370:.\Generated_Source\PSoC5/LCD.c ****         value = LCD_PORT_DM0_REG & ((uint8)(~LCD_DATA_MASK));
 525              		.loc 1 370 0
 526 0016 4C4B     		ldr	r3, .L29+4
 527 0018 1B78     		ldrb	r3, [r3]
 528 001a DBB2     		uxtb	r3, r3
 529 001c 23F00F03 		bic	r3, r3, #15
 530 0020 FB71     		strb	r3, [r7, #7]
 371:.\Generated_Source\PSoC5/LCD.c ****         /* Load in high Z values for data pins, others unchanged */
 372:.\Generated_Source\PSoC5/LCD.c ****         LCD_PORT_DM0_REG = value | (LCD_HIGH_Z_DM0 & LCD_DATA_MASK);
 531              		.loc 1 372 0
 532 0022 494A     		ldr	r2, .L29+4
 533 0024 FB79     		ldrb	r3, [r7, #7]
 534 0026 43F00F03 		orr	r3, r3, #15
 535 002a DBB2     		uxtb	r3, r3
 536 002c 1370     		strb	r3, [r2]
 373:.\Generated_Source\PSoC5/LCD.c **** 
 374:.\Generated_Source\PSoC5/LCD.c ****         /* Mask off data pins to clear old values out */
 375:.\Generated_Source\PSoC5/LCD.c ****         value = LCD_PORT_DM1_REG & ((uint8)(~LCD_DATA_MASK));
ARM GAS  C:\Users\kingi\AppData\Local\Temp\ccIG4g29.s 			page 17


 537              		.loc 1 375 0
 538 002e 474B     		ldr	r3, .L29+8
 539 0030 1B78     		ldrb	r3, [r3]
 540 0032 DBB2     		uxtb	r3, r3
 541 0034 23F00F03 		bic	r3, r3, #15
 542 0038 FB71     		strb	r3, [r7, #7]
 376:.\Generated_Source\PSoC5/LCD.c ****         /* Load in high Z values for data pins, others unchanged */
 377:.\Generated_Source\PSoC5/LCD.c ****         LCD_PORT_DM1_REG = value;
 543              		.loc 1 377 0
 544 003a 444A     		ldr	r2, .L29+8
 545 003c FB79     		ldrb	r3, [r7, #7]
 546 003e 1370     		strb	r3, [r2]
 378:.\Generated_Source\PSoC5/LCD.c **** 
 379:.\Generated_Source\PSoC5/LCD.c ****         /* Mask off data pins to clear old values out */
 380:.\Generated_Source\PSoC5/LCD.c ****         value = LCD_PORT_DM2_REG & ((uint8)(~LCD_DATA_MASK));
 547              		.loc 1 380 0
 548 0040 434B     		ldr	r3, .L29+12
 549 0042 1B78     		ldrb	r3, [r3]
 550 0044 DBB2     		uxtb	r3, r3
 551 0046 23F00F03 		bic	r3, r3, #15
 552 004a FB71     		strb	r3, [r7, #7]
 381:.\Generated_Source\PSoC5/LCD.c ****         /* Load in high Z values for data pins, others unchanged */
 382:.\Generated_Source\PSoC5/LCD.c ****         LCD_PORT_DM2_REG = value;
 553              		.loc 1 382 0
 554 004c 404A     		ldr	r2, .L29+12
 555 004e FB79     		ldrb	r3, [r7, #7]
 556 0050 1370     		strb	r3, [r2]
 383:.\Generated_Source\PSoC5/LCD.c ****     
 384:.\Generated_Source\PSoC5/LCD.c ****     #endif /* CY_PSOC4 */
 385:.\Generated_Source\PSoC5/LCD.c ****     
 386:.\Generated_Source\PSoC5/LCD.c ****     /* Make sure RS is low */
 387:.\Generated_Source\PSoC5/LCD.c ****     LCD_PORT_DR_REG &= ((uint8)(~LCD_RS));
 557              		.loc 1 387 0
 558 0052 3C4A     		ldr	r2, .L29
 559 0054 3B4B     		ldr	r3, .L29
 560 0056 1B78     		ldrb	r3, [r3]
 561 0058 DBB2     		uxtb	r3, r3
 562 005a 23F02003 		bic	r3, r3, #32
 563 005e DBB2     		uxtb	r3, r3
 564 0060 1370     		strb	r3, [r2]
 388:.\Generated_Source\PSoC5/LCD.c **** 
 389:.\Generated_Source\PSoC5/LCD.c ****     /* Set R/W high to read */
 390:.\Generated_Source\PSoC5/LCD.c ****     LCD_PORT_DR_REG |= LCD_RW;
 565              		.loc 1 390 0
 566 0062 384A     		ldr	r2, .L29
 567 0064 374B     		ldr	r3, .L29
 568 0066 1B78     		ldrb	r3, [r3]
 569 0068 DBB2     		uxtb	r3, r3
 570 006a 43F04003 		orr	r3, r3, #64
 571 006e DBB2     		uxtb	r3, r3
 572 0070 1370     		strb	r3, [r2]
 573              	.L28:
 391:.\Generated_Source\PSoC5/LCD.c **** 
 392:.\Generated_Source\PSoC5/LCD.c ****     do
 393:.\Generated_Source\PSoC5/LCD.c ****     {
 394:.\Generated_Source\PSoC5/LCD.c ****         /* 40 ns delay required before rising Enable and 500ns between neighbour Enables */
 395:.\Generated_Source\PSoC5/LCD.c ****         CyDelayUs(0u);
ARM GAS  C:\Users\kingi\AppData\Local\Temp\ccIG4g29.s 			page 18


 574              		.loc 1 395 0 discriminator 1
 575 0072 0020     		movs	r0, #0
 576 0074 FFF7FEFF 		bl	CyDelayUs
 396:.\Generated_Source\PSoC5/LCD.c **** 
 397:.\Generated_Source\PSoC5/LCD.c ****         /* Set E high */
 398:.\Generated_Source\PSoC5/LCD.c ****         LCD_PORT_DR_REG |= LCD_E;
 577              		.loc 1 398 0 discriminator 1
 578 0078 324A     		ldr	r2, .L29
 579 007a 324B     		ldr	r3, .L29
 580 007c 1B78     		ldrb	r3, [r3]
 581 007e DBB2     		uxtb	r3, r3
 582 0080 43F01003 		orr	r3, r3, #16
 583 0084 DBB2     		uxtb	r3, r3
 584 0086 1370     		strb	r3, [r2]
 399:.\Generated_Source\PSoC5/LCD.c **** 
 400:.\Generated_Source\PSoC5/LCD.c ****         /* 360 ns delay the setup time for data pins */
 401:.\Generated_Source\PSoC5/LCD.c ****         CyDelayUs(1u);
 585              		.loc 1 401 0 discriminator 1
 586 0088 0120     		movs	r0, #1
 587 008a FFF7FEFF 		bl	CyDelayUs
 402:.\Generated_Source\PSoC5/LCD.c **** 
 403:.\Generated_Source\PSoC5/LCD.c ****         /* Get port state */
 404:.\Generated_Source\PSoC5/LCD.c ****         value = LCD_PORT_PS_REG;
 588              		.loc 1 404 0 discriminator 1
 589 008e 314B     		ldr	r3, .L29+16
 590 0090 1B78     		ldrb	r3, [r3]
 591 0092 FB71     		strb	r3, [r7, #7]
 405:.\Generated_Source\PSoC5/LCD.c **** 
 406:.\Generated_Source\PSoC5/LCD.c ****         /* Set enable low */
 407:.\Generated_Source\PSoC5/LCD.c ****         LCD_PORT_DR_REG &= ((uint8)(~LCD_E));
 592              		.loc 1 407 0 discriminator 1
 593 0094 2B4A     		ldr	r2, .L29
 594 0096 2B4B     		ldr	r3, .L29
 595 0098 1B78     		ldrb	r3, [r3]
 596 009a DBB2     		uxtb	r3, r3
 597 009c 23F01003 		bic	r3, r3, #16
 598 00a0 DBB2     		uxtb	r3, r3
 599 00a2 1370     		strb	r3, [r2]
 408:.\Generated_Source\PSoC5/LCD.c **** 
 409:.\Generated_Source\PSoC5/LCD.c ****         /* This gives a true delay between disably Enable bit and poling Ready bit */
 410:.\Generated_Source\PSoC5/LCD.c ****         CyDelayUs(0u);
 600              		.loc 1 410 0 discriminator 1
 601 00a4 0020     		movs	r0, #0
 602 00a6 FFF7FEFF 		bl	CyDelayUs
 411:.\Generated_Source\PSoC5/LCD.c **** 
 412:.\Generated_Source\PSoC5/LCD.c ****         /* Extract ready bit */
 413:.\Generated_Source\PSoC5/LCD.c ****         value &= LCD_READY_BIT;
 603              		.loc 1 413 0 discriminator 1
 604 00aa FB79     		ldrb	r3, [r7, #7]
 605 00ac 03F00803 		and	r3, r3, #8
 606 00b0 FB71     		strb	r3, [r7, #7]
 414:.\Generated_Source\PSoC5/LCD.c **** 
 415:.\Generated_Source\PSoC5/LCD.c ****         /* Set E high as we in 4-bit interface we need extra oparation */
 416:.\Generated_Source\PSoC5/LCD.c ****         LCD_PORT_DR_REG |= LCD_E;
 607              		.loc 1 416 0 discriminator 1
 608 00b2 244A     		ldr	r2, .L29
 609 00b4 234B     		ldr	r3, .L29
ARM GAS  C:\Users\kingi\AppData\Local\Temp\ccIG4g29.s 			page 19


 610 00b6 1B78     		ldrb	r3, [r3]
 611 00b8 DBB2     		uxtb	r3, r3
 612 00ba 43F01003 		orr	r3, r3, #16
 613 00be DBB2     		uxtb	r3, r3
 614 00c0 1370     		strb	r3, [r2]
 417:.\Generated_Source\PSoC5/LCD.c **** 
 418:.\Generated_Source\PSoC5/LCD.c ****         /* 360 ns delay the setup time for data pins */
 419:.\Generated_Source\PSoC5/LCD.c ****         CyDelayUs(1u);
 615              		.loc 1 419 0 discriminator 1
 616 00c2 0120     		movs	r0, #1
 617 00c4 FFF7FEFF 		bl	CyDelayUs
 420:.\Generated_Source\PSoC5/LCD.c **** 
 421:.\Generated_Source\PSoC5/LCD.c ****         /* Set enable low */
 422:.\Generated_Source\PSoC5/LCD.c ****         LCD_PORT_DR_REG &= ((uint8)(~LCD_E));
 618              		.loc 1 422 0 discriminator 1
 619 00c8 1E4A     		ldr	r2, .L29
 620 00ca 1E4B     		ldr	r3, .L29
 621 00cc 1B78     		ldrb	r3, [r3]
 622 00ce DBB2     		uxtb	r3, r3
 623 00d0 23F01003 		bic	r3, r3, #16
 624 00d4 DBB2     		uxtb	r3, r3
 625 00d6 1370     		strb	r3, [r2]
 423:.\Generated_Source\PSoC5/LCD.c **** 
 424:.\Generated_Source\PSoC5/LCD.c ****         /* Repeat until bit 4 is not zero. */
 425:.\Generated_Source\PSoC5/LCD.c **** 
 426:.\Generated_Source\PSoC5/LCD.c ****     } while (value != 0u);
 626              		.loc 1 426 0 discriminator 1
 627 00d8 FB79     		ldrb	r3, [r7, #7]	@ zero_extendqisi2
 628 00da 002B     		cmp	r3, #0
 629 00dc C9D1     		bne	.L28
 427:.\Generated_Source\PSoC5/LCD.c **** 
 428:.\Generated_Source\PSoC5/LCD.c ****     /* Set R/W low to write */
 429:.\Generated_Source\PSoC5/LCD.c ****     LCD_PORT_DR_REG &= ((uint8)(~LCD_RW));
 630              		.loc 1 429 0
 631 00de 194A     		ldr	r2, .L29
 632 00e0 184B     		ldr	r3, .L29
 633 00e2 1B78     		ldrb	r3, [r3]
 634 00e4 DBB2     		uxtb	r3, r3
 635 00e6 23F04003 		bic	r3, r3, #64
 636 00ea DBB2     		uxtb	r3, r3
 637 00ec 1370     		strb	r3, [r2]
 430:.\Generated_Source\PSoC5/LCD.c **** 
 431:.\Generated_Source\PSoC5/LCD.c ****     /* Clear the LCD port*/
 432:.\Generated_Source\PSoC5/LCD.c ****     LCD_PORT_DR_REG &= ((uint8)(~LCD_PORT_MASK));
 638              		.loc 1 432 0
 639 00ee 154A     		ldr	r2, .L29
 640 00f0 144B     		ldr	r3, .L29
 641 00f2 1B78     		ldrb	r3, [r3]
 642 00f4 DBB2     		uxtb	r3, r3
 643 00f6 23F07F03 		bic	r3, r3, #127
 644 00fa DBB2     		uxtb	r3, r3
 645 00fc 1370     		strb	r3, [r2]
 433:.\Generated_Source\PSoC5/LCD.c **** 
 434:.\Generated_Source\PSoC5/LCD.c ****     #if (CY_PSOC4)
 435:.\Generated_Source\PSoC5/LCD.c ****         
 436:.\Generated_Source\PSoC5/LCD.c ****         /* Mask off data pins to clear old values out */
 437:.\Generated_Source\PSoC5/LCD.c ****         value = LCD_PORT_PC_REG & ((uint32)(~ LCD_DM_DATA_MASK));
ARM GAS  C:\Users\kingi\AppData\Local\Temp\ccIG4g29.s 			page 20


 438:.\Generated_Source\PSoC5/LCD.c ****         /* Load in high Z values for data pins, others unchanged */
 439:.\Generated_Source\PSoC5/LCD.c ****         LCD_PORT_PC_REG = value | LCD_STRONG_DATA_DM;
 440:.\Generated_Source\PSoC5/LCD.c **** 
 441:.\Generated_Source\PSoC5/LCD.c ****     #else
 442:.\Generated_Source\PSoC5/LCD.c **** 
 443:.\Generated_Source\PSoC5/LCD.c ****         /* Change Port to Output (Strong) on data pins */
 444:.\Generated_Source\PSoC5/LCD.c ****         /* Mask off data pins to clear high z values out. Configure data pins 
 445:.\Generated_Source\PSoC5/LCD.c ****         * to Strong Drive, others unchanged.
 446:.\Generated_Source\PSoC5/LCD.c ****         */
 447:.\Generated_Source\PSoC5/LCD.c ****         LCD_PORT_DM0_REG &= ((uint8)(~LCD_DATA_MASK));
 646              		.loc 1 447 0
 647 00fe 124A     		ldr	r2, .L29+4
 648 0100 114B     		ldr	r3, .L29+4
 649 0102 1B78     		ldrb	r3, [r3]
 650 0104 DBB2     		uxtb	r3, r3
 651 0106 23F00F03 		bic	r3, r3, #15
 652 010a DBB2     		uxtb	r3, r3
 653 010c 1370     		strb	r3, [r2]
 448:.\Generated_Source\PSoC5/LCD.c ****         /* Mask off data pins to clear high z values out */
 449:.\Generated_Source\PSoC5/LCD.c ****         value = LCD_PORT_DM1_REG & ((uint8)(~LCD_DATA_MASK));
 654              		.loc 1 449 0
 655 010e 0F4B     		ldr	r3, .L29+8
 656 0110 1B78     		ldrb	r3, [r3]
 657 0112 DBB2     		uxtb	r3, r3
 658 0114 23F00F03 		bic	r3, r3, #15
 659 0118 FB71     		strb	r3, [r7, #7]
 450:.\Generated_Source\PSoC5/LCD.c ****         /* Configure data pins to Strong Drive, others unchanged */
 451:.\Generated_Source\PSoC5/LCD.c ****         LCD_PORT_DM1_REG = value | (LCD_STRONG_DM1 & LCD_DATA_MASK);
 660              		.loc 1 451 0
 661 011a 0C4A     		ldr	r2, .L29+8
 662 011c FB79     		ldrb	r3, [r7, #7]
 663 011e 43F00F03 		orr	r3, r3, #15
 664 0122 DBB2     		uxtb	r3, r3
 665 0124 1370     		strb	r3, [r2]
 452:.\Generated_Source\PSoC5/LCD.c **** 
 453:.\Generated_Source\PSoC5/LCD.c ****         /* Mask off data pins to clear high z values out */
 454:.\Generated_Source\PSoC5/LCD.c ****         value = LCD_PORT_DM2_REG & ((uint8)(~LCD_DATA_MASK));
 666              		.loc 1 454 0
 667 0126 0A4B     		ldr	r3, .L29+12
 668 0128 1B78     		ldrb	r3, [r3]
 669 012a DBB2     		uxtb	r3, r3
 670 012c 23F00F03 		bic	r3, r3, #15
 671 0130 FB71     		strb	r3, [r7, #7]
 455:.\Generated_Source\PSoC5/LCD.c ****         /* Configure data pins to Strong Drive, others unchanged */
 456:.\Generated_Source\PSoC5/LCD.c ****         LCD_PORT_DM2_REG = value | (LCD_STRONG_DM2 & LCD_DATA_MASK);
 672              		.loc 1 456 0
 673 0132 074A     		ldr	r2, .L29+12
 674 0134 FB79     		ldrb	r3, [r7, #7]
 675 0136 43F00F03 		orr	r3, r3, #15
 676 013a DBB2     		uxtb	r3, r3
 677 013c 1370     		strb	r3, [r2]
 457:.\Generated_Source\PSoC5/LCD.c ****     
 458:.\Generated_Source\PSoC5/LCD.c ****     #endif /* CY_PSOC4 */
 459:.\Generated_Source\PSoC5/LCD.c **** }
 678              		.loc 1 459 0
 679 013e 0837     		adds	r7, r7, #8
 680              		.cfi_def_cfa_offset 8
ARM GAS  C:\Users\kingi\AppData\Local\Temp\ccIG4g29.s 			page 21


 681 0140 BD46     		mov	sp, r7
 682              		.cfi_def_cfa_register 13
 683              		@ sp needed
 684 0142 80BD     		pop	{r7, pc}
 685              	.L30:
 686              		.align	2
 687              	.L29:
 688 0144 20510040 		.word	1073762592
 689 0148 22510040 		.word	1073762594
 690 014c 23510040 		.word	1073762595
 691 0150 24510040 		.word	1073762596
 692 0154 21510040 		.word	1073762593
 693              		.cfi_endproc
 694              	.LFE9:
 695              		.size	LCD_IsReady, .-LCD_IsReady
 696              		.section	.text.LCD_WrDatNib,"ax",%progbits
 697              		.align	2
 698              		.thumb
 699              		.thumb_func
 700              		.type	LCD_WrDatNib, %function
 701              	LCD_WrDatNib:
 702              	.LFB10:
 460:.\Generated_Source\PSoC5/LCD.c **** 
 461:.\Generated_Source\PSoC5/LCD.c **** 
 462:.\Generated_Source\PSoC5/LCD.c **** /*******************************************************************************
 463:.\Generated_Source\PSoC5/LCD.c **** *  Function Name: LCD_WrDatNib
 464:.\Generated_Source\PSoC5/LCD.c **** ********************************************************************************
 465:.\Generated_Source\PSoC5/LCD.c **** *
 466:.\Generated_Source\PSoC5/LCD.c **** * Summary:
 467:.\Generated_Source\PSoC5/LCD.c **** *  Writes a data nibble to the LCD module.
 468:.\Generated_Source\PSoC5/LCD.c **** *
 469:.\Generated_Source\PSoC5/LCD.c **** * Parameters:
 470:.\Generated_Source\PSoC5/LCD.c **** *  nibble:  byte containing nibble in least significant nibble to be written
 471:.\Generated_Source\PSoC5/LCD.c **** *           to LCD module.
 472:.\Generated_Source\PSoC5/LCD.c **** *
 473:.\Generated_Source\PSoC5/LCD.c **** * Return:
 474:.\Generated_Source\PSoC5/LCD.c **** *  None.
 475:.\Generated_Source\PSoC5/LCD.c **** *
 476:.\Generated_Source\PSoC5/LCD.c **** *******************************************************************************/
 477:.\Generated_Source\PSoC5/LCD.c **** static void LCD_WrDatNib(uint8 nibble) 
 478:.\Generated_Source\PSoC5/LCD.c **** {
 703              		.loc 1 478 0
 704              		.cfi_startproc
 705              		@ args = 0, pretend = 0, frame = 8
 706              		@ frame_needed = 1, uses_anonymous_args = 0
 707 0000 80B5     		push	{r7, lr}
 708              		.cfi_def_cfa_offset 8
 709              		.cfi_offset 7, -8
 710              		.cfi_offset 14, -4
 711 0002 82B0     		sub	sp, sp, #8
 712              		.cfi_def_cfa_offset 16
 713 0004 00AF     		add	r7, sp, #0
 714              		.cfi_def_cfa_register 7
 715 0006 0346     		mov	r3, r0
 716 0008 FB71     		strb	r3, [r7, #7]
 479:.\Generated_Source\PSoC5/LCD.c ****     LCD_IsReady();
 717              		.loc 1 479 0
ARM GAS  C:\Users\kingi\AppData\Local\Temp\ccIG4g29.s 			page 22


 718 000a FFF7FEFF 		bl	LCD_IsReady
 480:.\Generated_Source\PSoC5/LCD.c **** 
 481:.\Generated_Source\PSoC5/LCD.c ****     /* RS shoul be low to select data register */
 482:.\Generated_Source\PSoC5/LCD.c ****     LCD_PORT_DR_REG |= LCD_RS;
 719              		.loc 1 482 0
 720 000e 184A     		ldr	r2, .L32
 721 0010 174B     		ldr	r3, .L32
 722 0012 1B78     		ldrb	r3, [r3]
 723 0014 DBB2     		uxtb	r3, r3
 724 0016 43F02003 		orr	r3, r3, #32
 725 001a DBB2     		uxtb	r3, r3
 726 001c 1370     		strb	r3, [r2]
 483:.\Generated_Source\PSoC5/LCD.c ****     /* Reset RW for write operation */
 484:.\Generated_Source\PSoC5/LCD.c ****     LCD_PORT_DR_REG &= ((uint8)(~LCD_RW));
 727              		.loc 1 484 0
 728 001e 144A     		ldr	r2, .L32
 729 0020 134B     		ldr	r3, .L32
 730 0022 1B78     		ldrb	r3, [r3]
 731 0024 DBB2     		uxtb	r3, r3
 732 0026 23F04003 		bic	r3, r3, #64
 733 002a DBB2     		uxtb	r3, r3
 734 002c 1370     		strb	r3, [r2]
 485:.\Generated_Source\PSoC5/LCD.c **** 
 486:.\Generated_Source\PSoC5/LCD.c ****     /* Two following lines of code will provide us with 40ns delay */
 487:.\Generated_Source\PSoC5/LCD.c ****     /* Clear data pins */
 488:.\Generated_Source\PSoC5/LCD.c ****     LCD_PORT_DR_REG &= ((uint8)(~LCD_DATA_MASK));
 735              		.loc 1 488 0
 736 002e 104A     		ldr	r2, .L32
 737 0030 0F4B     		ldr	r3, .L32
 738 0032 1B78     		ldrb	r3, [r3]
 739 0034 DBB2     		uxtb	r3, r3
 740 0036 23F00F03 		bic	r3, r3, #15
 741 003a DBB2     		uxtb	r3, r3
 742 003c 1370     		strb	r3, [r2]
 489:.\Generated_Source\PSoC5/LCD.c **** 
 490:.\Generated_Source\PSoC5/LCD.c ****     /* Write in data, bring E high*/
 491:.\Generated_Source\PSoC5/LCD.c ****     #if(0u != LCD_PORT_SHIFT) /* MISRA forbids shift by 0 so need to handle that */
 492:.\Generated_Source\PSoC5/LCD.c ****         LCD_PORT_DR_REG |= 
 493:.\Generated_Source\PSoC5/LCD.c ****             (LCD_E | ((uint8)(((uint8) nibble) << LCD_PORT_SHIFT)));
 494:.\Generated_Source\PSoC5/LCD.c ****     #else
 495:.\Generated_Source\PSoC5/LCD.c ****         LCD_PORT_DR_REG |= (LCD_E | nibble);
 743              		.loc 1 495 0
 744 003e 0C49     		ldr	r1, .L32
 745 0040 0B4B     		ldr	r3, .L32
 746 0042 1B78     		ldrb	r3, [r3]
 747 0044 DAB2     		uxtb	r2, r3
 748 0046 FB79     		ldrb	r3, [r7, #7]
 749 0048 1343     		orrs	r3, r3, r2
 750 004a DBB2     		uxtb	r3, r3
 751 004c 43F01003 		orr	r3, r3, #16
 752 0050 DBB2     		uxtb	r3, r3
 753 0052 0B70     		strb	r3, [r1]
 496:.\Generated_Source\PSoC5/LCD.c ****     #endif /* (0u != LCD_PORT_SHIFT) */
 497:.\Generated_Source\PSoC5/LCD.c **** 
 498:.\Generated_Source\PSoC5/LCD.c ****     /* Minimum of 230 ns delay */
 499:.\Generated_Source\PSoC5/LCD.c ****     CyDelayUs(1u);
 754              		.loc 1 499 0
ARM GAS  C:\Users\kingi\AppData\Local\Temp\ccIG4g29.s 			page 23


 755 0054 0120     		movs	r0, #1
 756 0056 FFF7FEFF 		bl	CyDelayUs
 500:.\Generated_Source\PSoC5/LCD.c **** 
 501:.\Generated_Source\PSoC5/LCD.c ****     LCD_PORT_DR_REG &= ((uint8)(~LCD_E));
 757              		.loc 1 501 0
 758 005a 054A     		ldr	r2, .L32
 759 005c 044B     		ldr	r3, .L32
 760 005e 1B78     		ldrb	r3, [r3]
 761 0060 DBB2     		uxtb	r3, r3
 762 0062 23F01003 		bic	r3, r3, #16
 763 0066 DBB2     		uxtb	r3, r3
 764 0068 1370     		strb	r3, [r2]
 502:.\Generated_Source\PSoC5/LCD.c **** }
 765              		.loc 1 502 0
 766 006a 0837     		adds	r7, r7, #8
 767              		.cfi_def_cfa_offset 8
 768 006c BD46     		mov	sp, r7
 769              		.cfi_def_cfa_register 13
 770              		@ sp needed
 771 006e 80BD     		pop	{r7, pc}
 772              	.L33:
 773              		.align	2
 774              	.L32:
 775 0070 20510040 		.word	1073762592
 776              		.cfi_endproc
 777              	.LFE10:
 778              		.size	LCD_WrDatNib, .-LCD_WrDatNib
 779              		.section	.text.LCD_WrCntrlNib,"ax",%progbits
 780              		.align	2
 781              		.thumb
 782              		.thumb_func
 783              		.type	LCD_WrCntrlNib, %function
 784              	LCD_WrCntrlNib:
 785              	.LFB11:
 503:.\Generated_Source\PSoC5/LCD.c **** 
 504:.\Generated_Source\PSoC5/LCD.c **** 
 505:.\Generated_Source\PSoC5/LCD.c **** /*******************************************************************************
 506:.\Generated_Source\PSoC5/LCD.c **** *  Function Name: LCD_WrCntrlNib
 507:.\Generated_Source\PSoC5/LCD.c **** ********************************************************************************
 508:.\Generated_Source\PSoC5/LCD.c **** *
 509:.\Generated_Source\PSoC5/LCD.c **** * Summary:
 510:.\Generated_Source\PSoC5/LCD.c **** *  Writes a control nibble to the LCD module.
 511:.\Generated_Source\PSoC5/LCD.c **** *
 512:.\Generated_Source\PSoC5/LCD.c **** * Parameters:
 513:.\Generated_Source\PSoC5/LCD.c **** *  nibble:  byte containing nibble in least significant nibble to be written
 514:.\Generated_Source\PSoC5/LCD.c **** *           to LCD module.
 515:.\Generated_Source\PSoC5/LCD.c **** *
 516:.\Generated_Source\PSoC5/LCD.c **** * Return:
 517:.\Generated_Source\PSoC5/LCD.c **** *  None.
 518:.\Generated_Source\PSoC5/LCD.c **** *
 519:.\Generated_Source\PSoC5/LCD.c **** *******************************************************************************/
 520:.\Generated_Source\PSoC5/LCD.c **** static void LCD_WrCntrlNib(uint8 nibble) 
 521:.\Generated_Source\PSoC5/LCD.c **** {
 786              		.loc 1 521 0
 787              		.cfi_startproc
 788              		@ args = 0, pretend = 0, frame = 8
 789              		@ frame_needed = 1, uses_anonymous_args = 0
ARM GAS  C:\Users\kingi\AppData\Local\Temp\ccIG4g29.s 			page 24


 790 0000 80B5     		push	{r7, lr}
 791              		.cfi_def_cfa_offset 8
 792              		.cfi_offset 7, -8
 793              		.cfi_offset 14, -4
 794 0002 82B0     		sub	sp, sp, #8
 795              		.cfi_def_cfa_offset 16
 796 0004 00AF     		add	r7, sp, #0
 797              		.cfi_def_cfa_register 7
 798 0006 0346     		mov	r3, r0
 799 0008 FB71     		strb	r3, [r7, #7]
 522:.\Generated_Source\PSoC5/LCD.c ****     /* RS and RW shoul be low to select instruction register and  write operation respectively */
 523:.\Generated_Source\PSoC5/LCD.c ****     LCD_PORT_DR_REG &= ((uint8)(~(LCD_RS | LCD_RW)));
 800              		.loc 1 523 0
 801 000a 144A     		ldr	r2, .L35
 802 000c 134B     		ldr	r3, .L35
 803 000e 1B78     		ldrb	r3, [r3]
 804 0010 DBB2     		uxtb	r3, r3
 805 0012 23F06003 		bic	r3, r3, #96
 806 0016 DBB2     		uxtb	r3, r3
 807 0018 1370     		strb	r3, [r2]
 524:.\Generated_Source\PSoC5/LCD.c **** 
 525:.\Generated_Source\PSoC5/LCD.c ****     /* Two following lines of code will give provide ua with 40ns delay */
 526:.\Generated_Source\PSoC5/LCD.c ****     /* Clear data pins */
 527:.\Generated_Source\PSoC5/LCD.c ****     LCD_PORT_DR_REG &= ((uint8)(~LCD_DATA_MASK));
 808              		.loc 1 527 0
 809 001a 104A     		ldr	r2, .L35
 810 001c 0F4B     		ldr	r3, .L35
 811 001e 1B78     		ldrb	r3, [r3]
 812 0020 DBB2     		uxtb	r3, r3
 813 0022 23F00F03 		bic	r3, r3, #15
 814 0026 DBB2     		uxtb	r3, r3
 815 0028 1370     		strb	r3, [r2]
 528:.\Generated_Source\PSoC5/LCD.c **** 
 529:.\Generated_Source\PSoC5/LCD.c ****     /* Write control data and set enable signal */
 530:.\Generated_Source\PSoC5/LCD.c ****     #if(0u != LCD_PORT_SHIFT) /* MISRA forbids shift by 0 so need to handle that */
 531:.\Generated_Source\PSoC5/LCD.c ****         LCD_PORT_DR_REG |= 
 532:.\Generated_Source\PSoC5/LCD.c ****             (LCD_E | ((uint8)(((uint8) nibble) << LCD_PORT_SHIFT)));
 533:.\Generated_Source\PSoC5/LCD.c ****     #else
 534:.\Generated_Source\PSoC5/LCD.c ****         LCD_PORT_DR_REG |= (LCD_E | nibble);
 816              		.loc 1 534 0
 817 002a 0C49     		ldr	r1, .L35
 818 002c 0B4B     		ldr	r3, .L35
 819 002e 1B78     		ldrb	r3, [r3]
 820 0030 DAB2     		uxtb	r2, r3
 821 0032 FB79     		ldrb	r3, [r7, #7]
 822 0034 1343     		orrs	r3, r3, r2
 823 0036 DBB2     		uxtb	r3, r3
 824 0038 43F01003 		orr	r3, r3, #16
 825 003c DBB2     		uxtb	r3, r3
 826 003e 0B70     		strb	r3, [r1]
 535:.\Generated_Source\PSoC5/LCD.c ****     #endif /* (0u != LCD_PORT_SHIFT) */
 536:.\Generated_Source\PSoC5/LCD.c **** 
 537:.\Generated_Source\PSoC5/LCD.c ****     /* Minimum of 230 ns delay */
 538:.\Generated_Source\PSoC5/LCD.c ****     CyDelayUs(1u);
 827              		.loc 1 538 0
 828 0040 0120     		movs	r0, #1
 829 0042 FFF7FEFF 		bl	CyDelayUs
ARM GAS  C:\Users\kingi\AppData\Local\Temp\ccIG4g29.s 			page 25


 539:.\Generated_Source\PSoC5/LCD.c **** 
 540:.\Generated_Source\PSoC5/LCD.c ****     LCD_PORT_DR_REG &= ((uint8)(~LCD_E));
 830              		.loc 1 540 0
 831 0046 054A     		ldr	r2, .L35
 832 0048 044B     		ldr	r3, .L35
 833 004a 1B78     		ldrb	r3, [r3]
 834 004c DBB2     		uxtb	r3, r3
 835 004e 23F01003 		bic	r3, r3, #16
 836 0052 DBB2     		uxtb	r3, r3
 837 0054 1370     		strb	r3, [r2]
 541:.\Generated_Source\PSoC5/LCD.c **** }
 838              		.loc 1 541 0
 839 0056 0837     		adds	r7, r7, #8
 840              		.cfi_def_cfa_offset 8
 841 0058 BD46     		mov	sp, r7
 842              		.cfi_def_cfa_register 13
 843              		@ sp needed
 844 005a 80BD     		pop	{r7, pc}
 845              	.L36:
 846              		.align	2
 847              	.L35:
 848 005c 20510040 		.word	1073762592
 849              		.cfi_endproc
 850              	.LFE11:
 851              		.size	LCD_WrCntrlNib, .-LCD_WrCntrlNib
 852              		.section	.text.LCD_PrintInt8,"ax",%progbits
 853              		.align	2
 854              		.global	LCD_PrintInt8
 855              		.thumb
 856              		.thumb_func
 857              		.type	LCD_PrintInt8, %function
 858              	LCD_PrintInt8:
 859              	.LFB12:
 542:.\Generated_Source\PSoC5/LCD.c **** 
 543:.\Generated_Source\PSoC5/LCD.c **** 
 544:.\Generated_Source\PSoC5/LCD.c **** #if(LCD_CONVERSION_ROUTINES == 1u)
 545:.\Generated_Source\PSoC5/LCD.c **** 
 546:.\Generated_Source\PSoC5/LCD.c ****     /*******************************************************************************
 547:.\Generated_Source\PSoC5/LCD.c ****     *  Function Name: LCD_PrintInt8
 548:.\Generated_Source\PSoC5/LCD.c ****     ********************************************************************************
 549:.\Generated_Source\PSoC5/LCD.c ****     *
 550:.\Generated_Source\PSoC5/LCD.c ****     * Summary:
 551:.\Generated_Source\PSoC5/LCD.c ****     *  Print a byte as two ASCII characters.
 552:.\Generated_Source\PSoC5/LCD.c ****     *
 553:.\Generated_Source\PSoC5/LCD.c ****     * Parameters:
 554:.\Generated_Source\PSoC5/LCD.c ****     *  value:  The byte to be printed out as ASCII characters.
 555:.\Generated_Source\PSoC5/LCD.c ****     *
 556:.\Generated_Source\PSoC5/LCD.c ****     * Return:
 557:.\Generated_Source\PSoC5/LCD.c ****     *  None.
 558:.\Generated_Source\PSoC5/LCD.c ****     *
 559:.\Generated_Source\PSoC5/LCD.c ****     *******************************************************************************/
 560:.\Generated_Source\PSoC5/LCD.c ****     void LCD_PrintInt8(uint8 value) 
 561:.\Generated_Source\PSoC5/LCD.c ****     {
 860              		.loc 1 561 0
 861              		.cfi_startproc
 862              		@ args = 0, pretend = 0, frame = 8
 863              		@ frame_needed = 1, uses_anonymous_args = 0
ARM GAS  C:\Users\kingi\AppData\Local\Temp\ccIG4g29.s 			page 26


 864 0000 80B5     		push	{r7, lr}
 865              		.cfi_def_cfa_offset 8
 866              		.cfi_offset 7, -8
 867              		.cfi_offset 14, -4
 868 0002 82B0     		sub	sp, sp, #8
 869              		.cfi_def_cfa_offset 16
 870 0004 00AF     		add	r7, sp, #0
 871              		.cfi_def_cfa_register 7
 872 0006 0346     		mov	r3, r0
 873 0008 FB71     		strb	r3, [r7, #7]
 562:.\Generated_Source\PSoC5/LCD.c ****         static char8 const CYCODE LCD_hex[16u] = "0123456789ABCDEF";
 563:.\Generated_Source\PSoC5/LCD.c ****         
 564:.\Generated_Source\PSoC5/LCD.c ****         LCD_PutChar((char8) LCD_hex[value >> LCD_BYTE_UPPER_NIBBLE_SHIFT]);
 874              		.loc 1 564 0
 875 000a FB79     		ldrb	r3, [r7, #7]	@ zero_extendqisi2
 876 000c 1B09     		lsrs	r3, r3, #4
 877 000e DBB2     		uxtb	r3, r3
 878 0010 1A46     		mov	r2, r3
 879 0012 084B     		ldr	r3, .L38
 880 0014 9B5C     		ldrb	r3, [r3, r2]	@ zero_extendqisi2
 881 0016 1846     		mov	r0, r3
 882 0018 FFF7FEFF 		bl	LCD_PutChar
 565:.\Generated_Source\PSoC5/LCD.c ****         LCD_PutChar((char8) LCD_hex[value & LCD_BYTE_LOWER_NIBBLE_MASK]);
 883              		.loc 1 565 0
 884 001c FB79     		ldrb	r3, [r7, #7]	@ zero_extendqisi2
 885 001e 03F00F03 		and	r3, r3, #15
 886 0022 044A     		ldr	r2, .L38
 887 0024 D35C     		ldrb	r3, [r2, r3]	@ zero_extendqisi2
 888 0026 1846     		mov	r0, r3
 889 0028 FFF7FEFF 		bl	LCD_PutChar
 566:.\Generated_Source\PSoC5/LCD.c ****     }
 890              		.loc 1 566 0
 891 002c 0837     		adds	r7, r7, #8
 892              		.cfi_def_cfa_offset 8
 893 002e BD46     		mov	sp, r7
 894              		.cfi_def_cfa_register 13
 895              		@ sp needed
 896 0030 80BD     		pop	{r7, pc}
 897              	.L39:
 898 0032 00BF     		.align	2
 899              	.L38:
 900 0034 00000000 		.word	LCD_hex.4904
 901              		.cfi_endproc
 902              	.LFE12:
 903              		.size	LCD_PrintInt8, .-LCD_PrintInt8
 904              		.section	.text.LCD_PrintInt16,"ax",%progbits
 905              		.align	2
 906              		.global	LCD_PrintInt16
 907              		.thumb
 908              		.thumb_func
 909              		.type	LCD_PrintInt16, %function
 910              	LCD_PrintInt16:
 911              	.LFB13:
 567:.\Generated_Source\PSoC5/LCD.c **** 
 568:.\Generated_Source\PSoC5/LCD.c **** 
 569:.\Generated_Source\PSoC5/LCD.c ****     /*******************************************************************************
 570:.\Generated_Source\PSoC5/LCD.c ****     *  Function Name: LCD_PrintInt16
ARM GAS  C:\Users\kingi\AppData\Local\Temp\ccIG4g29.s 			page 27


 571:.\Generated_Source\PSoC5/LCD.c ****     ********************************************************************************
 572:.\Generated_Source\PSoC5/LCD.c ****     *
 573:.\Generated_Source\PSoC5/LCD.c ****     * Summary:
 574:.\Generated_Source\PSoC5/LCD.c ****     *  Print a uint16 as four ASCII characters.
 575:.\Generated_Source\PSoC5/LCD.c ****     *
 576:.\Generated_Source\PSoC5/LCD.c ****     * Parameters:
 577:.\Generated_Source\PSoC5/LCD.c ****     *  value:   The uint16 to be printed out as ASCII characters.
 578:.\Generated_Source\PSoC5/LCD.c ****     *
 579:.\Generated_Source\PSoC5/LCD.c ****     * Return:
 580:.\Generated_Source\PSoC5/LCD.c ****     *  None.
 581:.\Generated_Source\PSoC5/LCD.c ****     *
 582:.\Generated_Source\PSoC5/LCD.c ****     *******************************************************************************/
 583:.\Generated_Source\PSoC5/LCD.c ****     void LCD_PrintInt16(uint16 value) 
 584:.\Generated_Source\PSoC5/LCD.c ****     {
 912              		.loc 1 584 0
 913              		.cfi_startproc
 914              		@ args = 0, pretend = 0, frame = 8
 915              		@ frame_needed = 1, uses_anonymous_args = 0
 916 0000 80B5     		push	{r7, lr}
 917              		.cfi_def_cfa_offset 8
 918              		.cfi_offset 7, -8
 919              		.cfi_offset 14, -4
 920 0002 82B0     		sub	sp, sp, #8
 921              		.cfi_def_cfa_offset 16
 922 0004 00AF     		add	r7, sp, #0
 923              		.cfi_def_cfa_register 7
 924 0006 0346     		mov	r3, r0
 925 0008 FB80     		strh	r3, [r7, #6]	@ movhi
 585:.\Generated_Source\PSoC5/LCD.c ****         LCD_PrintInt8((uint8)(value >> LCD_U16_UPPER_BYTE_SHIFT));
 926              		.loc 1 585 0
 927 000a FB88     		ldrh	r3, [r7, #6]
 928 000c 1B0A     		lsrs	r3, r3, #8
 929 000e 9BB2     		uxth	r3, r3
 930 0010 DBB2     		uxtb	r3, r3
 931 0012 1846     		mov	r0, r3
 932 0014 FFF7FEFF 		bl	LCD_PrintInt8
 586:.\Generated_Source\PSoC5/LCD.c ****         LCD_PrintInt8((uint8)(value & LCD_U16_LOWER_BYTE_MASK));
 933              		.loc 1 586 0
 934 0018 FB88     		ldrh	r3, [r7, #6]	@ movhi
 935 001a DBB2     		uxtb	r3, r3
 936 001c 1846     		mov	r0, r3
 937 001e FFF7FEFF 		bl	LCD_PrintInt8
 587:.\Generated_Source\PSoC5/LCD.c ****     }
 938              		.loc 1 587 0
 939 0022 0837     		adds	r7, r7, #8
 940              		.cfi_def_cfa_offset 8
 941 0024 BD46     		mov	sp, r7
 942              		.cfi_def_cfa_register 13
 943              		@ sp needed
 944 0026 80BD     		pop	{r7, pc}
 945              		.cfi_endproc
 946              	.LFE13:
 947              		.size	LCD_PrintInt16, .-LCD_PrintInt16
 948              		.section	.text.LCD_PrintNumber,"ax",%progbits
 949              		.align	2
 950              		.global	LCD_PrintNumber
 951              		.thumb
ARM GAS  C:\Users\kingi\AppData\Local\Temp\ccIG4g29.s 			page 28


 952              		.thumb_func
 953              		.type	LCD_PrintNumber, %function
 954              	LCD_PrintNumber:
 955              	.LFB14:
 588:.\Generated_Source\PSoC5/LCD.c **** 
 589:.\Generated_Source\PSoC5/LCD.c **** 
 590:.\Generated_Source\PSoC5/LCD.c ****     /*******************************************************************************
 591:.\Generated_Source\PSoC5/LCD.c ****     *  Function Name: LCD_PrintNumber
 592:.\Generated_Source\PSoC5/LCD.c ****     ********************************************************************************
 593:.\Generated_Source\PSoC5/LCD.c ****     *
 594:.\Generated_Source\PSoC5/LCD.c ****     * Summary:
 595:.\Generated_Source\PSoC5/LCD.c ****     *  Print an uint32 value as a left-justified decimal value.
 596:.\Generated_Source\PSoC5/LCD.c ****     *
 597:.\Generated_Source\PSoC5/LCD.c ****     * Parameters:
 598:.\Generated_Source\PSoC5/LCD.c ****     *  value:  The byte to be printed out as ASCII characters.
 599:.\Generated_Source\PSoC5/LCD.c ****     *
 600:.\Generated_Source\PSoC5/LCD.c ****     * Return:
 601:.\Generated_Source\PSoC5/LCD.c ****     *  None.
 602:.\Generated_Source\PSoC5/LCD.c ****     *
 603:.\Generated_Source\PSoC5/LCD.c ****     *******************************************************************************/
 604:.\Generated_Source\PSoC5/LCD.c ****     void LCD_PrintNumber(uint16 value) 
 605:.\Generated_Source\PSoC5/LCD.c ****     {
 956              		.loc 1 605 0
 957              		.cfi_startproc
 958              		@ args = 0, pretend = 0, frame = 24
 959              		@ frame_needed = 1, uses_anonymous_args = 0
 960 0000 80B5     		push	{r7, lr}
 961              		.cfi_def_cfa_offset 8
 962              		.cfi_offset 7, -8
 963              		.cfi_offset 14, -4
 964 0002 86B0     		sub	sp, sp, #24
 965              		.cfi_def_cfa_offset 32
 966 0004 00AF     		add	r7, sp, #0
 967              		.cfi_def_cfa_register 7
 968 0006 0346     		mov	r3, r0
 969 0008 FB80     		strh	r3, [r7, #6]	@ movhi
 606:.\Generated_Source\PSoC5/LCD.c **** 
 607:.\Generated_Source\PSoC5/LCD.c ****         char8 number[LCD_NUMBER_OF_REMAINDERS];
 608:.\Generated_Source\PSoC5/LCD.c ****         char8 temp[LCD_NUMBER_OF_REMAINDERS];
 609:.\Generated_Source\PSoC5/LCD.c **** 
 610:.\Generated_Source\PSoC5/LCD.c ****         uint8 digIndex = 0u;
 970              		.loc 1 610 0
 971 000a 0023     		movs	r3, #0
 972 000c FB75     		strb	r3, [r7, #23]
 611:.\Generated_Source\PSoC5/LCD.c ****         uint8 numDigits;
 612:.\Generated_Source\PSoC5/LCD.c **** 
 613:.\Generated_Source\PSoC5/LCD.c ****         /* Load these in reverse order */
 614:.\Generated_Source\PSoC5/LCD.c ****         while(value >= LCD_TEN)
 973              		.loc 1 614 0
 974 000e 1CE0     		b	.L42
 975              	.L43:
 615:.\Generated_Source\PSoC5/LCD.c ****         {
 616:.\Generated_Source\PSoC5/LCD.c ****             temp[digIndex] = (value % LCD_TEN) + '0';
 976              		.loc 1 616 0
 977 0010 F87D     		ldrb	r0, [r7, #23]	@ zero_extendqisi2
 978 0012 FA88     		ldrh	r2, [r7, #6]
 979 0014 2F4B     		ldr	r3, .L46
ARM GAS  C:\Users\kingi\AppData\Local\Temp\ccIG4g29.s 			page 29


 980 0016 A3FB0213 		umull	r1, r3, r3, r2
 981 001a D908     		lsrs	r1, r3, #3
 982 001c 0B46     		mov	r3, r1
 983 001e 9B00     		lsls	r3, r3, #2
 984 0020 0B44     		add	r3, r3, r1
 985 0022 5B00     		lsls	r3, r3, #1
 986 0024 D31A     		subs	r3, r2, r3
 987 0026 9BB2     		uxth	r3, r3
 988 0028 DBB2     		uxtb	r3, r3
 989 002a 3033     		adds	r3, r3, #48
 990 002c DAB2     		uxtb	r2, r3
 991 002e 07F11803 		add	r3, r7, #24
 992 0032 0344     		add	r3, r3, r0
 993 0034 03F8102C 		strb	r2, [r3, #-16]
 617:.\Generated_Source\PSoC5/LCD.c ****             value /= LCD_TEN;
 994              		.loc 1 617 0
 995 0038 FB88     		ldrh	r3, [r7, #6]
 996 003a 264A     		ldr	r2, .L46
 997 003c A2FB0323 		umull	r2, r3, r2, r3
 998 0040 DB08     		lsrs	r3, r3, #3
 999 0042 FB80     		strh	r3, [r7, #6]	@ movhi
 618:.\Generated_Source\PSoC5/LCD.c ****             digIndex++;
 1000              		.loc 1 618 0
 1001 0044 FB7D     		ldrb	r3, [r7, #23]	@ zero_extendqisi2
 1002 0046 0133     		adds	r3, r3, #1
 1003 0048 FB75     		strb	r3, [r7, #23]
 1004              	.L42:
 614:.\Generated_Source\PSoC5/LCD.c ****         {
 1005              		.loc 1 614 0
 1006 004a FB88     		ldrh	r3, [r7, #6]
 1007 004c 092B     		cmp	r3, #9
 1008 004e DFD8     		bhi	.L43
 619:.\Generated_Source\PSoC5/LCD.c ****         }
 620:.\Generated_Source\PSoC5/LCD.c **** 
 621:.\Generated_Source\PSoC5/LCD.c ****         temp[digIndex] = (value % LCD_TEN) + '0';
 1009              		.loc 1 621 0
 1010 0050 F87D     		ldrb	r0, [r7, #23]	@ zero_extendqisi2
 1011 0052 FA88     		ldrh	r2, [r7, #6]
 1012 0054 1F4B     		ldr	r3, .L46
 1013 0056 A3FB0213 		umull	r1, r3, r3, r2
 1014 005a D908     		lsrs	r1, r3, #3
 1015 005c 0B46     		mov	r3, r1
 1016 005e 9B00     		lsls	r3, r3, #2
 1017 0060 0B44     		add	r3, r3, r1
 1018 0062 5B00     		lsls	r3, r3, #1
 1019 0064 D31A     		subs	r3, r2, r3
 1020 0066 9BB2     		uxth	r3, r3
 1021 0068 DBB2     		uxtb	r3, r3
 1022 006a 3033     		adds	r3, r3, #48
 1023 006c DAB2     		uxtb	r2, r3
 1024 006e 07F11803 		add	r3, r7, #24
 1025 0072 0344     		add	r3, r3, r0
 1026 0074 03F8102C 		strb	r2, [r3, #-16]
 622:.\Generated_Source\PSoC5/LCD.c ****         numDigits = digIndex;
 1027              		.loc 1 622 0
 1028 0078 FB7D     		ldrb	r3, [r7, #23]
 1029 007a BB75     		strb	r3, [r7, #22]
ARM GAS  C:\Users\kingi\AppData\Local\Temp\ccIG4g29.s 			page 30


 623:.\Generated_Source\PSoC5/LCD.c **** 
 624:.\Generated_Source\PSoC5/LCD.c ****         /* While index is greater than or equal to zero copy number
 625:.\Generated_Source\PSoC5/LCD.c ****         * from temporary array to number[].
 626:.\Generated_Source\PSoC5/LCD.c ****         */
 627:.\Generated_Source\PSoC5/LCD.c ****         while (digIndex != 0u)
 1030              		.loc 1 627 0
 1031 007c 10E0     		b	.L44
 1032              	.L45:
 628:.\Generated_Source\PSoC5/LCD.c ****         {
 629:.\Generated_Source\PSoC5/LCD.c ****             number[numDigits - digIndex] = temp[digIndex];
 1033              		.loc 1 629 0
 1034 007e BA7D     		ldrb	r2, [r7, #22]	@ zero_extendqisi2
 1035 0080 FB7D     		ldrb	r3, [r7, #23]	@ zero_extendqisi2
 1036 0082 D31A     		subs	r3, r2, r3
 1037 0084 FA7D     		ldrb	r2, [r7, #23]	@ zero_extendqisi2
 1038 0086 07F11801 		add	r1, r7, #24
 1039 008a 0A44     		add	r2, r2, r1
 1040 008c 12F8102C 		ldrb	r2, [r2, #-16]	@ zero_extendqisi2
 1041 0090 07F11801 		add	r1, r7, #24
 1042 0094 0B44     		add	r3, r3, r1
 1043 0096 03F8082C 		strb	r2, [r3, #-8]
 630:.\Generated_Source\PSoC5/LCD.c ****             digIndex--;
 1044              		.loc 1 630 0
 1045 009a FB7D     		ldrb	r3, [r7, #23]	@ zero_extendqisi2
 1046 009c 013B     		subs	r3, r3, #1
 1047 009e FB75     		strb	r3, [r7, #23]
 1048              	.L44:
 627:.\Generated_Source\PSoC5/LCD.c ****         {
 1049              		.loc 1 627 0
 1050 00a0 FB7D     		ldrb	r3, [r7, #23]	@ zero_extendqisi2
 1051 00a2 002B     		cmp	r3, #0
 1052 00a4 EBD1     		bne	.L45
 631:.\Generated_Source\PSoC5/LCD.c ****         }
 632:.\Generated_Source\PSoC5/LCD.c ****         
 633:.\Generated_Source\PSoC5/LCD.c ****         /* Copy last digit */
 634:.\Generated_Source\PSoC5/LCD.c ****         number[numDigits] = temp[0u];
 1053              		.loc 1 634 0
 1054 00a6 BB7D     		ldrb	r3, [r7, #22]	@ zero_extendqisi2
 1055 00a8 3A7A     		ldrb	r2, [r7, #8]	@ zero_extendqisi2
 1056 00aa 07F11801 		add	r1, r7, #24
 1057 00ae 0B44     		add	r3, r3, r1
 1058 00b0 03F8082C 		strb	r2, [r3, #-8]
 635:.\Generated_Source\PSoC5/LCD.c **** 
 636:.\Generated_Source\PSoC5/LCD.c ****         /* Null Termination */
 637:.\Generated_Source\PSoC5/LCD.c ****         number[numDigits + 1u] = (char8) '\0';
 1059              		.loc 1 637 0
 1060 00b4 BB7D     		ldrb	r3, [r7, #22]	@ zero_extendqisi2
 1061 00b6 0133     		adds	r3, r3, #1
 1062 00b8 07F11802 		add	r2, r7, #24
 1063 00bc 1344     		add	r3, r3, r2
 1064 00be 0022     		movs	r2, #0
 1065 00c0 03F8082C 		strb	r2, [r3, #-8]
 638:.\Generated_Source\PSoC5/LCD.c **** 
 639:.\Generated_Source\PSoC5/LCD.c ****         /* Print out number */
 640:.\Generated_Source\PSoC5/LCD.c ****         LCD_PrintString(&number[0u]);
 1066              		.loc 1 640 0
 1067 00c4 07F11003 		add	r3, r7, #16
ARM GAS  C:\Users\kingi\AppData\Local\Temp\ccIG4g29.s 			page 31


 1068 00c8 1846     		mov	r0, r3
 1069 00ca FFF7FEFF 		bl	LCD_PrintString
 641:.\Generated_Source\PSoC5/LCD.c ****     }
 1070              		.loc 1 641 0
 1071 00ce 1837     		adds	r7, r7, #24
 1072              		.cfi_def_cfa_offset 8
 1073 00d0 BD46     		mov	sp, r7
 1074              		.cfi_def_cfa_register 13
 1075              		@ sp needed
 1076 00d2 80BD     		pop	{r7, pc}
 1077              	.L47:
 1078              		.align	2
 1079              	.L46:
 1080 00d4 CDCCCCCC 		.word	-858993459
 1081              		.cfi_endproc
 1082              	.LFE14:
 1083              		.size	LCD_PrintNumber, .-LCD_PrintNumber
 1084              		.section	.rodata
 1085              		.align	2
 1086              		.type	LCD_hex.4904, %object
 1087              		.size	LCD_hex.4904, 16
 1088              	LCD_hex.4904:
 1089 0000 30313233 		.ascii	"0123456789ABCDEF"
 1089      34353637 
 1089      38394142 
 1089      43444546 
 1090              		.text
 1091              	.Letext0:
 1092              		.file 2 ".\\Generated_Source\\PSoC5\\cytypes.h"
 1093              		.section	.debug_info,"",%progbits
 1094              	.Ldebug_info0:
 1095 0000 83030000 		.4byte	0x383
 1096 0004 0400     		.2byte	0x4
 1097 0006 00000000 		.4byte	.Ldebug_abbrev0
 1098 000a 04       		.byte	0x4
 1099 000b 01       		.uleb128 0x1
 1100 000c 1A010000 		.4byte	.LASF48
 1101 0010 01       		.byte	0x1
 1102 0011 B0020000 		.4byte	.LASF49
 1103 0015 EA000000 		.4byte	.LASF50
 1104 0019 00000000 		.4byte	.Ldebug_ranges0+0
 1105 001d 00000000 		.4byte	0
 1106 0021 00000000 		.4byte	.Ldebug_line0
 1107 0025 02       		.uleb128 0x2
 1108 0026 04       		.byte	0x4
 1109 0027 05       		.byte	0x5
 1110 0028 696E7400 		.ascii	"int\000"
 1111 002c 03       		.uleb128 0x3
 1112 002d 04       		.byte	0x4
 1113 002e 07       		.byte	0x7
 1114 002f E6010000 		.4byte	.LASF0
 1115 0033 03       		.uleb128 0x3
 1116 0034 01       		.byte	0x1
 1117 0035 06       		.byte	0x6
 1118 0036 8E020000 		.4byte	.LASF1
 1119 003a 03       		.uleb128 0x3
 1120 003b 01       		.byte	0x1
ARM GAS  C:\Users\kingi\AppData\Local\Temp\ccIG4g29.s 			page 32


 1121 003c 08       		.byte	0x8
 1122 003d A1000000 		.4byte	.LASF2
 1123 0041 03       		.uleb128 0x3
 1124 0042 02       		.byte	0x2
 1125 0043 05       		.byte	0x5
 1126 0044 73020000 		.4byte	.LASF3
 1127 0048 03       		.uleb128 0x3
 1128 0049 02       		.byte	0x2
 1129 004a 07       		.byte	0x7
 1130 004b 4D000000 		.4byte	.LASF4
 1131 004f 03       		.uleb128 0x3
 1132 0050 04       		.byte	0x4
 1133 0051 05       		.byte	0x5
 1134 0052 85020000 		.4byte	.LASF5
 1135 0056 03       		.uleb128 0x3
 1136 0057 04       		.byte	0x4
 1137 0058 07       		.byte	0x7
 1138 0059 BE000000 		.4byte	.LASF6
 1139 005d 03       		.uleb128 0x3
 1140 005e 08       		.byte	0x8
 1141 005f 05       		.byte	0x5
 1142 0060 47020000 		.4byte	.LASF7
 1143 0064 03       		.uleb128 0x3
 1144 0065 08       		.byte	0x8
 1145 0066 07       		.byte	0x7
 1146 0067 F3010000 		.4byte	.LASF8
 1147 006b 03       		.uleb128 0x3
 1148 006c 04       		.byte	0x4
 1149 006d 07       		.byte	0x7
 1150 006e 38020000 		.4byte	.LASF9
 1151 0072 03       		.uleb128 0x3
 1152 0073 01       		.byte	0x1
 1153 0074 08       		.byte	0x8
 1154 0075 55020000 		.4byte	.LASF10
 1155 0079 04       		.uleb128 0x4
 1156 007a D5000000 		.4byte	.LASF11
 1157 007e 02       		.byte	0x2
 1158 007f 3801     		.2byte	0x138
 1159 0081 3A000000 		.4byte	0x3a
 1160 0085 04       		.uleb128 0x4
 1161 0086 CA010000 		.4byte	.LASF12
 1162 008a 02       		.byte	0x2
 1163 008b 3901     		.2byte	0x139
 1164 008d 48000000 		.4byte	0x48
 1165 0091 03       		.uleb128 0x3
 1166 0092 04       		.byte	0x4
 1167 0093 04       		.byte	0x4
 1168 0094 91000000 		.4byte	.LASF13
 1169 0098 03       		.uleb128 0x3
 1170 0099 08       		.byte	0x8
 1171 009a 04       		.byte	0x4
 1172 009b A8010000 		.4byte	.LASF14
 1173 009f 04       		.uleb128 0x4
 1174 00a0 41020000 		.4byte	.LASF15
 1175 00a4 02       		.byte	0x2
 1176 00a5 4901     		.2byte	0x149
 1177 00a7 72000000 		.4byte	0x72
ARM GAS  C:\Users\kingi\AppData\Local\Temp\ccIG4g29.s 			page 33


 1178 00ab 04       		.uleb128 0x4
 1179 00ac AF000000 		.4byte	.LASF16
 1180 00b0 02       		.byte	0x2
 1181 00b1 E201     		.2byte	0x1e2
 1182 00b3 B7000000 		.4byte	0xb7
 1183 00b7 05       		.uleb128 0x5
 1184 00b8 79000000 		.4byte	0x79
 1185 00bc 06       		.uleb128 0x6
 1186 00bd 6A020000 		.4byte	.LASF17
 1187 00c1 01       		.byte	0x1
 1188 00c2 37       		.byte	0x37
 1189 00c3 00000000 		.4byte	.LFB0
 1190 00c7 6C000000 		.4byte	.LFE0-.LFB0
 1191 00cb 01       		.uleb128 0x1
 1192 00cc 9C       		.byte	0x9c
 1193 00cd 06       		.uleb128 0x6
 1194 00ce AF010000 		.4byte	.LASF18
 1195 00d2 01       		.byte	0x1
 1196 00d3 68       		.byte	0x68
 1197 00d4 00000000 		.4byte	.LFB1
 1198 00d8 18000000 		.4byte	.LFE1-.LFB1
 1199 00dc 01       		.uleb128 0x1
 1200 00dd 9C       		.byte	0x9c
 1201 00de 06       		.uleb128 0x6
 1202 00df 97000000 		.4byte	.LASF19
 1203 00e3 01       		.byte	0x1
 1204 00e4 89       		.byte	0x89
 1205 00e5 00000000 		.4byte	.LFB2
 1206 00e9 20000000 		.4byte	.LFE2-.LFB2
 1207 00ed 01       		.uleb128 0x1
 1208 00ee 9C       		.byte	0x9c
 1209 00ef 06       		.uleb128 0x6
 1210 00f0 2A000000 		.4byte	.LASF20
 1211 00f4 01       		.byte	0x1
 1212 00f5 A8       		.byte	0xa8
 1213 00f6 00000000 		.4byte	.LFB3
 1214 00fa 18000000 		.4byte	.LFE3-.LFB3
 1215 00fe 01       		.uleb128 0x1
 1216 00ff 9C       		.byte	0x9c
 1217 0100 07       		.uleb128 0x7
 1218 0101 18020000 		.4byte	.LASF22
 1219 0105 01       		.byte	0x1
 1220 0106 C4       		.byte	0xc4
 1221 0107 00000000 		.4byte	.LFB4
 1222 010b 6C000000 		.4byte	.LFE4-.LFB4
 1223 010f 01       		.uleb128 0x1
 1224 0110 9C       		.byte	0x9c
 1225 0111 32010000 		.4byte	0x132
 1226 0115 08       		.uleb128 0x8
 1227 0116 726F7700 		.ascii	"row\000"
 1228 011a 01       		.byte	0x1
 1229 011b C4       		.byte	0xc4
 1230 011c 79000000 		.4byte	0x79
 1231 0120 02       		.uleb128 0x2
 1232 0121 91       		.byte	0x91
 1233 0122 77       		.sleb128 -9
 1234 0123 09       		.uleb128 0x9
ARM GAS  C:\Users\kingi\AppData\Local\Temp\ccIG4g29.s 			page 34


 1235 0124 7C000000 		.4byte	.LASF21
 1236 0128 01       		.byte	0x1
 1237 0129 C4       		.byte	0xc4
 1238 012a 79000000 		.4byte	0x79
 1239 012e 02       		.uleb128 0x2
 1240 012f 91       		.byte	0x91
 1241 0130 76       		.sleb128 -10
 1242 0131 00       		.byte	0
 1243 0132 07       		.uleb128 0x7
 1244 0133 BA010000 		.4byte	.LASF23
 1245 0137 01       		.byte	0x1
 1246 0138 E9       		.byte	0xe9
 1247 0139 00000000 		.4byte	.LFB5
 1248 013d 38000000 		.4byte	.LFE5-.LFB5
 1249 0141 01       		.uleb128 0x1
 1250 0142 9C       		.byte	0x9c
 1251 0143 72010000 		.4byte	0x172
 1252 0147 09       		.uleb128 0x9
 1253 0148 68000000 		.4byte	.LASF24
 1254 014c 01       		.byte	0x1
 1255 014d E9       		.byte	0xe9
 1256 014e 72010000 		.4byte	0x172
 1257 0152 02       		.uleb128 0x2
 1258 0153 91       		.byte	0x91
 1259 0154 6C       		.sleb128 -20
 1260 0155 0A       		.uleb128 0xa
 1261 0156 60000000 		.4byte	.LASF25
 1262 015a 01       		.byte	0x1
 1263 015b EB       		.byte	0xeb
 1264 015c 79000000 		.4byte	0x79
 1265 0160 02       		.uleb128 0x2
 1266 0161 91       		.byte	0x91
 1267 0162 77       		.sleb128 -9
 1268 0163 0A       		.uleb128 0xa
 1269 0164 7D020000 		.4byte	.LASF26
 1270 0168 01       		.byte	0x1
 1271 0169 EC       		.byte	0xec
 1272 016a 9F000000 		.4byte	0x9f
 1273 016e 02       		.uleb128 0x2
 1274 016f 91       		.byte	0x91
 1275 0170 76       		.sleb128 -10
 1276 0171 00       		.byte	0
 1277 0172 0B       		.uleb128 0xb
 1278 0173 04       		.byte	0x4
 1279 0174 78010000 		.4byte	0x178
 1280 0178 0C       		.uleb128 0xc
 1281 0179 9F000000 		.4byte	0x9f
 1282 017d 0D       		.uleb128 0xd
 1283 017e 25020000 		.4byte	.LASF27
 1284 0182 01       		.byte	0x1
 1285 0183 0801     		.2byte	0x108
 1286 0185 00000000 		.4byte	.LFB6
 1287 0189 18000000 		.4byte	.LFE6-.LFB6
 1288 018d 01       		.uleb128 0x1
 1289 018e 9C       		.byte	0x9c
 1290 018f A3010000 		.4byte	0x1a3
 1291 0193 0E       		.uleb128 0xe
ARM GAS  C:\Users\kingi\AppData\Local\Temp\ccIG4g29.s 			page 35


 1292 0194 20000000 		.4byte	.LASF28
 1293 0198 01       		.byte	0x1
 1294 0199 0801     		.2byte	0x108
 1295 019b 9F000000 		.4byte	0x9f
 1296 019f 02       		.uleb128 0x2
 1297 01a0 91       		.byte	0x91
 1298 01a1 77       		.sleb128 -9
 1299 01a2 00       		.byte	0
 1300 01a3 0D       		.uleb128 0xd
 1301 01a4 83000000 		.4byte	.LASF29
 1302 01a8 01       		.byte	0x1
 1303 01a9 1C01     		.2byte	0x11c
 1304 01ab 00000000 		.4byte	.LFB7
 1305 01af 32000000 		.4byte	.LFE7-.LFB7
 1306 01b3 01       		.uleb128 0x1
 1307 01b4 9C       		.byte	0x9c
 1308 01b5 D8010000 		.4byte	0x1d8
 1309 01b9 0E       		.uleb128 0xe
 1310 01ba 9A020000 		.4byte	.LASF30
 1311 01be 01       		.byte	0x1
 1312 01bf 1C01     		.2byte	0x11c
 1313 01c1 79000000 		.4byte	0x79
 1314 01c5 02       		.uleb128 0x2
 1315 01c6 91       		.byte	0x91
 1316 01c7 6F       		.sleb128 -17
 1317 01c8 0F       		.uleb128 0xf
 1318 01c9 D5020000 		.4byte	.LASF31
 1319 01cd 01       		.byte	0x1
 1320 01ce 1E01     		.2byte	0x11e
 1321 01d0 79000000 		.4byte	0x79
 1322 01d4 02       		.uleb128 0x2
 1323 01d5 91       		.byte	0x91
 1324 01d6 77       		.sleb128 -9
 1325 01d7 00       		.byte	0
 1326 01d8 0D       		.uleb128 0xd
 1327 01d9 0F000000 		.4byte	.LASF32
 1328 01dd 01       		.byte	0x1
 1329 01de 3A01     		.2byte	0x13a
 1330 01e0 00000000 		.4byte	.LFB8
 1331 01e4 32000000 		.4byte	.LFE8-.LFB8
 1332 01e8 01       		.uleb128 0x1
 1333 01e9 9C       		.byte	0x9c
 1334 01ea 0D020000 		.4byte	0x20d
 1335 01ee 0E       		.uleb128 0xe
 1336 01ef CF020000 		.4byte	.LASF33
 1337 01f3 01       		.byte	0x1
 1338 01f4 3A01     		.2byte	0x13a
 1339 01f6 79000000 		.4byte	0x79
 1340 01fa 02       		.uleb128 0x2
 1341 01fb 91       		.byte	0x91
 1342 01fc 6F       		.sleb128 -17
 1343 01fd 0F       		.uleb128 0xf
 1344 01fe D5020000 		.4byte	.LASF31
 1345 0202 01       		.byte	0x1
 1346 0203 3C01     		.2byte	0x13c
 1347 0205 79000000 		.4byte	0x79
 1348 0209 02       		.uleb128 0x2
ARM GAS  C:\Users\kingi\AppData\Local\Temp\ccIG4g29.s 			page 36


 1349 020a 91       		.byte	0x91
 1350 020b 77       		.sleb128 -9
 1351 020c 00       		.byte	0
 1352 020d 0D       		.uleb128 0xd
 1353 020e D1010000 		.4byte	.LASF34
 1354 0212 01       		.byte	0x1
 1355 0213 5C01     		.2byte	0x15c
 1356 0215 00000000 		.4byte	.LFB9
 1357 0219 58010000 		.4byte	.LFE9-.LFB9
 1358 021d 01       		.uleb128 0x1
 1359 021e 9C       		.byte	0x9c
 1360 021f 33020000 		.4byte	0x233
 1361 0223 0F       		.uleb128 0xf
 1362 0224 33000000 		.4byte	.LASF35
 1363 0228 01       		.byte	0x1
 1364 0229 5E01     		.2byte	0x15e
 1365 022b 79000000 		.4byte	0x79
 1366 022f 02       		.uleb128 0x2
 1367 0230 91       		.byte	0x91
 1368 0231 77       		.sleb128 -9
 1369 0232 00       		.byte	0
 1370 0233 10       		.uleb128 0x10
 1371 0234 6F000000 		.4byte	.LASF36
 1372 0238 01       		.byte	0x1
 1373 0239 DD01     		.2byte	0x1dd
 1374 023b 00000000 		.4byte	.LFB10
 1375 023f 74000000 		.4byte	.LFE10-.LFB10
 1376 0243 01       		.uleb128 0x1
 1377 0244 9C       		.byte	0x9c
 1378 0245 59020000 		.4byte	0x259
 1379 0249 0E       		.uleb128 0xe
 1380 024a D5020000 		.4byte	.LASF31
 1381 024e 01       		.byte	0x1
 1382 024f DD01     		.2byte	0x1dd
 1383 0251 79000000 		.4byte	0x79
 1384 0255 02       		.uleb128 0x2
 1385 0256 91       		.byte	0x91
 1386 0257 77       		.sleb128 -9
 1387 0258 00       		.byte	0
 1388 0259 10       		.uleb128 0x10
 1389 025a DB000000 		.4byte	.LASF37
 1390 025e 01       		.byte	0x1
 1391 025f 0802     		.2byte	0x208
 1392 0261 00000000 		.4byte	.LFB11
 1393 0265 60000000 		.4byte	.LFE11-.LFB11
 1394 0269 01       		.uleb128 0x1
 1395 026a 9C       		.byte	0x9c
 1396 026b 7F020000 		.4byte	0x27f
 1397 026f 0E       		.uleb128 0xe
 1398 0270 D5020000 		.4byte	.LASF31
 1399 0274 01       		.byte	0x1
 1400 0275 0802     		.2byte	0x208
 1401 0277 79000000 		.4byte	0x79
 1402 027b 02       		.uleb128 0x2
 1403 027c 91       		.byte	0x91
 1404 027d 77       		.sleb128 -9
 1405 027e 00       		.byte	0
ARM GAS  C:\Users\kingi\AppData\Local\Temp\ccIG4g29.s 			page 37


 1406 027f 0D       		.uleb128 0xd
 1407 0280 0A020000 		.4byte	.LASF38
 1408 0284 01       		.byte	0x1
 1409 0285 3002     		.2byte	0x230
 1410 0287 00000000 		.4byte	.LFB12
 1411 028b 38000000 		.4byte	.LFE12-.LFB12
 1412 028f 01       		.uleb128 0x1
 1413 0290 9C       		.byte	0x9c
 1414 0291 B7020000 		.4byte	0x2b7
 1415 0295 0E       		.uleb128 0xe
 1416 0296 33000000 		.4byte	.LASF35
 1417 029a 01       		.byte	0x1
 1418 029b 3002     		.2byte	0x230
 1419 029d 79000000 		.4byte	0x79
 1420 02a1 02       		.uleb128 0x2
 1421 02a2 91       		.byte	0x91
 1422 02a3 77       		.sleb128 -9
 1423 02a4 0F       		.uleb128 0xf
 1424 02a5 45000000 		.4byte	.LASF39
 1425 02a9 01       		.byte	0x1
 1426 02aa 3202     		.2byte	0x232
 1427 02ac C7020000 		.4byte	0x2c7
 1428 02b0 05       		.uleb128 0x5
 1429 02b1 03       		.byte	0x3
 1430 02b2 00000000 		.4byte	LCD_hex.4904
 1431 02b6 00       		.byte	0
 1432 02b7 11       		.uleb128 0x11
 1433 02b8 9F000000 		.4byte	0x9f
 1434 02bc C7020000 		.4byte	0x2c7
 1435 02c0 12       		.uleb128 0x12
 1436 02c1 6B000000 		.4byte	0x6b
 1437 02c5 0F       		.byte	0xf
 1438 02c6 00       		.byte	0
 1439 02c7 0C       		.uleb128 0xc
 1440 02c8 B7020000 		.4byte	0x2b7
 1441 02cc 0D       		.uleb128 0xd
 1442 02cd 00000000 		.4byte	.LASF40
 1443 02d1 01       		.byte	0x1
 1444 02d2 4702     		.2byte	0x247
 1445 02d4 00000000 		.4byte	.LFB13
 1446 02d8 28000000 		.4byte	.LFE13-.LFB13
 1447 02dc 01       		.uleb128 0x1
 1448 02dd 9C       		.byte	0x9c
 1449 02de F2020000 		.4byte	0x2f2
 1450 02e2 0E       		.uleb128 0xe
 1451 02e3 33000000 		.4byte	.LASF35
 1452 02e7 01       		.byte	0x1
 1453 02e8 4702     		.2byte	0x247
 1454 02ea 85000000 		.4byte	0x85
 1455 02ee 02       		.uleb128 0x2
 1456 02ef 91       		.byte	0x91
 1457 02f0 76       		.sleb128 -10
 1458 02f1 00       		.byte	0
 1459 02f2 0D       		.uleb128 0xd
 1460 02f3 A0020000 		.4byte	.LASF41
 1461 02f7 01       		.byte	0x1
 1462 02f8 5C02     		.2byte	0x25c
ARM GAS  C:\Users\kingi\AppData\Local\Temp\ccIG4g29.s 			page 38


 1463 02fa 00000000 		.4byte	.LFB14
 1464 02fe D8000000 		.4byte	.LFE14-.LFB14
 1465 0302 01       		.uleb128 0x1
 1466 0303 9C       		.byte	0x9c
 1467 0304 54030000 		.4byte	0x354
 1468 0308 0E       		.uleb128 0xe
 1469 0309 33000000 		.4byte	.LASF35
 1470 030d 01       		.byte	0x1
 1471 030e 5C02     		.2byte	0x25c
 1472 0310 85000000 		.4byte	0x85
 1473 0314 02       		.uleb128 0x2
 1474 0315 91       		.byte	0x91
 1475 0316 66       		.sleb128 -26
 1476 0317 0F       		.uleb128 0xf
 1477 0318 31020000 		.4byte	.LASF42
 1478 031c 01       		.byte	0x1
 1479 031d 5F02     		.2byte	0x25f
 1480 031f 54030000 		.4byte	0x354
 1481 0323 02       		.uleb128 0x2
 1482 0324 91       		.byte	0x91
 1483 0325 70       		.sleb128 -16
 1484 0326 0F       		.uleb128 0xf
 1485 0327 D0000000 		.4byte	.LASF43
 1486 032b 01       		.byte	0x1
 1487 032c 6002     		.2byte	0x260
 1488 032e 54030000 		.4byte	0x354
 1489 0332 02       		.uleb128 0x2
 1490 0333 91       		.byte	0x91
 1491 0334 68       		.sleb128 -24
 1492 0335 0F       		.uleb128 0xf
 1493 0336 DD010000 		.4byte	.LASF44
 1494 033a 01       		.byte	0x1
 1495 033b 6202     		.2byte	0x262
 1496 033d 79000000 		.4byte	0x79
 1497 0341 02       		.uleb128 0x2
 1498 0342 91       		.byte	0x91
 1499 0343 77       		.sleb128 -9
 1500 0344 0F       		.uleb128 0xf
 1501 0345 B4000000 		.4byte	.LASF45
 1502 0349 01       		.byte	0x1
 1503 034a 6302     		.2byte	0x263
 1504 034c 79000000 		.4byte	0x79
 1505 0350 02       		.uleb128 0x2
 1506 0351 91       		.byte	0x91
 1507 0352 76       		.sleb128 -10
 1508 0353 00       		.byte	0
 1509 0354 11       		.uleb128 0x11
 1510 0355 9F000000 		.4byte	0x9f
 1511 0359 64030000 		.4byte	0x364
 1512 035d 12       		.uleb128 0x12
 1513 035e 6B000000 		.4byte	0x6b
 1514 0362 04       		.byte	0x4
 1515 0363 00       		.byte	0
 1516 0364 13       		.uleb128 0x13
 1517 0365 39000000 		.4byte	.LASF46
 1518 0369 01       		.byte	0x1
 1519 036a 1D       		.byte	0x1d
ARM GAS  C:\Users\kingi\AppData\Local\Temp\ccIG4g29.s 			page 39


 1520 036b 79000000 		.4byte	0x79
 1521 036f 05       		.uleb128 0x5
 1522 0370 03       		.byte	0x3
 1523 0371 00000000 		.4byte	LCD_initVar
 1524 0375 13       		.uleb128 0x13
 1525 0376 5A020000 		.4byte	.LASF47
 1526 037a 01       		.byte	0x1
 1527 037b 1B       		.byte	0x1b
 1528 037c 79000000 		.4byte	0x79
 1529 0380 05       		.uleb128 0x5
 1530 0381 03       		.byte	0x3
 1531 0382 00000000 		.4byte	LCD_enableState
 1532 0386 00       		.byte	0
 1533              		.section	.debug_abbrev,"",%progbits
 1534              	.Ldebug_abbrev0:
 1535 0000 01       		.uleb128 0x1
 1536 0001 11       		.uleb128 0x11
 1537 0002 01       		.byte	0x1
 1538 0003 25       		.uleb128 0x25
 1539 0004 0E       		.uleb128 0xe
 1540 0005 13       		.uleb128 0x13
 1541 0006 0B       		.uleb128 0xb
 1542 0007 03       		.uleb128 0x3
 1543 0008 0E       		.uleb128 0xe
 1544 0009 1B       		.uleb128 0x1b
 1545 000a 0E       		.uleb128 0xe
 1546 000b 55       		.uleb128 0x55
 1547 000c 17       		.uleb128 0x17
 1548 000d 11       		.uleb128 0x11
 1549 000e 01       		.uleb128 0x1
 1550 000f 10       		.uleb128 0x10
 1551 0010 17       		.uleb128 0x17
 1552 0011 00       		.byte	0
 1553 0012 00       		.byte	0
 1554 0013 02       		.uleb128 0x2
 1555 0014 24       		.uleb128 0x24
 1556 0015 00       		.byte	0
 1557 0016 0B       		.uleb128 0xb
 1558 0017 0B       		.uleb128 0xb
 1559 0018 3E       		.uleb128 0x3e
 1560 0019 0B       		.uleb128 0xb
 1561 001a 03       		.uleb128 0x3
 1562 001b 08       		.uleb128 0x8
 1563 001c 00       		.byte	0
 1564 001d 00       		.byte	0
 1565 001e 03       		.uleb128 0x3
 1566 001f 24       		.uleb128 0x24
 1567 0020 00       		.byte	0
 1568 0021 0B       		.uleb128 0xb
 1569 0022 0B       		.uleb128 0xb
 1570 0023 3E       		.uleb128 0x3e
 1571 0024 0B       		.uleb128 0xb
 1572 0025 03       		.uleb128 0x3
 1573 0026 0E       		.uleb128 0xe
 1574 0027 00       		.byte	0
 1575 0028 00       		.byte	0
 1576 0029 04       		.uleb128 0x4
ARM GAS  C:\Users\kingi\AppData\Local\Temp\ccIG4g29.s 			page 40


 1577 002a 16       		.uleb128 0x16
 1578 002b 00       		.byte	0
 1579 002c 03       		.uleb128 0x3
 1580 002d 0E       		.uleb128 0xe
 1581 002e 3A       		.uleb128 0x3a
 1582 002f 0B       		.uleb128 0xb
 1583 0030 3B       		.uleb128 0x3b
 1584 0031 05       		.uleb128 0x5
 1585 0032 49       		.uleb128 0x49
 1586 0033 13       		.uleb128 0x13
 1587 0034 00       		.byte	0
 1588 0035 00       		.byte	0
 1589 0036 05       		.uleb128 0x5
 1590 0037 35       		.uleb128 0x35
 1591 0038 00       		.byte	0
 1592 0039 49       		.uleb128 0x49
 1593 003a 13       		.uleb128 0x13
 1594 003b 00       		.byte	0
 1595 003c 00       		.byte	0
 1596 003d 06       		.uleb128 0x6
 1597 003e 2E       		.uleb128 0x2e
 1598 003f 00       		.byte	0
 1599 0040 3F       		.uleb128 0x3f
 1600 0041 19       		.uleb128 0x19
 1601 0042 03       		.uleb128 0x3
 1602 0043 0E       		.uleb128 0xe
 1603 0044 3A       		.uleb128 0x3a
 1604 0045 0B       		.uleb128 0xb
 1605 0046 3B       		.uleb128 0x3b
 1606 0047 0B       		.uleb128 0xb
 1607 0048 27       		.uleb128 0x27
 1608 0049 19       		.uleb128 0x19
 1609 004a 11       		.uleb128 0x11
 1610 004b 01       		.uleb128 0x1
 1611 004c 12       		.uleb128 0x12
 1612 004d 06       		.uleb128 0x6
 1613 004e 40       		.uleb128 0x40
 1614 004f 18       		.uleb128 0x18
 1615 0050 9642     		.uleb128 0x2116
 1616 0052 19       		.uleb128 0x19
 1617 0053 00       		.byte	0
 1618 0054 00       		.byte	0
 1619 0055 07       		.uleb128 0x7
 1620 0056 2E       		.uleb128 0x2e
 1621 0057 01       		.byte	0x1
 1622 0058 3F       		.uleb128 0x3f
 1623 0059 19       		.uleb128 0x19
 1624 005a 03       		.uleb128 0x3
 1625 005b 0E       		.uleb128 0xe
 1626 005c 3A       		.uleb128 0x3a
 1627 005d 0B       		.uleb128 0xb
 1628 005e 3B       		.uleb128 0x3b
 1629 005f 0B       		.uleb128 0xb
 1630 0060 27       		.uleb128 0x27
 1631 0061 19       		.uleb128 0x19
 1632 0062 11       		.uleb128 0x11
 1633 0063 01       		.uleb128 0x1
ARM GAS  C:\Users\kingi\AppData\Local\Temp\ccIG4g29.s 			page 41


 1634 0064 12       		.uleb128 0x12
 1635 0065 06       		.uleb128 0x6
 1636 0066 40       		.uleb128 0x40
 1637 0067 18       		.uleb128 0x18
 1638 0068 9642     		.uleb128 0x2116
 1639 006a 19       		.uleb128 0x19
 1640 006b 01       		.uleb128 0x1
 1641 006c 13       		.uleb128 0x13
 1642 006d 00       		.byte	0
 1643 006e 00       		.byte	0
 1644 006f 08       		.uleb128 0x8
 1645 0070 05       		.uleb128 0x5
 1646 0071 00       		.byte	0
 1647 0072 03       		.uleb128 0x3
 1648 0073 08       		.uleb128 0x8
 1649 0074 3A       		.uleb128 0x3a
 1650 0075 0B       		.uleb128 0xb
 1651 0076 3B       		.uleb128 0x3b
 1652 0077 0B       		.uleb128 0xb
 1653 0078 49       		.uleb128 0x49
 1654 0079 13       		.uleb128 0x13
 1655 007a 02       		.uleb128 0x2
 1656 007b 18       		.uleb128 0x18
 1657 007c 00       		.byte	0
 1658 007d 00       		.byte	0
 1659 007e 09       		.uleb128 0x9
 1660 007f 05       		.uleb128 0x5
 1661 0080 00       		.byte	0
 1662 0081 03       		.uleb128 0x3
 1663 0082 0E       		.uleb128 0xe
 1664 0083 3A       		.uleb128 0x3a
 1665 0084 0B       		.uleb128 0xb
 1666 0085 3B       		.uleb128 0x3b
 1667 0086 0B       		.uleb128 0xb
 1668 0087 49       		.uleb128 0x49
 1669 0088 13       		.uleb128 0x13
 1670 0089 02       		.uleb128 0x2
 1671 008a 18       		.uleb128 0x18
 1672 008b 00       		.byte	0
 1673 008c 00       		.byte	0
 1674 008d 0A       		.uleb128 0xa
 1675 008e 34       		.uleb128 0x34
 1676 008f 00       		.byte	0
 1677 0090 03       		.uleb128 0x3
 1678 0091 0E       		.uleb128 0xe
 1679 0092 3A       		.uleb128 0x3a
 1680 0093 0B       		.uleb128 0xb
 1681 0094 3B       		.uleb128 0x3b
 1682 0095 0B       		.uleb128 0xb
 1683 0096 49       		.uleb128 0x49
 1684 0097 13       		.uleb128 0x13
 1685 0098 02       		.uleb128 0x2
 1686 0099 18       		.uleb128 0x18
 1687 009a 00       		.byte	0
 1688 009b 00       		.byte	0
 1689 009c 0B       		.uleb128 0xb
 1690 009d 0F       		.uleb128 0xf
ARM GAS  C:\Users\kingi\AppData\Local\Temp\ccIG4g29.s 			page 42


 1691 009e 00       		.byte	0
 1692 009f 0B       		.uleb128 0xb
 1693 00a0 0B       		.uleb128 0xb
 1694 00a1 49       		.uleb128 0x49
 1695 00a2 13       		.uleb128 0x13
 1696 00a3 00       		.byte	0
 1697 00a4 00       		.byte	0
 1698 00a5 0C       		.uleb128 0xc
 1699 00a6 26       		.uleb128 0x26
 1700 00a7 00       		.byte	0
 1701 00a8 49       		.uleb128 0x49
 1702 00a9 13       		.uleb128 0x13
 1703 00aa 00       		.byte	0
 1704 00ab 00       		.byte	0
 1705 00ac 0D       		.uleb128 0xd
 1706 00ad 2E       		.uleb128 0x2e
 1707 00ae 01       		.byte	0x1
 1708 00af 3F       		.uleb128 0x3f
 1709 00b0 19       		.uleb128 0x19
 1710 00b1 03       		.uleb128 0x3
 1711 00b2 0E       		.uleb128 0xe
 1712 00b3 3A       		.uleb128 0x3a
 1713 00b4 0B       		.uleb128 0xb
 1714 00b5 3B       		.uleb128 0x3b
 1715 00b6 05       		.uleb128 0x5
 1716 00b7 27       		.uleb128 0x27
 1717 00b8 19       		.uleb128 0x19
 1718 00b9 11       		.uleb128 0x11
 1719 00ba 01       		.uleb128 0x1
 1720 00bb 12       		.uleb128 0x12
 1721 00bc 06       		.uleb128 0x6
 1722 00bd 40       		.uleb128 0x40
 1723 00be 18       		.uleb128 0x18
 1724 00bf 9642     		.uleb128 0x2116
 1725 00c1 19       		.uleb128 0x19
 1726 00c2 01       		.uleb128 0x1
 1727 00c3 13       		.uleb128 0x13
 1728 00c4 00       		.byte	0
 1729 00c5 00       		.byte	0
 1730 00c6 0E       		.uleb128 0xe
 1731 00c7 05       		.uleb128 0x5
 1732 00c8 00       		.byte	0
 1733 00c9 03       		.uleb128 0x3
 1734 00ca 0E       		.uleb128 0xe
 1735 00cb 3A       		.uleb128 0x3a
 1736 00cc 0B       		.uleb128 0xb
 1737 00cd 3B       		.uleb128 0x3b
 1738 00ce 05       		.uleb128 0x5
 1739 00cf 49       		.uleb128 0x49
 1740 00d0 13       		.uleb128 0x13
 1741 00d1 02       		.uleb128 0x2
 1742 00d2 18       		.uleb128 0x18
 1743 00d3 00       		.byte	0
 1744 00d4 00       		.byte	0
 1745 00d5 0F       		.uleb128 0xf
 1746 00d6 34       		.uleb128 0x34
 1747 00d7 00       		.byte	0
ARM GAS  C:\Users\kingi\AppData\Local\Temp\ccIG4g29.s 			page 43


 1748 00d8 03       		.uleb128 0x3
 1749 00d9 0E       		.uleb128 0xe
 1750 00da 3A       		.uleb128 0x3a
 1751 00db 0B       		.uleb128 0xb
 1752 00dc 3B       		.uleb128 0x3b
 1753 00dd 05       		.uleb128 0x5
 1754 00de 49       		.uleb128 0x49
 1755 00df 13       		.uleb128 0x13
 1756 00e0 02       		.uleb128 0x2
 1757 00e1 18       		.uleb128 0x18
 1758 00e2 00       		.byte	0
 1759 00e3 00       		.byte	0
 1760 00e4 10       		.uleb128 0x10
 1761 00e5 2E       		.uleb128 0x2e
 1762 00e6 01       		.byte	0x1
 1763 00e7 03       		.uleb128 0x3
 1764 00e8 0E       		.uleb128 0xe
 1765 00e9 3A       		.uleb128 0x3a
 1766 00ea 0B       		.uleb128 0xb
 1767 00eb 3B       		.uleb128 0x3b
 1768 00ec 05       		.uleb128 0x5
 1769 00ed 27       		.uleb128 0x27
 1770 00ee 19       		.uleb128 0x19
 1771 00ef 11       		.uleb128 0x11
 1772 00f0 01       		.uleb128 0x1
 1773 00f1 12       		.uleb128 0x12
 1774 00f2 06       		.uleb128 0x6
 1775 00f3 40       		.uleb128 0x40
 1776 00f4 18       		.uleb128 0x18
 1777 00f5 9642     		.uleb128 0x2116
 1778 00f7 19       		.uleb128 0x19
 1779 00f8 01       		.uleb128 0x1
 1780 00f9 13       		.uleb128 0x13
 1781 00fa 00       		.byte	0
 1782 00fb 00       		.byte	0
 1783 00fc 11       		.uleb128 0x11
 1784 00fd 01       		.uleb128 0x1
 1785 00fe 01       		.byte	0x1
 1786 00ff 49       		.uleb128 0x49
 1787 0100 13       		.uleb128 0x13
 1788 0101 01       		.uleb128 0x1
 1789 0102 13       		.uleb128 0x13
 1790 0103 00       		.byte	0
 1791 0104 00       		.byte	0
 1792 0105 12       		.uleb128 0x12
 1793 0106 21       		.uleb128 0x21
 1794 0107 00       		.byte	0
 1795 0108 49       		.uleb128 0x49
 1796 0109 13       		.uleb128 0x13
 1797 010a 2F       		.uleb128 0x2f
 1798 010b 0B       		.uleb128 0xb
 1799 010c 00       		.byte	0
 1800 010d 00       		.byte	0
 1801 010e 13       		.uleb128 0x13
 1802 010f 34       		.uleb128 0x34
 1803 0110 00       		.byte	0
 1804 0111 03       		.uleb128 0x3
ARM GAS  C:\Users\kingi\AppData\Local\Temp\ccIG4g29.s 			page 44


 1805 0112 0E       		.uleb128 0xe
 1806 0113 3A       		.uleb128 0x3a
 1807 0114 0B       		.uleb128 0xb
 1808 0115 3B       		.uleb128 0x3b
 1809 0116 0B       		.uleb128 0xb
 1810 0117 49       		.uleb128 0x49
 1811 0118 13       		.uleb128 0x13
 1812 0119 3F       		.uleb128 0x3f
 1813 011a 19       		.uleb128 0x19
 1814 011b 02       		.uleb128 0x2
 1815 011c 18       		.uleb128 0x18
 1816 011d 00       		.byte	0
 1817 011e 00       		.byte	0
 1818 011f 00       		.byte	0
 1819              		.section	.debug_aranges,"",%progbits
 1820 0000 8C000000 		.4byte	0x8c
 1821 0004 0200     		.2byte	0x2
 1822 0006 00000000 		.4byte	.Ldebug_info0
 1823 000a 04       		.byte	0x4
 1824 000b 00       		.byte	0
 1825 000c 0000     		.2byte	0
 1826 000e 0000     		.2byte	0
 1827 0010 00000000 		.4byte	.LFB0
 1828 0014 6C000000 		.4byte	.LFE0-.LFB0
 1829 0018 00000000 		.4byte	.LFB1
 1830 001c 18000000 		.4byte	.LFE1-.LFB1
 1831 0020 00000000 		.4byte	.LFB2
 1832 0024 20000000 		.4byte	.LFE2-.LFB2
 1833 0028 00000000 		.4byte	.LFB3
 1834 002c 18000000 		.4byte	.LFE3-.LFB3
 1835 0030 00000000 		.4byte	.LFB4
 1836 0034 6C000000 		.4byte	.LFE4-.LFB4
 1837 0038 00000000 		.4byte	.LFB5
 1838 003c 38000000 		.4byte	.LFE5-.LFB5
 1839 0040 00000000 		.4byte	.LFB6
 1840 0044 18000000 		.4byte	.LFE6-.LFB6
 1841 0048 00000000 		.4byte	.LFB7
 1842 004c 32000000 		.4byte	.LFE7-.LFB7
 1843 0050 00000000 		.4byte	.LFB8
 1844 0054 32000000 		.4byte	.LFE8-.LFB8
 1845 0058 00000000 		.4byte	.LFB9
 1846 005c 58010000 		.4byte	.LFE9-.LFB9
 1847 0060 00000000 		.4byte	.LFB10
 1848 0064 74000000 		.4byte	.LFE10-.LFB10
 1849 0068 00000000 		.4byte	.LFB11
 1850 006c 60000000 		.4byte	.LFE11-.LFB11
 1851 0070 00000000 		.4byte	.LFB12
 1852 0074 38000000 		.4byte	.LFE12-.LFB12
 1853 0078 00000000 		.4byte	.LFB13
 1854 007c 28000000 		.4byte	.LFE13-.LFB13
 1855 0080 00000000 		.4byte	.LFB14
 1856 0084 D8000000 		.4byte	.LFE14-.LFB14
 1857 0088 00000000 		.4byte	0
 1858 008c 00000000 		.4byte	0
 1859              		.section	.debug_ranges,"",%progbits
 1860              	.Ldebug_ranges0:
 1861 0000 00000000 		.4byte	.LFB0
ARM GAS  C:\Users\kingi\AppData\Local\Temp\ccIG4g29.s 			page 45


 1862 0004 6C000000 		.4byte	.LFE0
 1863 0008 00000000 		.4byte	.LFB1
 1864 000c 18000000 		.4byte	.LFE1
 1865 0010 00000000 		.4byte	.LFB2
 1866 0014 20000000 		.4byte	.LFE2
 1867 0018 00000000 		.4byte	.LFB3
 1868 001c 18000000 		.4byte	.LFE3
 1869 0020 00000000 		.4byte	.LFB4
 1870 0024 6C000000 		.4byte	.LFE4
 1871 0028 00000000 		.4byte	.LFB5
 1872 002c 38000000 		.4byte	.LFE5
 1873 0030 00000000 		.4byte	.LFB6
 1874 0034 18000000 		.4byte	.LFE6
 1875 0038 00000000 		.4byte	.LFB7
 1876 003c 32000000 		.4byte	.LFE7
 1877 0040 00000000 		.4byte	.LFB8
 1878 0044 32000000 		.4byte	.LFE8
 1879 0048 00000000 		.4byte	.LFB9
 1880 004c 58010000 		.4byte	.LFE9
 1881 0050 00000000 		.4byte	.LFB10
 1882 0054 74000000 		.4byte	.LFE10
 1883 0058 00000000 		.4byte	.LFB11
 1884 005c 60000000 		.4byte	.LFE11
 1885 0060 00000000 		.4byte	.LFB12
 1886 0064 38000000 		.4byte	.LFE12
 1887 0068 00000000 		.4byte	.LFB13
 1888 006c 28000000 		.4byte	.LFE13
 1889 0070 00000000 		.4byte	.LFB14
 1890 0074 D8000000 		.4byte	.LFE14
 1891 0078 00000000 		.4byte	0
 1892 007c 00000000 		.4byte	0
 1893              		.section	.debug_line,"",%progbits
 1894              	.Ldebug_line0:
 1895 0000 E7010000 		.section	.debug_str,"MS",%progbits,1
 1895      02004200 
 1895      00000201 
 1895      FB0E0D00 
 1895      01010101 
 1896              	.LASF40:
 1897 0000 4C43445F 		.ascii	"LCD_PrintInt16\000"
 1897      5072696E 
 1897      74496E74 
 1897      313600
 1898              	.LASF32:
 1899 000f 4C43445F 		.ascii	"LCD_WriteControl\000"
 1899      57726974 
 1899      65436F6E 
 1899      74726F6C 
 1899      00
 1900              	.LASF28:
 1901 0020 63686172 		.ascii	"character\000"
 1901      61637465 
 1901      7200
 1902              	.LASF20:
 1903 002a 4C43445F 		.ascii	"LCD_Stop\000"
 1903      53746F70 
 1903      00
ARM GAS  C:\Users\kingi\AppData\Local\Temp\ccIG4g29.s 			page 46


 1904              	.LASF35:
 1905 0033 76616C75 		.ascii	"value\000"
 1905      6500
 1906              	.LASF46:
 1907 0039 4C43445F 		.ascii	"LCD_initVar\000"
 1907      696E6974 
 1907      56617200 
 1908              	.LASF39:
 1909 0045 4C43445F 		.ascii	"LCD_hex\000"
 1909      68657800 
 1910              	.LASF4:
 1911 004d 73686F72 		.ascii	"short unsigned int\000"
 1911      7420756E 
 1911      7369676E 
 1911      65642069 
 1911      6E7400
 1912              	.LASF25:
 1913 0060 696E6465 		.ascii	"indexU8\000"
 1913      78553800 
 1914              	.LASF24:
 1915 0068 73747269 		.ascii	"string\000"
 1915      6E6700
 1916              	.LASF36:
 1917 006f 4C43445F 		.ascii	"LCD_WrDatNib\000"
 1917      57724461 
 1917      744E6962 
 1917      00
 1918              	.LASF21:
 1919 007c 636F6C75 		.ascii	"column\000"
 1919      6D6E00
 1920              	.LASF29:
 1921 0083 4C43445F 		.ascii	"LCD_WriteData\000"
 1921      57726974 
 1921      65446174 
 1921      6100
 1922              	.LASF13:
 1923 0091 666C6F61 		.ascii	"float\000"
 1923      7400
 1924              	.LASF19:
 1925 0097 4C43445F 		.ascii	"LCD_Start\000"
 1925      53746172 
 1925      7400
 1926              	.LASF2:
 1927 00a1 756E7369 		.ascii	"unsigned char\000"
 1927      676E6564 
 1927      20636861 
 1927      7200
 1928              	.LASF16:
 1929 00af 72656738 		.ascii	"reg8\000"
 1929      00
 1930              	.LASF45:
 1931 00b4 6E756D44 		.ascii	"numDigits\000"
 1931      69676974 
 1931      7300
 1932              	.LASF6:
 1933 00be 6C6F6E67 		.ascii	"long unsigned int\000"
 1933      20756E73 
ARM GAS  C:\Users\kingi\AppData\Local\Temp\ccIG4g29.s 			page 47


 1933      69676E65 
 1933      6420696E 
 1933      7400
 1934              	.LASF43:
 1935 00d0 74656D70 		.ascii	"temp\000"
 1935      00
 1936              	.LASF11:
 1937 00d5 75696E74 		.ascii	"uint8\000"
 1937      3800
 1938              	.LASF37:
 1939 00db 4C43445F 		.ascii	"LCD_WrCntrlNib\000"
 1939      5772436E 
 1939      74726C4E 
 1939      696200
 1940              	.LASF50:
 1941 00ea 443A5C50 		.ascii	"D:\\Projects\\ESD\\PSoC\\Workspace\\light_1506.cyds"
 1941      726F6A65 
 1941      6374735C 
 1941      4553445C 
 1941      50536F43 
 1942 0118 6E00     		.ascii	"n\000"
 1943              	.LASF48:
 1944 011a 474E5520 		.ascii	"GNU C 4.9.3 20150303 (release) [ARM/embedded-4_9-br"
 1944      4320342E 
 1944      392E3320 
 1944      32303135 
 1944      30333033 
 1945 014d 616E6368 		.ascii	"anch revision 221220] -mcpu=cortex-m3 -mthumb -g -O"
 1945      20726576 
 1945      6973696F 
 1945      6E203232 
 1945      31323230 
 1946 0180 30202D66 		.ascii	"0 -ffunction-sections -ffat-lto-objects\000"
 1946      66756E63 
 1946      74696F6E 
 1946      2D736563 
 1946      74696F6E 
 1947              	.LASF14:
 1948 01a8 646F7562 		.ascii	"double\000"
 1948      6C6500
 1949              	.LASF18:
 1950 01af 4C43445F 		.ascii	"LCD_Enable\000"
 1950      456E6162 
 1950      6C6500
 1951              	.LASF23:
 1952 01ba 4C43445F 		.ascii	"LCD_PrintString\000"
 1952      5072696E 
 1952      74537472 
 1952      696E6700 
 1953              	.LASF12:
 1954 01ca 75696E74 		.ascii	"uint16\000"
 1954      313600
 1955              	.LASF34:
 1956 01d1 4C43445F 		.ascii	"LCD_IsReady\000"
 1956      49735265 
 1956      61647900 
 1957              	.LASF44:
ARM GAS  C:\Users\kingi\AppData\Local\Temp\ccIG4g29.s 			page 48


 1958 01dd 64696749 		.ascii	"digIndex\000"
 1958      6E646578 
 1958      00
 1959              	.LASF0:
 1960 01e6 756E7369 		.ascii	"unsigned int\000"
 1960      676E6564 
 1960      20696E74 
 1960      00
 1961              	.LASF8:
 1962 01f3 6C6F6E67 		.ascii	"long long unsigned int\000"
 1962      206C6F6E 
 1962      6720756E 
 1962      7369676E 
 1962      65642069 
 1963              	.LASF38:
 1964 020a 4C43445F 		.ascii	"LCD_PrintInt8\000"
 1964      5072696E 
 1964      74496E74 
 1964      3800
 1965              	.LASF22:
 1966 0218 4C43445F 		.ascii	"LCD_Position\000"
 1966      506F7369 
 1966      74696F6E 
 1966      00
 1967              	.LASF27:
 1968 0225 4C43445F 		.ascii	"LCD_PutChar\000"
 1968      50757443 
 1968      68617200 
 1969              	.LASF42:
 1970 0231 6E756D62 		.ascii	"number\000"
 1970      657200
 1971              	.LASF9:
 1972 0238 73697A65 		.ascii	"sizetype\000"
 1972      74797065 
 1972      00
 1973              	.LASF15:
 1974 0241 63686172 		.ascii	"char8\000"
 1974      3800
 1975              	.LASF7:
 1976 0247 6C6F6E67 		.ascii	"long long int\000"
 1976      206C6F6E 
 1976      6720696E 
 1976      7400
 1977              	.LASF10:
 1978 0255 63686172 		.ascii	"char\000"
 1978      00
 1979              	.LASF47:
 1980 025a 4C43445F 		.ascii	"LCD_enableState\000"
 1980      656E6162 
 1980      6C655374 
 1980      61746500 
 1981              	.LASF17:
 1982 026a 4C43445F 		.ascii	"LCD_Init\000"
 1982      496E6974 
 1982      00
 1983              	.LASF3:
 1984 0273 73686F72 		.ascii	"short int\000"
ARM GAS  C:\Users\kingi\AppData\Local\Temp\ccIG4g29.s 			page 49


 1984      7420696E 
 1984      7400
 1985              	.LASF26:
 1986 027d 63757272 		.ascii	"current\000"
 1986      656E7400 
 1987              	.LASF5:
 1988 0285 6C6F6E67 		.ascii	"long int\000"
 1988      20696E74 
 1988      00
 1989              	.LASF1:
 1990 028e 7369676E 		.ascii	"signed char\000"
 1990      65642063 
 1990      68617200 
 1991              	.LASF30:
 1992 029a 64427974 		.ascii	"dByte\000"
 1992      6500
 1993              	.LASF41:
 1994 02a0 4C43445F 		.ascii	"LCD_PrintNumber\000"
 1994      5072696E 
 1994      744E756D 
 1994      62657200 
 1995              	.LASF49:
 1996 02b0 2E5C4765 		.ascii	".\\Generated_Source\\PSoC5\\LCD.c\000"
 1996      6E657261 
 1996      7465645F 
 1996      536F7572 
 1996      63655C50 
 1997              	.LASF33:
 1998 02cf 63427974 		.ascii	"cByte\000"
 1998      6500
 1999              	.LASF31:
 2000 02d5 6E696262 		.ascii	"nibble\000"
 2000      6C6500
 2001              		.ident	"GCC: (GNU Tools for ARM Embedded Processors) 4.9.3 20150303 (release) [ARM/embedded-4_9-br
