ARM GAS  C:\Users\kingi\AppData\Local\Temp\cc068PKu.s 			page 1


   1              		.syntax unified
   2              		.cpu cortex-m3
   3              		.fpu softvfp
   4              		.eabi_attribute 20, 1
   5              		.eabi_attribute 21, 1
   6              		.eabi_attribute 23, 3
   7              		.eabi_attribute 24, 1
   8              		.eabi_attribute 25, 1
   9              		.eabi_attribute 26, 1
  10              		.eabi_attribute 30, 6
  11              		.eabi_attribute 34, 1
  12              		.eabi_attribute 18, 4
  13              		.thumb
  14              		.file	"cyfitter_cfg.c"
  15              		.text
  16              	.Ltext0:
  17              		.cfi_sections	.debug_frame
  18              		.section	.text.CYMEMZERO,"ax",%progbits
  19              		.align	2
  20              		.thumb
  21              		.thumb_func
  22              		.type	CYMEMZERO, %function
  23              	CYMEMZERO:
  24              	.LFB0:
  25              		.file 1 ".\\Generated_Source\\PSoC5\\cyfitter_cfg.c"
   1:.\Generated_Source\PSoC5/cyfitter_cfg.c **** /*******************************************************************************
   2:.\Generated_Source\PSoC5/cyfitter_cfg.c **** * File Name: cyfitter_cfg.c
   3:.\Generated_Source\PSoC5/cyfitter_cfg.c **** * 
   4:.\Generated_Source\PSoC5/cyfitter_cfg.c **** * PSoC Creator  3.3 SP1
   5:.\Generated_Source\PSoC5/cyfitter_cfg.c **** *
   6:.\Generated_Source\PSoC5/cyfitter_cfg.c **** * Description:
   7:.\Generated_Source\PSoC5/cyfitter_cfg.c **** * This file contains device initialization code.
   8:.\Generated_Source\PSoC5/cyfitter_cfg.c **** * Except for the user defined sections in CyClockStartupError(), this file should not be modified.
   9:.\Generated_Source\PSoC5/cyfitter_cfg.c **** * This file is automatically generated by PSoC Creator.
  10:.\Generated_Source\PSoC5/cyfitter_cfg.c **** *
  11:.\Generated_Source\PSoC5/cyfitter_cfg.c **** ********************************************************************************
  12:.\Generated_Source\PSoC5/cyfitter_cfg.c **** * Copyright (c) 2007-2015 Cypress Semiconductor.  All rights reserved.
  13:.\Generated_Source\PSoC5/cyfitter_cfg.c **** * You may use this file only in accordance with the license, terms, conditions, 
  14:.\Generated_Source\PSoC5/cyfitter_cfg.c **** * disclaimers, and limitations in the end user license agreement accompanying 
  15:.\Generated_Source\PSoC5/cyfitter_cfg.c **** * the software package with which this file was provided.
  16:.\Generated_Source\PSoC5/cyfitter_cfg.c **** ********************************************************************************/
  17:.\Generated_Source\PSoC5/cyfitter_cfg.c **** 
  18:.\Generated_Source\PSoC5/cyfitter_cfg.c **** #include <string.h>
  19:.\Generated_Source\PSoC5/cyfitter_cfg.c **** #include "cytypes.h"
  20:.\Generated_Source\PSoC5/cyfitter_cfg.c **** #include "cydevice_trm.h"
  21:.\Generated_Source\PSoC5/cyfitter_cfg.c **** #include "cyfitter.h"
  22:.\Generated_Source\PSoC5/cyfitter_cfg.c **** #include "CyLib.h"
  23:.\Generated_Source\PSoC5/cyfitter_cfg.c **** #include "cyfitter_cfg.h"
  24:.\Generated_Source\PSoC5/cyfitter_cfg.c **** 
  25:.\Generated_Source\PSoC5/cyfitter_cfg.c **** #define CY_NEED_CYCLOCKSTARTUPERROR 1
  26:.\Generated_Source\PSoC5/cyfitter_cfg.c **** 
  27:.\Generated_Source\PSoC5/cyfitter_cfg.c **** 
  28:.\Generated_Source\PSoC5/cyfitter_cfg.c **** #if defined(__GNUC__) || defined(__ARMCC_VERSION)
  29:.\Generated_Source\PSoC5/cyfitter_cfg.c ****     #define CYPACKED 
  30:.\Generated_Source\PSoC5/cyfitter_cfg.c ****     #define CYPACKED_ATTR __attribute__ ((packed))
  31:.\Generated_Source\PSoC5/cyfitter_cfg.c ****     #define CYALIGNED __attribute__ ((aligned))
  32:.\Generated_Source\PSoC5/cyfitter_cfg.c ****     #define CY_CFG_UNUSED __attribute__ ((unused))
ARM GAS  C:\Users\kingi\AppData\Local\Temp\cc068PKu.s 			page 2


  33:.\Generated_Source\PSoC5/cyfitter_cfg.c ****     #ifndef CY_CFG_SECTION
  34:.\Generated_Source\PSoC5/cyfitter_cfg.c ****         #define CY_CFG_SECTION __attribute__ ((section(".psocinit")))
  35:.\Generated_Source\PSoC5/cyfitter_cfg.c ****     #endif
  36:.\Generated_Source\PSoC5/cyfitter_cfg.c ****     
  37:.\Generated_Source\PSoC5/cyfitter_cfg.c ****     #if defined(__ARMCC_VERSION)
  38:.\Generated_Source\PSoC5/cyfitter_cfg.c ****         #define CY_CFG_MEMORY_BARRIER() __memory_changed()
  39:.\Generated_Source\PSoC5/cyfitter_cfg.c ****     #else
  40:.\Generated_Source\PSoC5/cyfitter_cfg.c ****         #define CY_CFG_MEMORY_BARRIER() __sync_synchronize()
  41:.\Generated_Source\PSoC5/cyfitter_cfg.c ****     #endif
  42:.\Generated_Source\PSoC5/cyfitter_cfg.c ****     
  43:.\Generated_Source\PSoC5/cyfitter_cfg.c **** #elif defined(__ICCARM__)
  44:.\Generated_Source\PSoC5/cyfitter_cfg.c ****     #include <intrinsics.h>
  45:.\Generated_Source\PSoC5/cyfitter_cfg.c **** 
  46:.\Generated_Source\PSoC5/cyfitter_cfg.c ****     #define CYPACKED __packed
  47:.\Generated_Source\PSoC5/cyfitter_cfg.c ****     #define CYPACKED_ATTR 
  48:.\Generated_Source\PSoC5/cyfitter_cfg.c ****     #define CYALIGNED _Pragma("data_alignment=4")
  49:.\Generated_Source\PSoC5/cyfitter_cfg.c ****     #define CY_CFG_UNUSED _Pragma("diag_suppress=Pe177")
  50:.\Generated_Source\PSoC5/cyfitter_cfg.c ****     #define CY_CFG_SECTION _Pragma("location=\".psocinit\"")
  51:.\Generated_Source\PSoC5/cyfitter_cfg.c ****     
  52:.\Generated_Source\PSoC5/cyfitter_cfg.c ****     #define CY_CFG_MEMORY_BARRIER() __DMB()
  53:.\Generated_Source\PSoC5/cyfitter_cfg.c ****     
  54:.\Generated_Source\PSoC5/cyfitter_cfg.c **** #else
  55:.\Generated_Source\PSoC5/cyfitter_cfg.c ****     #error Unsupported toolchain
  56:.\Generated_Source\PSoC5/cyfitter_cfg.c **** #endif
  57:.\Generated_Source\PSoC5/cyfitter_cfg.c **** 
  58:.\Generated_Source\PSoC5/cyfitter_cfg.c **** 
  59:.\Generated_Source\PSoC5/cyfitter_cfg.c **** CY_CFG_UNUSED
  60:.\Generated_Source\PSoC5/cyfitter_cfg.c **** static void CYMEMZERO(void *s, size_t n);
  61:.\Generated_Source\PSoC5/cyfitter_cfg.c **** CY_CFG_UNUSED
  62:.\Generated_Source\PSoC5/cyfitter_cfg.c **** static void CYMEMZERO(void *s, size_t n)
  63:.\Generated_Source\PSoC5/cyfitter_cfg.c **** {
  26              		.loc 1 63 0
  27              		.cfi_startproc
  28              		@ args = 0, pretend = 0, frame = 8
  29              		@ frame_needed = 1, uses_anonymous_args = 0
  30 0000 80B5     		push	{r7, lr}
  31              		.cfi_def_cfa_offset 8
  32              		.cfi_offset 7, -8
  33              		.cfi_offset 14, -4
  34 0002 82B0     		sub	sp, sp, #8
  35              		.cfi_def_cfa_offset 16
  36 0004 00AF     		add	r7, sp, #0
  37              		.cfi_def_cfa_register 7
  38 0006 7860     		str	r0, [r7, #4]
  39 0008 3960     		str	r1, [r7]
  64:.\Generated_Source\PSoC5/cyfitter_cfg.c **** 	(void)memset(s, 0, n);
  40              		.loc 1 64 0
  41 000a 7868     		ldr	r0, [r7, #4]
  42 000c 0021     		movs	r1, #0
  43 000e 3A68     		ldr	r2, [r7]
  44 0010 FFF7FEFF 		bl	memset
  65:.\Generated_Source\PSoC5/cyfitter_cfg.c **** }
  45              		.loc 1 65 0
  46 0014 0837     		adds	r7, r7, #8
  47              		.cfi_def_cfa_offset 8
  48 0016 BD46     		mov	sp, r7
  49              		.cfi_def_cfa_register 13
ARM GAS  C:\Users\kingi\AppData\Local\Temp\cc068PKu.s 			page 3


  50              		@ sp needed
  51 0018 80BD     		pop	{r7, pc}
  52              		.cfi_endproc
  53              	.LFE0:
  54              		.size	CYMEMZERO, .-CYMEMZERO
  55 001a 00BF     		.section	.text.CYCONFIGCPY,"ax",%progbits
  56              		.align	2
  57              		.thumb
  58              		.thumb_func
  59              		.type	CYCONFIGCPY, %function
  60              	CYCONFIGCPY:
  61              	.LFB1:
  66:.\Generated_Source\PSoC5/cyfitter_cfg.c **** CY_CFG_UNUSED
  67:.\Generated_Source\PSoC5/cyfitter_cfg.c **** static void CYCONFIGCPY(void *dest, const void *src, size_t n);
  68:.\Generated_Source\PSoC5/cyfitter_cfg.c **** CY_CFG_UNUSED
  69:.\Generated_Source\PSoC5/cyfitter_cfg.c **** static void CYCONFIGCPY(void *dest, const void *src, size_t n)
  70:.\Generated_Source\PSoC5/cyfitter_cfg.c **** {
  62              		.loc 1 70 0
  63              		.cfi_startproc
  64              		@ args = 0, pretend = 0, frame = 16
  65              		@ frame_needed = 1, uses_anonymous_args = 0
  66 0000 80B5     		push	{r7, lr}
  67              		.cfi_def_cfa_offset 8
  68              		.cfi_offset 7, -8
  69              		.cfi_offset 14, -4
  70 0002 84B0     		sub	sp, sp, #16
  71              		.cfi_def_cfa_offset 24
  72 0004 00AF     		add	r7, sp, #0
  73              		.cfi_def_cfa_register 7
  74 0006 F860     		str	r0, [r7, #12]
  75 0008 B960     		str	r1, [r7, #8]
  76 000a 7A60     		str	r2, [r7, #4]
  71:.\Generated_Source\PSoC5/cyfitter_cfg.c **** 	(void)memcpy(dest, src, n);
  77              		.loc 1 71 0
  78 000c F868     		ldr	r0, [r7, #12]
  79 000e B968     		ldr	r1, [r7, #8]
  80 0010 7A68     		ldr	r2, [r7, #4]
  81 0012 FFF7FEFF 		bl	memcpy
  72:.\Generated_Source\PSoC5/cyfitter_cfg.c **** }
  82              		.loc 1 72 0
  83 0016 1037     		adds	r7, r7, #16
  84              		.cfi_def_cfa_offset 8
  85 0018 BD46     		mov	sp, r7
  86              		.cfi_def_cfa_register 13
  87              		@ sp needed
  88 001a 80BD     		pop	{r7, pc}
  89              		.cfi_endproc
  90              	.LFE1:
  91              		.size	CYCONFIGCPY, .-CYCONFIGCPY
  92              		.section	.text.CYCONFIGCPYCODE,"ax",%progbits
  93              		.align	2
  94              		.thumb
  95              		.thumb_func
  96              		.type	CYCONFIGCPYCODE, %function
  97              	CYCONFIGCPYCODE:
  98              	.LFB2:
  73:.\Generated_Source\PSoC5/cyfitter_cfg.c **** CY_CFG_UNUSED
ARM GAS  C:\Users\kingi\AppData\Local\Temp\cc068PKu.s 			page 4


  74:.\Generated_Source\PSoC5/cyfitter_cfg.c **** static void CYCONFIGCPYCODE(void *dest, const void *src, size_t n);
  75:.\Generated_Source\PSoC5/cyfitter_cfg.c **** CY_CFG_UNUSED
  76:.\Generated_Source\PSoC5/cyfitter_cfg.c **** static void CYCONFIGCPYCODE(void *dest, const void *src, size_t n)
  77:.\Generated_Source\PSoC5/cyfitter_cfg.c **** {
  99              		.loc 1 77 0
 100              		.cfi_startproc
 101              		@ args = 0, pretend = 0, frame = 16
 102              		@ frame_needed = 1, uses_anonymous_args = 0
 103 0000 80B5     		push	{r7, lr}
 104              		.cfi_def_cfa_offset 8
 105              		.cfi_offset 7, -8
 106              		.cfi_offset 14, -4
 107 0002 84B0     		sub	sp, sp, #16
 108              		.cfi_def_cfa_offset 24
 109 0004 00AF     		add	r7, sp, #0
 110              		.cfi_def_cfa_register 7
 111 0006 F860     		str	r0, [r7, #12]
 112 0008 B960     		str	r1, [r7, #8]
 113 000a 7A60     		str	r2, [r7, #4]
  78:.\Generated_Source\PSoC5/cyfitter_cfg.c **** 	(void)memcpy(dest, src, n);
 114              		.loc 1 78 0
 115 000c F868     		ldr	r0, [r7, #12]
 116 000e B968     		ldr	r1, [r7, #8]
 117 0010 7A68     		ldr	r2, [r7, #4]
 118 0012 FFF7FEFF 		bl	memcpy
  79:.\Generated_Source\PSoC5/cyfitter_cfg.c **** }
 119              		.loc 1 79 0
 120 0016 1037     		adds	r7, r7, #16
 121              		.cfi_def_cfa_offset 8
 122 0018 BD46     		mov	sp, r7
 123              		.cfi_def_cfa_register 13
 124              		@ sp needed
 125 001a 80BD     		pop	{r7, pc}
 126              		.cfi_endproc
 127              	.LFE2:
 128              		.size	CYCONFIGCPYCODE, .-CYCONFIGCPYCODE
 129              		.section	.text.CyClockStartupError,"ax",%progbits
 130              		.align	2
 131              		.thumb
 132              		.thumb_func
 133              		.type	CyClockStartupError, %function
 134              	CyClockStartupError:
 135              	.LFB3:
  80:.\Generated_Source\PSoC5/cyfitter_cfg.c **** 
  81:.\Generated_Source\PSoC5/cyfitter_cfg.c **** 
  82:.\Generated_Source\PSoC5/cyfitter_cfg.c **** 
  83:.\Generated_Source\PSoC5/cyfitter_cfg.c **** /* Clock startup error codes                                                   */
  84:.\Generated_Source\PSoC5/cyfitter_cfg.c **** #define CYCLOCKSTART_NO_ERROR    0u
  85:.\Generated_Source\PSoC5/cyfitter_cfg.c **** #define CYCLOCKSTART_XTAL_ERROR  1u
  86:.\Generated_Source\PSoC5/cyfitter_cfg.c **** #define CYCLOCKSTART_32KHZ_ERROR 2u
  87:.\Generated_Source\PSoC5/cyfitter_cfg.c **** #define CYCLOCKSTART_PLL_ERROR   3u
  88:.\Generated_Source\PSoC5/cyfitter_cfg.c **** 
  89:.\Generated_Source\PSoC5/cyfitter_cfg.c **** #ifdef CY_NEED_CYCLOCKSTARTUPERROR
  90:.\Generated_Source\PSoC5/cyfitter_cfg.c **** /*******************************************************************************
  91:.\Generated_Source\PSoC5/cyfitter_cfg.c **** * Function Name: CyClockStartupError
  92:.\Generated_Source\PSoC5/cyfitter_cfg.c **** ********************************************************************************
  93:.\Generated_Source\PSoC5/cyfitter_cfg.c **** * Summary:
ARM GAS  C:\Users\kingi\AppData\Local\Temp\cc068PKu.s 			page 5


  94:.\Generated_Source\PSoC5/cyfitter_cfg.c **** *  If an error is encountered during clock configuration (crystal startup error,
  95:.\Generated_Source\PSoC5/cyfitter_cfg.c **** *  PLL lock error, etc.), the system will end up here.  Unless reimplemented by
  96:.\Generated_Source\PSoC5/cyfitter_cfg.c **** *  the customer, this function will stop in an infinite loop.
  97:.\Generated_Source\PSoC5/cyfitter_cfg.c **** *
  98:.\Generated_Source\PSoC5/cyfitter_cfg.c **** * Parameters:
  99:.\Generated_Source\PSoC5/cyfitter_cfg.c **** *   void
 100:.\Generated_Source\PSoC5/cyfitter_cfg.c **** *
 101:.\Generated_Source\PSoC5/cyfitter_cfg.c **** * Return:
 102:.\Generated_Source\PSoC5/cyfitter_cfg.c **** *   void
 103:.\Generated_Source\PSoC5/cyfitter_cfg.c **** *
 104:.\Generated_Source\PSoC5/cyfitter_cfg.c **** *******************************************************************************/
 105:.\Generated_Source\PSoC5/cyfitter_cfg.c **** CY_CFG_UNUSED
 106:.\Generated_Source\PSoC5/cyfitter_cfg.c **** static void CyClockStartupError(uint8 errorCode);
 107:.\Generated_Source\PSoC5/cyfitter_cfg.c **** CY_CFG_UNUSED
 108:.\Generated_Source\PSoC5/cyfitter_cfg.c **** static void CyClockStartupError(uint8 errorCode)
 109:.\Generated_Source\PSoC5/cyfitter_cfg.c **** {
 136              		.loc 1 109 0
 137              		.cfi_startproc
 138              		@ args = 0, pretend = 0, frame = 8
 139              		@ frame_needed = 1, uses_anonymous_args = 0
 140              		@ link register save eliminated.
 141 0000 80B4     		push	{r7}
 142              		.cfi_def_cfa_offset 4
 143              		.cfi_offset 7, -4
 144 0002 83B0     		sub	sp, sp, #12
 145              		.cfi_def_cfa_offset 16
 146 0004 00AF     		add	r7, sp, #0
 147              		.cfi_def_cfa_register 7
 148 0006 0346     		mov	r3, r0
 149 0008 FB71     		strb	r3, [r7, #7]
 150              	.L5:
 110:.\Generated_Source\PSoC5/cyfitter_cfg.c ****     /* To remove the compiler warning if errorCode not used.                */
 111:.\Generated_Source\PSoC5/cyfitter_cfg.c ****     errorCode = errorCode;
 112:.\Generated_Source\PSoC5/cyfitter_cfg.c **** 
 113:.\Generated_Source\PSoC5/cyfitter_cfg.c ****     /* `#START CyClockStartupError` */
 114:.\Generated_Source\PSoC5/cyfitter_cfg.c **** 
 115:.\Generated_Source\PSoC5/cyfitter_cfg.c ****     /* If we have a clock startup error (bad MHz crystal, PLL lock, etc.),  */
 116:.\Generated_Source\PSoC5/cyfitter_cfg.c ****     /* we will end up here to allow the customer to implement something to  */
 117:.\Generated_Source\PSoC5/cyfitter_cfg.c ****     /* deal with the clock condition.                                       */
 118:.\Generated_Source\PSoC5/cyfitter_cfg.c **** 
 119:.\Generated_Source\PSoC5/cyfitter_cfg.c ****     /* `#END` */
 120:.\Generated_Source\PSoC5/cyfitter_cfg.c **** 
 121:.\Generated_Source\PSoC5/cyfitter_cfg.c ****     /* If nothing else, stop here since the clocks have not started         */
 122:.\Generated_Source\PSoC5/cyfitter_cfg.c ****     /* correctly.                                                           */
 123:.\Generated_Source\PSoC5/cyfitter_cfg.c ****     while(1) {}
 151              		.loc 1 123 0 discriminator 1
 152 000a FEE7     		b	.L5
 153              		.cfi_endproc
 154              	.LFE3:
 155              		.size	CyClockStartupError, .-CyClockStartupError
 156              		.section	.text.cfg_write_bytes32,"ax",%progbits
 157              		.align	2
 158              		.thumb
 159              		.thumb_func
 160              		.type	cfg_write_bytes32, %function
 161              	cfg_write_bytes32:
 162              	.LFB4:
ARM GAS  C:\Users\kingi\AppData\Local\Temp\cc068PKu.s 			page 6


 124:.\Generated_Source\PSoC5/cyfitter_cfg.c **** }
 125:.\Generated_Source\PSoC5/cyfitter_cfg.c **** #endif
 126:.\Generated_Source\PSoC5/cyfitter_cfg.c **** 
 127:.\Generated_Source\PSoC5/cyfitter_cfg.c **** #define CY_CFG_BASE_ADDR_COUNT 30u
 128:.\Generated_Source\PSoC5/cyfitter_cfg.c **** CYPACKED typedef struct
 129:.\Generated_Source\PSoC5/cyfitter_cfg.c **** {
 130:.\Generated_Source\PSoC5/cyfitter_cfg.c **** 	uint8 offset;
 131:.\Generated_Source\PSoC5/cyfitter_cfg.c **** 	uint8 value;
 132:.\Generated_Source\PSoC5/cyfitter_cfg.c **** } CYPACKED_ATTR cy_cfg_addrvalue_t;
 133:.\Generated_Source\PSoC5/cyfitter_cfg.c **** 
 134:.\Generated_Source\PSoC5/cyfitter_cfg.c **** 
 135:.\Generated_Source\PSoC5/cyfitter_cfg.c **** 
 136:.\Generated_Source\PSoC5/cyfitter_cfg.c **** /*******************************************************************************
 137:.\Generated_Source\PSoC5/cyfitter_cfg.c **** * Function Name: cfg_write_bytes32
 138:.\Generated_Source\PSoC5/cyfitter_cfg.c **** ********************************************************************************
 139:.\Generated_Source\PSoC5/cyfitter_cfg.c **** * Summary:
 140:.\Generated_Source\PSoC5/cyfitter_cfg.c **** *  This function is used for setting up the chip configuration areas that
 141:.\Generated_Source\PSoC5/cyfitter_cfg.c **** *  contain relatively sparse data.
 142:.\Generated_Source\PSoC5/cyfitter_cfg.c **** *
 143:.\Generated_Source\PSoC5/cyfitter_cfg.c **** * Parameters:
 144:.\Generated_Source\PSoC5/cyfitter_cfg.c **** *   void
 145:.\Generated_Source\PSoC5/cyfitter_cfg.c **** *
 146:.\Generated_Source\PSoC5/cyfitter_cfg.c **** * Return:
 147:.\Generated_Source\PSoC5/cyfitter_cfg.c **** *   void
 148:.\Generated_Source\PSoC5/cyfitter_cfg.c **** *
 149:.\Generated_Source\PSoC5/cyfitter_cfg.c **** *******************************************************************************/
 150:.\Generated_Source\PSoC5/cyfitter_cfg.c **** static void cfg_write_bytes32(const uint32 addr_table[], const cy_cfg_addrvalue_t data_table[]);
 151:.\Generated_Source\PSoC5/cyfitter_cfg.c **** static void cfg_write_bytes32(const uint32 addr_table[], const cy_cfg_addrvalue_t data_table[])
 152:.\Generated_Source\PSoC5/cyfitter_cfg.c **** {
 163              		.loc 1 152 0
 164              		.cfi_startproc
 165              		@ args = 0, pretend = 0, frame = 24
 166              		@ frame_needed = 1, uses_anonymous_args = 0
 167              		@ link register save eliminated.
 168 0000 80B4     		push	{r7}
 169              		.cfi_def_cfa_offset 4
 170              		.cfi_offset 7, -4
 171 0002 87B0     		sub	sp, sp, #28
 172              		.cfi_def_cfa_offset 32
 173 0004 00AF     		add	r7, sp, #0
 174              		.cfi_def_cfa_register 7
 175 0006 7860     		str	r0, [r7, #4]
 176 0008 3960     		str	r1, [r7]
 153:.\Generated_Source\PSoC5/cyfitter_cfg.c **** 	/* For 32-bit little-endian architectures */
 154:.\Generated_Source\PSoC5/cyfitter_cfg.c **** 	uint32 i, j = 0u;
 177              		.loc 1 154 0
 178 000a 0023     		movs	r3, #0
 179 000c 3B61     		str	r3, [r7, #16]
 155:.\Generated_Source\PSoC5/cyfitter_cfg.c **** 	for (i = 0u; i < CY_CFG_BASE_ADDR_COUNT; i++)
 180              		.loc 1 155 0
 181 000e 0023     		movs	r3, #0
 182 0010 7B61     		str	r3, [r7, #20]
 183 0012 27E0     		b	.L7
 184              	.L10:
 185              	.LBB2:
 156:.\Generated_Source\PSoC5/cyfitter_cfg.c **** 	{
 157:.\Generated_Source\PSoC5/cyfitter_cfg.c **** 		uint32 baseAddr = addr_table[i];
ARM GAS  C:\Users\kingi\AppData\Local\Temp\cc068PKu.s 			page 7


 186              		.loc 1 157 0
 187 0014 7B69     		ldr	r3, [r7, #20]
 188 0016 9B00     		lsls	r3, r3, #2
 189 0018 7A68     		ldr	r2, [r7, #4]
 190 001a 1344     		add	r3, r3, r2
 191 001c 1B68     		ldr	r3, [r3]
 192 001e BB60     		str	r3, [r7, #8]
 158:.\Generated_Source\PSoC5/cyfitter_cfg.c **** 		uint8 count = (uint8)baseAddr;
 193              		.loc 1 158 0
 194 0020 BB68     		ldr	r3, [r7, #8]
 195 0022 FB73     		strb	r3, [r7, #15]
 159:.\Generated_Source\PSoC5/cyfitter_cfg.c **** 		baseAddr &= 0xFFFFFF00u;
 196              		.loc 1 159 0
 197 0024 BB68     		ldr	r3, [r7, #8]
 198 0026 23F0FF03 		bic	r3, r3, #255
 199 002a BB60     		str	r3, [r7, #8]
 160:.\Generated_Source\PSoC5/cyfitter_cfg.c **** 		while (count != 0u)
 200              		.loc 1 160 0
 201 002c 14E0     		b	.L8
 202              	.L9:
 161:.\Generated_Source\PSoC5/cyfitter_cfg.c **** 		{
 162:.\Generated_Source\PSoC5/cyfitter_cfg.c **** 			CY_SET_XTND_REG8((void CYFAR *)(baseAddr + data_table[j].offset), data_table[j].value);
 203              		.loc 1 162 0
 204 002e 3B69     		ldr	r3, [r7, #16]
 205 0030 5B00     		lsls	r3, r3, #1
 206 0032 3A68     		ldr	r2, [r7]
 207 0034 1344     		add	r3, r3, r2
 208 0036 1B78     		ldrb	r3, [r3]	@ zero_extendqisi2
 209 0038 1A46     		mov	r2, r3
 210 003a BB68     		ldr	r3, [r7, #8]
 211 003c 1344     		add	r3, r3, r2
 212 003e 1946     		mov	r1, r3
 213 0040 3B69     		ldr	r3, [r7, #16]
 214 0042 5B00     		lsls	r3, r3, #1
 215 0044 3A68     		ldr	r2, [r7]
 216 0046 1344     		add	r3, r3, r2
 217 0048 5B78     		ldrb	r3, [r3, #1]	@ zero_extendqisi2
 218 004a 0B70     		strb	r3, [r1]
 163:.\Generated_Source\PSoC5/cyfitter_cfg.c **** 			j++;
 219              		.loc 1 163 0
 220 004c 3B69     		ldr	r3, [r7, #16]
 221 004e 0133     		adds	r3, r3, #1
 222 0050 3B61     		str	r3, [r7, #16]
 164:.\Generated_Source\PSoC5/cyfitter_cfg.c **** 			count--;
 223              		.loc 1 164 0
 224 0052 FB7B     		ldrb	r3, [r7, #15]	@ zero_extendqisi2
 225 0054 013B     		subs	r3, r3, #1
 226 0056 FB73     		strb	r3, [r7, #15]
 227              	.L8:
 160:.\Generated_Source\PSoC5/cyfitter_cfg.c **** 		{
 228              		.loc 1 160 0
 229 0058 FB7B     		ldrb	r3, [r7, #15]	@ zero_extendqisi2
 230 005a 002B     		cmp	r3, #0
 231 005c E7D1     		bne	.L9
 232              	.LBE2:
 155:.\Generated_Source\PSoC5/cyfitter_cfg.c **** 	{
 233              		.loc 1 155 0 discriminator 2
ARM GAS  C:\Users\kingi\AppData\Local\Temp\cc068PKu.s 			page 8


 234 005e 7B69     		ldr	r3, [r7, #20]
 235 0060 0133     		adds	r3, r3, #1
 236 0062 7B61     		str	r3, [r7, #20]
 237              	.L7:
 155:.\Generated_Source\PSoC5/cyfitter_cfg.c **** 	{
 238              		.loc 1 155 0 is_stmt 0 discriminator 1
 239 0064 7B69     		ldr	r3, [r7, #20]
 240 0066 1D2B     		cmp	r3, #29
 241 0068 D4D9     		bls	.L10
 165:.\Generated_Source\PSoC5/cyfitter_cfg.c **** 		}
 166:.\Generated_Source\PSoC5/cyfitter_cfg.c **** 	}
 167:.\Generated_Source\PSoC5/cyfitter_cfg.c **** }
 242              		.loc 1 167 0 is_stmt 1
 243 006a 1C37     		adds	r7, r7, #28
 244              		.cfi_def_cfa_offset 4
 245 006c BD46     		mov	sp, r7
 246              		.cfi_def_cfa_register 13
 247              		@ sp needed
 248 006e 5DF8047B 		ldr	r7, [sp], #4
 249              		.cfi_restore 7
 250              		.cfi_def_cfa_offset 0
 251 0072 7047     		bx	lr
 252              		.cfi_endproc
 253              	.LFE4:
 254              		.size	cfg_write_bytes32, .-cfg_write_bytes32
 255              		.section	.text.ClockSetup,"ax",%progbits
 256              		.align	2
 257              		.thumb
 258              		.thumb_func
 259              		.type	ClockSetup, %function
 260              	ClockSetup:
 261              	.LFB5:
 168:.\Generated_Source\PSoC5/cyfitter_cfg.c **** 
 169:.\Generated_Source\PSoC5/cyfitter_cfg.c **** /*******************************************************************************
 170:.\Generated_Source\PSoC5/cyfitter_cfg.c **** * Function Name: ClockSetup
 171:.\Generated_Source\PSoC5/cyfitter_cfg.c **** ********************************************************************************
 172:.\Generated_Source\PSoC5/cyfitter_cfg.c **** *
 173:.\Generated_Source\PSoC5/cyfitter_cfg.c **** * Summary:
 174:.\Generated_Source\PSoC5/cyfitter_cfg.c **** *  Performs the initialization of all of the clocks in the device based on the
 175:.\Generated_Source\PSoC5/cyfitter_cfg.c **** *  settings in the Clock tab of the DWR.  This includes enabling the requested
 176:.\Generated_Source\PSoC5/cyfitter_cfg.c **** *  clocks and setting the necessary dividers to produce the desired frequency. 
 177:.\Generated_Source\PSoC5/cyfitter_cfg.c **** *
 178:.\Generated_Source\PSoC5/cyfitter_cfg.c **** * Parameters:
 179:.\Generated_Source\PSoC5/cyfitter_cfg.c **** *  void
 180:.\Generated_Source\PSoC5/cyfitter_cfg.c **** *
 181:.\Generated_Source\PSoC5/cyfitter_cfg.c **** * Return:
 182:.\Generated_Source\PSoC5/cyfitter_cfg.c **** *  void
 183:.\Generated_Source\PSoC5/cyfitter_cfg.c **** *
 184:.\Generated_Source\PSoC5/cyfitter_cfg.c **** *******************************************************************************/
 185:.\Generated_Source\PSoC5/cyfitter_cfg.c **** static void ClockSetup(void);
 186:.\Generated_Source\PSoC5/cyfitter_cfg.c **** static void ClockSetup(void)
 187:.\Generated_Source\PSoC5/cyfitter_cfg.c **** {
 262              		.loc 1 187 0
 263              		.cfi_startproc
 264              		@ args = 0, pretend = 0, frame = 8
 265              		@ frame_needed = 1, uses_anonymous_args = 0
 266 0000 80B5     		push	{r7, lr}
ARM GAS  C:\Users\kingi\AppData\Local\Temp\cc068PKu.s 			page 9


 267              		.cfi_def_cfa_offset 8
 268              		.cfi_offset 7, -8
 269              		.cfi_offset 14, -4
 270 0002 82B0     		sub	sp, sp, #8
 271              		.cfi_def_cfa_offset 16
 272 0004 00AF     		add	r7, sp, #0
 273              		.cfi_def_cfa_register 7
 188:.\Generated_Source\PSoC5/cyfitter_cfg.c **** 	/* CYDEV_CLKDIST_ACFG0_CFG0 Address: CYREG_CLKDIST_ACFG0_CFG0 Size (bytes): 4 */
 189:.\Generated_Source\PSoC5/cyfitter_cfg.c **** 	static const uint8 CYCODE BS_CYDEV_CLKDIST_ACFG0_CFG0_VAL[] = {
 190:.\Generated_Source\PSoC5/cyfitter_cfg.c **** 		0x05u, 0x00u, 0x10u, 0x01u};
 191:.\Generated_Source\PSoC5/cyfitter_cfg.c **** 
 192:.\Generated_Source\PSoC5/cyfitter_cfg.c **** 	uint32 timeout;
 193:.\Generated_Source\PSoC5/cyfitter_cfg.c **** 	uint8 pllLock;
 194:.\Generated_Source\PSoC5/cyfitter_cfg.c **** 
 195:.\Generated_Source\PSoC5/cyfitter_cfg.c **** 
 196:.\Generated_Source\PSoC5/cyfitter_cfg.c **** 	/* Configure Digital Clocks based on settings from Clock DWR */
 197:.\Generated_Source\PSoC5/cyfitter_cfg.c **** 	CY_SET_XTND_REG16((void CYFAR *)(CYREG_CLKDIST_DCFG0_CFG0), 0x0019u);
 274              		.loc 1 197 0
 275 0006 384B     		ldr	r3, .L16
 276 0008 1922     		movs	r2, #25
 277 000a 1A80     		strh	r2, [r3]	@ movhi
 198:.\Generated_Source\PSoC5/cyfitter_cfg.c **** 	CY_SET_XTND_REG8((void CYFAR *)(CYREG_CLKDIST_DCFG0_CFG0 + 0x2u), 0x19u);
 278              		.loc 1 198 0
 279 000c 374B     		ldr	r3, .L16+4
 280 000e 1922     		movs	r2, #25
 281 0010 1A70     		strb	r2, [r3]
 199:.\Generated_Source\PSoC5/cyfitter_cfg.c **** 	CY_SET_XTND_REG16((void CYFAR *)(CYREG_CLKDIST_DCFG1_CFG0), 0x0019u);
 282              		.loc 1 199 0
 283 0012 374B     		ldr	r3, .L16+8
 284 0014 1922     		movs	r2, #25
 285 0016 1A80     		strh	r2, [r3]	@ movhi
 200:.\Generated_Source\PSoC5/cyfitter_cfg.c **** 	CY_SET_XTND_REG8((void CYFAR *)(CYREG_CLKDIST_DCFG1_CFG0 + 0x2u), 0x19u);
 286              		.loc 1 200 0
 287 0018 364B     		ldr	r3, .L16+12
 288 001a 1922     		movs	r2, #25
 289 001c 1A70     		strb	r2, [r3]
 201:.\Generated_Source\PSoC5/cyfitter_cfg.c **** 	CY_SET_XTND_REG16((void CYFAR *)(CYREG_CLKDIST_DCFG2_CFG0), 0x0019u);
 290              		.loc 1 201 0
 291 001e 364B     		ldr	r3, .L16+16
 292 0020 1922     		movs	r2, #25
 293 0022 1A80     		strh	r2, [r3]	@ movhi
 202:.\Generated_Source\PSoC5/cyfitter_cfg.c **** 	CY_SET_XTND_REG8((void CYFAR *)(CYREG_CLKDIST_DCFG2_CFG0 + 0x2u), 0x19u);
 294              		.loc 1 202 0
 295 0024 354B     		ldr	r3, .L16+20
 296 0026 1922     		movs	r2, #25
 297 0028 1A70     		strb	r2, [r3]
 203:.\Generated_Source\PSoC5/cyfitter_cfg.c **** 
 204:.\Generated_Source\PSoC5/cyfitter_cfg.c **** 	/* Configure Analog Clocks based on settings from Clock DWR */
 205:.\Generated_Source\PSoC5/cyfitter_cfg.c **** 	CYCONFIGCPYCODE((void CYFAR *)(CYREG_CLKDIST_ACFG0_CFG0), (const void CYCODE *)(BS_CYDEV_CLKDIST_A
 298              		.loc 1 205 0
 299 002a 3548     		ldr	r0, .L16+24
 300 002c 3549     		ldr	r1, .L16+28
 301 002e 0422     		movs	r2, #4
 302 0030 FFF7FEFF 		bl	CYCONFIGCPYCODE
 206:.\Generated_Source\PSoC5/cyfitter_cfg.c **** 
 207:.\Generated_Source\PSoC5/cyfitter_cfg.c **** 	/* Configure ILO based on settings from Clock DWR */
 208:.\Generated_Source\PSoC5/cyfitter_cfg.c **** 	CY_SET_XTND_REG8((void CYFAR *)(CYREG_SLOWCLK_ILO_CR0), 0x06u);
ARM GAS  C:\Users\kingi\AppData\Local\Temp\cc068PKu.s 			page 10


 303              		.loc 1 208 0
 304 0034 344B     		ldr	r3, .L16+32
 305 0036 0622     		movs	r2, #6
 306 0038 1A70     		strb	r2, [r3]
 209:.\Generated_Source\PSoC5/cyfitter_cfg.c **** 
 210:.\Generated_Source\PSoC5/cyfitter_cfg.c **** 	/* Configure IMO based on settings from Clock DWR */
 211:.\Generated_Source\PSoC5/cyfitter_cfg.c **** 	CY_SET_XTND_REG8((void CYFAR *)(CYREG_FASTCLK_IMO_CR), 0x52u);
 307              		.loc 1 211 0
 308 003a 344B     		ldr	r3, .L16+36
 309 003c 5222     		movs	r2, #82
 310 003e 1A70     		strb	r2, [r3]
 212:.\Generated_Source\PSoC5/cyfitter_cfg.c **** 	CY_SET_XTND_REG8((void CYFAR *)(CYREG_IMO_TR1), (CY_GET_XTND_REG8((void CYFAR *)CYREG_FLSHID_CUST_
 311              		.loc 1 212 0
 312 0040 334B     		ldr	r3, .L16+40
 313 0042 344A     		ldr	r2, .L16+44
 314 0044 1278     		ldrb	r2, [r2]
 315 0046 D2B2     		uxtb	r2, r2
 316 0048 1A70     		strb	r2, [r3]
 213:.\Generated_Source\PSoC5/cyfitter_cfg.c **** 
 214:.\Generated_Source\PSoC5/cyfitter_cfg.c **** 	/* Configure PLL based on settings from Clock DWR */
 215:.\Generated_Source\PSoC5/cyfitter_cfg.c **** 	CY_SET_XTND_REG16((void CYFAR *)(CYREG_FASTCLK_PLL_P), 0x0818u);
 317              		.loc 1 215 0
 318 004a 334B     		ldr	r3, .L16+48
 319 004c 40F61802 		movw	r2, #2072
 320 0050 1A80     		strh	r2, [r3]	@ movhi
 216:.\Generated_Source\PSoC5/cyfitter_cfg.c **** 	CY_SET_XTND_REG16((void CYFAR *)(CYREG_FASTCLK_PLL_CFG0), 0x1251u);
 321              		.loc 1 216 0
 322 0052 324B     		ldr	r3, .L16+52
 323 0054 41F25122 		movw	r2, #4689
 324 0058 1A80     		strh	r2, [r3]	@ movhi
 217:.\Generated_Source\PSoC5/cyfitter_cfg.c **** 	/* Wait up to 250us for the PLL to lock */
 218:.\Generated_Source\PSoC5/cyfitter_cfg.c **** 	pllLock = 0u;
 325              		.loc 1 218 0
 326 005a 0023     		movs	r3, #0
 327 005c FB70     		strb	r3, [r7, #3]
 219:.\Generated_Source\PSoC5/cyfitter_cfg.c **** 	for (timeout = 250u / 10u; (timeout > 0u) && (pllLock != 0x03u); timeout--)
 328              		.loc 1 219 0
 329 005e 1923     		movs	r3, #25
 330 0060 7B60     		str	r3, [r7, #4]
 331 0062 14E0     		b	.L12
 332              	.L14:
 220:.\Generated_Source\PSoC5/cyfitter_cfg.c **** 	{ 
 221:.\Generated_Source\PSoC5/cyfitter_cfg.c **** 		pllLock = 0x03u & ((uint8)((uint8)pllLock << 1) | ((CY_GET_XTND_REG8((void CYFAR *)CYREG_FASTCLK_
 333              		.loc 1 221 0 discriminator 4
 334 0064 FB78     		ldrb	r3, [r7, #3]
 335 0066 5B00     		lsls	r3, r3, #1
 336 0068 DAB2     		uxtb	r2, r3
 337 006a 2D4B     		ldr	r3, .L16+56
 338 006c 1B78     		ldrb	r3, [r3]
 339 006e DBB2     		uxtb	r3, r3
 340 0070 03F00103 		and	r3, r3, #1
 341 0074 DBB2     		uxtb	r3, r3
 342 0076 1343     		orrs	r3, r3, r2
 343 0078 DBB2     		uxtb	r3, r3
 344 007a 03F00303 		and	r3, r3, #3
 345 007e FB70     		strb	r3, [r7, #3]
 222:.\Generated_Source\PSoC5/cyfitter_cfg.c **** 		CyDelayCycles(10u * 48u); /* Delay 10us based on 48MHz clock */
ARM GAS  C:\Users\kingi\AppData\Local\Temp\cc068PKu.s 			page 11


 346              		.loc 1 222 0 discriminator 4
 347 0080 4FF4F070 		mov	r0, #480
 348 0084 FFF7FEFF 		bl	CyDelayCycles
 219:.\Generated_Source\PSoC5/cyfitter_cfg.c **** 	for (timeout = 250u / 10u; (timeout > 0u) && (pllLock != 0x03u); timeout--)
 349              		.loc 1 219 0 discriminator 4
 350 0088 7B68     		ldr	r3, [r7, #4]
 351 008a 013B     		subs	r3, r3, #1
 352 008c 7B60     		str	r3, [r7, #4]
 353              	.L12:
 219:.\Generated_Source\PSoC5/cyfitter_cfg.c **** 	for (timeout = 250u / 10u; (timeout > 0u) && (pllLock != 0x03u); timeout--)
 354              		.loc 1 219 0 is_stmt 0 discriminator 1
 355 008e 7B68     		ldr	r3, [r7, #4]
 356 0090 002B     		cmp	r3, #0
 357 0092 02D0     		beq	.L13
 219:.\Generated_Source\PSoC5/cyfitter_cfg.c **** 	for (timeout = 250u / 10u; (timeout > 0u) && (pllLock != 0x03u); timeout--)
 358              		.loc 1 219 0 discriminator 3
 359 0094 FB78     		ldrb	r3, [r7, #3]	@ zero_extendqisi2
 360 0096 032B     		cmp	r3, #3
 361 0098 E4D1     		bne	.L14
 362              	.L13:
 223:.\Generated_Source\PSoC5/cyfitter_cfg.c **** 	}
 224:.\Generated_Source\PSoC5/cyfitter_cfg.c **** 	/* If we ran out of time the PLL didn't lock so go to the error function */
 225:.\Generated_Source\PSoC5/cyfitter_cfg.c **** 	if (timeout == 0u)
 363              		.loc 1 225 0 is_stmt 1
 364 009a 7B68     		ldr	r3, [r7, #4]
 365 009c 002B     		cmp	r3, #0
 366 009e 02D1     		bne	.L15
 226:.\Generated_Source\PSoC5/cyfitter_cfg.c **** 	{
 227:.\Generated_Source\PSoC5/cyfitter_cfg.c **** 		CyClockStartupError(CYCLOCKSTART_PLL_ERROR);
 367              		.loc 1 227 0
 368 00a0 0320     		movs	r0, #3
 369 00a2 FFF7FEFF 		bl	CyClockStartupError
 370              	.L15:
 228:.\Generated_Source\PSoC5/cyfitter_cfg.c **** 	}
 229:.\Generated_Source\PSoC5/cyfitter_cfg.c **** 
 230:.\Generated_Source\PSoC5/cyfitter_cfg.c **** 	/* Configure Bus/Master Clock based on settings from Clock DWR */
 231:.\Generated_Source\PSoC5/cyfitter_cfg.c **** 	CY_SET_XTND_REG16((void CYFAR *)(CYREG_CLKDIST_MSTR0), 0x0100u);
 371              		.loc 1 231 0
 372 00a6 1F4B     		ldr	r3, .L16+60
 373 00a8 4FF48072 		mov	r2, #256
 374 00ac 1A80     		strh	r2, [r3]	@ movhi
 232:.\Generated_Source\PSoC5/cyfitter_cfg.c **** 	CY_SET_XTND_REG8((void CYFAR *)(CYREG_CLKDIST_MSTR0), 0x07u);
 375              		.loc 1 232 0
 376 00ae 1D4B     		ldr	r3, .L16+60
 377 00b0 0722     		movs	r2, #7
 378 00b2 1A70     		strb	r2, [r3]
 233:.\Generated_Source\PSoC5/cyfitter_cfg.c **** 	CY_SET_XTND_REG8((void CYFAR *)(CYREG_CLKDIST_BCFG0), 0x00u);
 379              		.loc 1 233 0
 380 00b4 1C4B     		ldr	r3, .L16+64
 381 00b6 0022     		movs	r2, #0
 382 00b8 1A70     		strb	r2, [r3]
 234:.\Generated_Source\PSoC5/cyfitter_cfg.c **** 	CY_SET_XTND_REG8((void CYFAR *)(CYREG_CLKDIST_BCFG2), 0x48u);
 383              		.loc 1 234 0
 384 00ba 1C4B     		ldr	r3, .L16+68
 385 00bc 4822     		movs	r2, #72
 386 00be 1A70     		strb	r2, [r3]
 235:.\Generated_Source\PSoC5/cyfitter_cfg.c **** 	CY_SET_XTND_REG8((void CYFAR *)(CYREG_CLKDIST_MSTR0), 0x00u);
ARM GAS  C:\Users\kingi\AppData\Local\Temp\cc068PKu.s 			page 12


 387              		.loc 1 235 0
 388 00c0 184B     		ldr	r3, .L16+60
 389 00c2 0022     		movs	r2, #0
 390 00c4 1A70     		strb	r2, [r3]
 236:.\Generated_Source\PSoC5/cyfitter_cfg.c **** 
 237:.\Generated_Source\PSoC5/cyfitter_cfg.c **** 	/* Configure USB Clock based on settings from Clock DWR */
 238:.\Generated_Source\PSoC5/cyfitter_cfg.c **** 	CY_SET_XTND_REG8((void CYFAR *)(CYREG_CLKDIST_UCFG), 0x00u);
 391              		.loc 1 238 0
 392 00c6 1A4B     		ldr	r3, .L16+72
 393 00c8 0022     		movs	r2, #0
 394 00ca 1A70     		strb	r2, [r3]
 239:.\Generated_Source\PSoC5/cyfitter_cfg.c **** 	CY_SET_XTND_REG8((void CYFAR *)(CYREG_CLKDIST_LD), 0x02u);
 395              		.loc 1 239 0
 396 00cc 194B     		ldr	r3, .L16+76
 397 00ce 0222     		movs	r2, #2
 398 00d0 1A70     		strb	r2, [r3]
 240:.\Generated_Source\PSoC5/cyfitter_cfg.c **** 
 241:.\Generated_Source\PSoC5/cyfitter_cfg.c **** 	CY_SET_XTND_REG8((void CYFAR *)(CYREG_PM_ACT_CFG2), ((CY_GET_XTND_REG8((void CYFAR *)CYREG_PM_ACT_
 399              		.loc 1 241 0
 400 00d2 194A     		ldr	r2, .L16+80
 401 00d4 184B     		ldr	r3, .L16+80
 402 00d6 1B78     		ldrb	r3, [r3]
 403 00d8 DBB2     		uxtb	r3, r3
 404 00da 43F00703 		orr	r3, r3, #7
 405 00de DBB2     		uxtb	r3, r3
 406 00e0 1370     		strb	r3, [r2]
 242:.\Generated_Source\PSoC5/cyfitter_cfg.c **** }
 407              		.loc 1 242 0
 408 00e2 0837     		adds	r7, r7, #8
 409              		.cfi_def_cfa_offset 8
 410 00e4 BD46     		mov	sp, r7
 411              		.cfi_def_cfa_register 13
 412              		@ sp needed
 413 00e6 80BD     		pop	{r7, pc}
 414              	.L17:
 415              		.align	2
 416              	.L16:
 417 00e8 80400040 		.word	1073758336
 418 00ec 82400040 		.word	1073758338
 419 00f0 84400040 		.word	1073758340
 420 00f4 86400040 		.word	1073758342
 421 00f8 88400040 		.word	1073758344
 422 00fc 8A400040 		.word	1073758346
 423 0100 00410040 		.word	1073758464
 424 0104 00000000 		.word	BS_CYDEV_CLKDIST_ACFG0_CFG0_VAL.4890
 425 0108 00430040 		.word	1073758976
 426 010c 00420040 		.word	1073758720
 427 0110 A1460040 		.word	1073759905
 428 0114 0F010049 		.word	1224737039
 429 0118 22420040 		.word	1073758754
 430 011c 20420040 		.word	1073758752
 431 0120 25420040 		.word	1073758757
 432 0124 04400040 		.word	1073758212
 433 0128 06400040 		.word	1073758214
 434 012c 08400040 		.word	1073758216
 435 0130 09400040 		.word	1073758217
 436 0134 01400040 		.word	1073758209
ARM GAS  C:\Users\kingi\AppData\Local\Temp\cc068PKu.s 			page 13


 437 0138 A2430040 		.word	1073759138
 438              		.cfi_endproc
 439              	.LFE5:
 440              		.size	ClockSetup, .-ClockSetup
 441              		.section	.text.AnalogSetDefault,"ax",%progbits
 442              		.align	2
 443              		.thumb
 444              		.thumb_func
 445              		.type	AnalogSetDefault, %function
 446              	AnalogSetDefault:
 447              	.LFB6:
 243:.\Generated_Source\PSoC5/cyfitter_cfg.c **** 
 244:.\Generated_Source\PSoC5/cyfitter_cfg.c **** 
 245:.\Generated_Source\PSoC5/cyfitter_cfg.c **** /* Analog API Functions */
 246:.\Generated_Source\PSoC5/cyfitter_cfg.c **** 
 247:.\Generated_Source\PSoC5/cyfitter_cfg.c **** 
 248:.\Generated_Source\PSoC5/cyfitter_cfg.c **** /*******************************************************************************
 249:.\Generated_Source\PSoC5/cyfitter_cfg.c **** * Function Name: AnalogSetDefault
 250:.\Generated_Source\PSoC5/cyfitter_cfg.c **** ********************************************************************************
 251:.\Generated_Source\PSoC5/cyfitter_cfg.c **** *
 252:.\Generated_Source\PSoC5/cyfitter_cfg.c **** * Summary:
 253:.\Generated_Source\PSoC5/cyfitter_cfg.c **** *  Sets up the analog portions of the chip to default values based on chip
 254:.\Generated_Source\PSoC5/cyfitter_cfg.c **** *  configuration options from the project.
 255:.\Generated_Source\PSoC5/cyfitter_cfg.c **** *
 256:.\Generated_Source\PSoC5/cyfitter_cfg.c **** * Parameters:
 257:.\Generated_Source\PSoC5/cyfitter_cfg.c **** *  void
 258:.\Generated_Source\PSoC5/cyfitter_cfg.c **** *
 259:.\Generated_Source\PSoC5/cyfitter_cfg.c **** * Return:
 260:.\Generated_Source\PSoC5/cyfitter_cfg.c **** *  void
 261:.\Generated_Source\PSoC5/cyfitter_cfg.c **** *
 262:.\Generated_Source\PSoC5/cyfitter_cfg.c **** *******************************************************************************/
 263:.\Generated_Source\PSoC5/cyfitter_cfg.c **** static void AnalogSetDefault(void);
 264:.\Generated_Source\PSoC5/cyfitter_cfg.c **** static void AnalogSetDefault(void)
 265:.\Generated_Source\PSoC5/cyfitter_cfg.c **** {
 448              		.loc 1 265 0
 449              		.cfi_startproc
 450              		@ args = 0, pretend = 0, frame = 8
 451              		@ frame_needed = 1, uses_anonymous_args = 0
 452              		@ link register save eliminated.
 453 0000 80B4     		push	{r7}
 454              		.cfi_def_cfa_offset 4
 455              		.cfi_offset 7, -4
 456 0002 83B0     		sub	sp, sp, #12
 457              		.cfi_def_cfa_offset 16
 458 0004 00AF     		add	r7, sp, #0
 459              		.cfi_def_cfa_register 7
 266:.\Generated_Source\PSoC5/cyfitter_cfg.c **** 	uint8 bg_xover_inl_trim = CY_GET_XTND_REG8((void CYFAR *)(CYREG_FLSHID_MFG_CFG_BG_XOVER_INL_TRIM +
 460              		.loc 1 266 0
 461 0006 0B4B     		ldr	r3, .L19
 462 0008 1B78     		ldrb	r3, [r3]
 463 000a FB71     		strb	r3, [r7, #7]
 267:.\Generated_Source\PSoC5/cyfitter_cfg.c **** 	CY_SET_XTND_REG8((void CYFAR *)(CYREG_BG_DFT0), (bg_xover_inl_trim & 0x07u));
 464              		.loc 1 267 0
 465 000c 0A4A     		ldr	r2, .L19+4
 466 000e FB79     		ldrb	r3, [r7, #7]
 467 0010 03F00703 		and	r3, r3, #7
 468 0014 DBB2     		uxtb	r3, r3
ARM GAS  C:\Users\kingi\AppData\Local\Temp\cc068PKu.s 			page 14


 469 0016 1370     		strb	r3, [r2]
 268:.\Generated_Source\PSoC5/cyfitter_cfg.c **** 	CY_SET_XTND_REG8((void CYFAR *)(CYREG_BG_DFT1), ((bg_xover_inl_trim >> 4) & 0x0Fu));
 470              		.loc 1 268 0
 471 0018 084A     		ldr	r2, .L19+8
 472 001a FB79     		ldrb	r3, [r7, #7]	@ zero_extendqisi2
 473 001c 1B09     		lsrs	r3, r3, #4
 474 001e DBB2     		uxtb	r3, r3
 475 0020 1370     		strb	r3, [r2]
 269:.\Generated_Source\PSoC5/cyfitter_cfg.c **** 	CY_SET_XTND_REG8((void CYFAR *)CYREG_PUMP_CR0, 0x44u);
 476              		.loc 1 269 0
 477 0022 074B     		ldr	r3, .L19+12
 478 0024 4422     		movs	r2, #68
 479 0026 1A70     		strb	r2, [r3]
 270:.\Generated_Source\PSoC5/cyfitter_cfg.c **** }
 480              		.loc 1 270 0
 481 0028 0C37     		adds	r7, r7, #12
 482              		.cfi_def_cfa_offset 4
 483 002a BD46     		mov	sp, r7
 484              		.cfi_def_cfa_register 13
 485              		@ sp needed
 486 002c 5DF8047B 		ldr	r7, [sp], #4
 487              		.cfi_restore 7
 488              		.cfi_def_cfa_offset 0
 489 0030 7047     		bx	lr
 490              	.L20:
 491 0032 00BF     		.align	2
 492              	.L19:
 493 0034 CF010049 		.word	1224737231
 494 0038 6E580040 		.word	1073764462
 495 003c 6F580040 		.word	1073764463
 496 0040 76580040 		.word	1073764470
 497              		.cfi_endproc
 498              	.LFE6:
 499              		.size	AnalogSetDefault, .-AnalogSetDefault
 500              		.section	.text.SetAnalogRoutingPumps,"ax",%progbits
 501              		.align	2
 502              		.global	SetAnalogRoutingPumps
 503              		.thumb
 504              		.thumb_func
 505              		.type	SetAnalogRoutingPumps, %function
 506              	SetAnalogRoutingPumps:
 507              	.LFB7:
 271:.\Generated_Source\PSoC5/cyfitter_cfg.c **** 
 272:.\Generated_Source\PSoC5/cyfitter_cfg.c **** 
 273:.\Generated_Source\PSoC5/cyfitter_cfg.c **** /*******************************************************************************
 274:.\Generated_Source\PSoC5/cyfitter_cfg.c **** * Function Name: SetAnalogRoutingPumps
 275:.\Generated_Source\PSoC5/cyfitter_cfg.c **** ********************************************************************************
 276:.\Generated_Source\PSoC5/cyfitter_cfg.c **** *
 277:.\Generated_Source\PSoC5/cyfitter_cfg.c **** * Summary:
 278:.\Generated_Source\PSoC5/cyfitter_cfg.c **** * Enables or disables the analog pumps feeding analog routing switches.
 279:.\Generated_Source\PSoC5/cyfitter_cfg.c **** * Intended to be called at startup, based on the Vdda system configuration;
 280:.\Generated_Source\PSoC5/cyfitter_cfg.c **** * may be called during operation when the user informs us that the Vdda voltage
 281:.\Generated_Source\PSoC5/cyfitter_cfg.c **** * crossed the pump threshold.
 282:.\Generated_Source\PSoC5/cyfitter_cfg.c **** *
 283:.\Generated_Source\PSoC5/cyfitter_cfg.c **** * Parameters:
 284:.\Generated_Source\PSoC5/cyfitter_cfg.c **** *  enabled - 1 to enable the pumps, 0 to disable the pumps
 285:.\Generated_Source\PSoC5/cyfitter_cfg.c **** *
ARM GAS  C:\Users\kingi\AppData\Local\Temp\cc068PKu.s 			page 15


 286:.\Generated_Source\PSoC5/cyfitter_cfg.c **** * Return:
 287:.\Generated_Source\PSoC5/cyfitter_cfg.c **** *  void
 288:.\Generated_Source\PSoC5/cyfitter_cfg.c **** *
 289:.\Generated_Source\PSoC5/cyfitter_cfg.c **** *******************************************************************************/
 290:.\Generated_Source\PSoC5/cyfitter_cfg.c **** void SetAnalogRoutingPumps(uint8 enabled)
 291:.\Generated_Source\PSoC5/cyfitter_cfg.c **** {
 508              		.loc 1 291 0
 509              		.cfi_startproc
 510              		@ args = 0, pretend = 0, frame = 16
 511              		@ frame_needed = 1, uses_anonymous_args = 0
 512              		@ link register save eliminated.
 513 0000 80B4     		push	{r7}
 514              		.cfi_def_cfa_offset 4
 515              		.cfi_offset 7, -4
 516 0002 85B0     		sub	sp, sp, #20
 517              		.cfi_def_cfa_offset 24
 518 0004 00AF     		add	r7, sp, #0
 519              		.cfi_def_cfa_register 7
 520 0006 0346     		mov	r3, r0
 521 0008 FB71     		strb	r3, [r7, #7]
 292:.\Generated_Source\PSoC5/cyfitter_cfg.c **** 	uint8 regValue = CY_GET_XTND_REG8((void CYFAR *)CYREG_PUMP_CR0);
 522              		.loc 1 292 0
 523 000a 064B     		ldr	r3, .L24
 524 000c 1B78     		ldrb	r3, [r3]
 525 000e FB73     		strb	r3, [r7, #15]
 293:.\Generated_Source\PSoC5/cyfitter_cfg.c **** 	if (enabled != 0u)
 526              		.loc 1 293 0
 527 0010 FB79     		ldrb	r3, [r7, #7]	@ zero_extendqisi2
 528 0012 002B     		cmp	r3, #0
 294:.\Generated_Source\PSoC5/cyfitter_cfg.c **** 	{
 295:.\Generated_Source\PSoC5/cyfitter_cfg.c **** 		regValue |= 0x00u;
 296:.\Generated_Source\PSoC5/cyfitter_cfg.c **** 	}
 297:.\Generated_Source\PSoC5/cyfitter_cfg.c **** 	else
 298:.\Generated_Source\PSoC5/cyfitter_cfg.c **** 	{
 299:.\Generated_Source\PSoC5/cyfitter_cfg.c **** 		regValue &= (uint8)~0x00u;
 300:.\Generated_Source\PSoC5/cyfitter_cfg.c **** 	}
 301:.\Generated_Source\PSoC5/cyfitter_cfg.c **** 	CY_SET_XTND_REG8((void CYFAR *)CYREG_PUMP_CR0, regValue);
 529              		.loc 1 301 0
 530 0014 034A     		ldr	r2, .L24
 531 0016 FB7B     		ldrb	r3, [r7, #15]
 532 0018 1370     		strb	r3, [r2]
 302:.\Generated_Source\PSoC5/cyfitter_cfg.c **** }
 533              		.loc 1 302 0
 534 001a 1437     		adds	r7, r7, #20
 535              		.cfi_def_cfa_offset 4
 536 001c BD46     		mov	sp, r7
 537              		.cfi_def_cfa_register 13
 538              		@ sp needed
 539 001e 5DF8047B 		ldr	r7, [sp], #4
 540              		.cfi_restore 7
 541              		.cfi_def_cfa_offset 0
 542 0022 7047     		bx	lr
 543              	.L25:
 544              		.align	2
 545              	.L24:
 546 0024 76580040 		.word	1073764470
 547              		.cfi_endproc
ARM GAS  C:\Users\kingi\AppData\Local\Temp\cc068PKu.s 			page 16


 548              	.LFE7:
 549              		.size	SetAnalogRoutingPumps, .-SetAnalogRoutingPumps
 550              		.section	.text.cyfitter_cfg,"ax",%progbits
 551              		.align	2
 552              		.global	cyfitter_cfg
 553              		.thumb
 554              		.thumb_func
 555              		.type	cyfitter_cfg, %function
 556              	cyfitter_cfg:
 557              	.LFB8:
 303:.\Generated_Source\PSoC5/cyfitter_cfg.c **** 
 304:.\Generated_Source\PSoC5/cyfitter_cfg.c **** #define CY_AMUX_UNUSED CYREG_BOOST_SR
 305:.\Generated_Source\PSoC5/cyfitter_cfg.c **** 
 306:.\Generated_Source\PSoC5/cyfitter_cfg.c **** 
 307:.\Generated_Source\PSoC5/cyfitter_cfg.c **** /*******************************************************************************
 308:.\Generated_Source\PSoC5/cyfitter_cfg.c **** * Function Name: cyfitter_cfg
 309:.\Generated_Source\PSoC5/cyfitter_cfg.c **** ********************************************************************************
 310:.\Generated_Source\PSoC5/cyfitter_cfg.c **** * Summary:
 311:.\Generated_Source\PSoC5/cyfitter_cfg.c **** *  This function is called by the start-up code for the selected device. It
 312:.\Generated_Source\PSoC5/cyfitter_cfg.c **** *  performs all of the necessary device configuration based on the design
 313:.\Generated_Source\PSoC5/cyfitter_cfg.c **** *  settings.  This includes settings from the Design Wide Resources (DWR) such
 314:.\Generated_Source\PSoC5/cyfitter_cfg.c **** *  as Clocks and Pins as well as any component configuration that is necessary.
 315:.\Generated_Source\PSoC5/cyfitter_cfg.c **** *
 316:.\Generated_Source\PSoC5/cyfitter_cfg.c **** * Parameters:  
 317:.\Generated_Source\PSoC5/cyfitter_cfg.c **** *   void
 318:.\Generated_Source\PSoC5/cyfitter_cfg.c **** *
 319:.\Generated_Source\PSoC5/cyfitter_cfg.c **** * Return:
 320:.\Generated_Source\PSoC5/cyfitter_cfg.c **** *   void
 321:.\Generated_Source\PSoC5/cyfitter_cfg.c **** *
 322:.\Generated_Source\PSoC5/cyfitter_cfg.c **** *******************************************************************************/
 323:.\Generated_Source\PSoC5/cyfitter_cfg.c **** 
 324:.\Generated_Source\PSoC5/cyfitter_cfg.c **** void cyfitter_cfg(void)
 325:.\Generated_Source\PSoC5/cyfitter_cfg.c **** {
 558              		.loc 1 325 0
 559              		.cfi_startproc
 560              		@ args = 0, pretend = 0, frame = 24
 561              		@ frame_needed = 1, uses_anonymous_args = 0
 562 0000 80B5     		push	{r7, lr}
 563              		.cfi_def_cfa_offset 8
 564              		.cfi_offset 7, -8
 565              		.cfi_offset 14, -4
 566 0002 86B0     		sub	sp, sp, #24
 567              		.cfi_def_cfa_offset 32
 568 0004 00AF     		add	r7, sp, #0
 569              		.cfi_def_cfa_register 7
 326:.\Generated_Source\PSoC5/cyfitter_cfg.c **** 	/* IOPINS0_0 Address: CYREG_PRT0_DM0 Size (bytes): 8 */
 327:.\Generated_Source\PSoC5/cyfitter_cfg.c **** 	static const uint8 CYCODE BS_IOPINS0_0_VAL[] = {
 328:.\Generated_Source\PSoC5/cyfitter_cfg.c **** 		0x07u, 0x00u, 0x00u, 0x00u, 0x00u, 0x00u, 0x00u, 0x00u};
 329:.\Generated_Source\PSoC5/cyfitter_cfg.c **** 
 330:.\Generated_Source\PSoC5/cyfitter_cfg.c **** 	/* IOPINS0_1 Address: CYREG_PRT1_DM0 Size (bytes): 8 */
 331:.\Generated_Source\PSoC5/cyfitter_cfg.c **** 	static const uint8 CYCODE BS_IOPINS0_1_VAL[] = {
 332:.\Generated_Source\PSoC5/cyfitter_cfg.c **** 		0x00u, 0x04u, 0x00u, 0x00u, 0x00u, 0x00u, 0x00u, 0x00u};
 333:.\Generated_Source\PSoC5/cyfitter_cfg.c **** 
 334:.\Generated_Source\PSoC5/cyfitter_cfg.c **** 	/* IOPINS0_4 Address: CYREG_PRT4_DR Size (bytes): 10 */
 335:.\Generated_Source\PSoC5/cyfitter_cfg.c **** 	static const uint8 CYCODE BS_IOPINS0_4_VAL[] = {
 336:.\Generated_Source\PSoC5/cyfitter_cfg.c **** 		0x0Eu, 0x00u, 0x00u, 0x0Eu, 0x0Eu, 0x00u, 0x0Eu, 0x00u, 0x00u, 0x00u};
 337:.\Generated_Source\PSoC5/cyfitter_cfg.c **** 
ARM GAS  C:\Users\kingi\AppData\Local\Temp\cc068PKu.s 			page 17


 338:.\Generated_Source\PSoC5/cyfitter_cfg.c **** #ifdef CYGlobalIntDisable
 339:.\Generated_Source\PSoC5/cyfitter_cfg.c **** 	/* Disable interrupts by default. Let user enable if/when they want. */
 340:.\Generated_Source\PSoC5/cyfitter_cfg.c **** 	CYGlobalIntDisable
 570              		.loc 1 340 0
 571              	@ 340 ".\Generated_Source\PSoC5\cyfitter_cfg.c" 1
 572 0006 72B6     		CPSID   i
 573              	@ 0 "" 2
 341:.\Generated_Source\PSoC5/cyfitter_cfg.c **** #endif
 342:.\Generated_Source\PSoC5/cyfitter_cfg.c **** 
 343:.\Generated_Source\PSoC5/cyfitter_cfg.c **** 
 344:.\Generated_Source\PSoC5/cyfitter_cfg.c **** 	/* Set Flash Cycles based on max possible frequency in case a glitch occurs during ClockSetup(). *
 345:.\Generated_Source\PSoC5/cyfitter_cfg.c **** 	CY_SET_XTND_REG8((void CYFAR *)(CYREG_CACHE_CC_CTL), (((CYDEV_INSTRUCT_CACHE_ENABLED) != 0) ? 0x01
 574              		.loc 1 345 0
 575              		.thumb
 576 0008 474B     		ldr	r3, .L31
 577 000a 0022     		movs	r2, #0
 578 000c 1A70     		strb	r2, [r3]
 346:.\Generated_Source\PSoC5/cyfitter_cfg.c **** 	/* Setup clocks based on selections from Clock DWR */
 347:.\Generated_Source\PSoC5/cyfitter_cfg.c **** 	ClockSetup();
 579              		.loc 1 347 0
 580 000e FFF7FEFF 		bl	ClockSetup
 348:.\Generated_Source\PSoC5/cyfitter_cfg.c **** 	/* Enable/Disable Debug functionality based on settings from System DWR */
 349:.\Generated_Source\PSoC5/cyfitter_cfg.c **** 	CY_SET_XTND_REG8((void CYFAR *)CYREG_MLOGIC_DEBUG, (CY_GET_XTND_REG8((void CYFAR *)CYREG_MLOGIC_DE
 581              		.loc 1 349 0
 582 0012 464A     		ldr	r2, .L31+4
 583 0014 454B     		ldr	r3, .L31+4
 584 0016 1B78     		ldrb	r3, [r3]
 585 0018 DBB2     		uxtb	r3, r3
 586 001a 43F00403 		orr	r3, r3, #4
 587 001e DBB2     		uxtb	r3, r3
 588 0020 1370     		strb	r3, [r2]
 589              	.LBB3:
 350:.\Generated_Source\PSoC5/cyfitter_cfg.c **** 
 351:.\Generated_Source\PSoC5/cyfitter_cfg.c **** 	{
 352:.\Generated_Source\PSoC5/cyfitter_cfg.c **** 		static const uint32 CYCODE cy_cfg_addr_table[] = {
 353:.\Generated_Source\PSoC5/cyfitter_cfg.c **** 			0x40005202u, /* Base address: 0x40005200 Count: 2 */
 354:.\Generated_Source\PSoC5/cyfitter_cfg.c **** 			0x40006405u, /* Base address: 0x40006400 Count: 5 */
 355:.\Generated_Source\PSoC5/cyfitter_cfg.c **** 			0x40006501u, /* Base address: 0x40006500 Count: 1 */
 356:.\Generated_Source\PSoC5/cyfitter_cfg.c **** 			0x4001005Au, /* Base address: 0x40010000 Count: 90 */
 357:.\Generated_Source\PSoC5/cyfitter_cfg.c **** 			0x40010135u, /* Base address: 0x40010100 Count: 53 */
 358:.\Generated_Source\PSoC5/cyfitter_cfg.c **** 			0x4001024Fu, /* Base address: 0x40010200 Count: 79 */
 359:.\Generated_Source\PSoC5/cyfitter_cfg.c **** 			0x4001035Au, /* Base address: 0x40010300 Count: 90 */
 360:.\Generated_Source\PSoC5/cyfitter_cfg.c **** 			0x4001043Bu, /* Base address: 0x40010400 Count: 59 */
 361:.\Generated_Source\PSoC5/cyfitter_cfg.c **** 			0x4001056Bu, /* Base address: 0x40010500 Count: 107 */
 362:.\Generated_Source\PSoC5/cyfitter_cfg.c **** 			0x4001065Au, /* Base address: 0x40010600 Count: 90 */
 363:.\Generated_Source\PSoC5/cyfitter_cfg.c **** 			0x40010769u, /* Base address: 0x40010700 Count: 105 */
 364:.\Generated_Source\PSoC5/cyfitter_cfg.c **** 			0x4001091Fu, /* Base address: 0x40010900 Count: 31 */
 365:.\Generated_Source\PSoC5/cyfitter_cfg.c **** 			0x40010A48u, /* Base address: 0x40010A00 Count: 72 */
 366:.\Generated_Source\PSoC5/cyfitter_cfg.c **** 			0x40010B59u, /* Base address: 0x40010B00 Count: 89 */
 367:.\Generated_Source\PSoC5/cyfitter_cfg.c **** 			0x40010C48u, /* Base address: 0x40010C00 Count: 72 */
 368:.\Generated_Source\PSoC5/cyfitter_cfg.c **** 			0x40010D48u, /* Base address: 0x40010D00 Count: 72 */
 369:.\Generated_Source\PSoC5/cyfitter_cfg.c **** 			0x40010F02u, /* Base address: 0x40010F00 Count: 2 */
 370:.\Generated_Source\PSoC5/cyfitter_cfg.c **** 			0x4001144Eu, /* Base address: 0x40011400 Count: 78 */
 371:.\Generated_Source\PSoC5/cyfitter_cfg.c **** 			0x4001154Fu, /* Base address: 0x40011500 Count: 79 */
 372:.\Generated_Source\PSoC5/cyfitter_cfg.c **** 			0x40011664u, /* Base address: 0x40011600 Count: 100 */
 373:.\Generated_Source\PSoC5/cyfitter_cfg.c **** 			0x4001175Fu, /* Base address: 0x40011700 Count: 95 */
 374:.\Generated_Source\PSoC5/cyfitter_cfg.c **** 			0x4001190Cu, /* Base address: 0x40011900 Count: 12 */
ARM GAS  C:\Users\kingi\AppData\Local\Temp\cc068PKu.s 			page 18


 375:.\Generated_Source\PSoC5/cyfitter_cfg.c **** 			0x40011B07u, /* Base address: 0x40011B00 Count: 7 */
 376:.\Generated_Source\PSoC5/cyfitter_cfg.c **** 			0x40014005u, /* Base address: 0x40014000 Count: 5 */
 377:.\Generated_Source\PSoC5/cyfitter_cfg.c **** 			0x4001410Cu, /* Base address: 0x40014100 Count: 12 */
 378:.\Generated_Source\PSoC5/cyfitter_cfg.c **** 			0x40014206u, /* Base address: 0x40014200 Count: 6 */
 379:.\Generated_Source\PSoC5/cyfitter_cfg.c **** 			0x40014301u, /* Base address: 0x40014300 Count: 1 */
 380:.\Generated_Source\PSoC5/cyfitter_cfg.c **** 			0x40014801u, /* Base address: 0x40014800 Count: 1 */
 381:.\Generated_Source\PSoC5/cyfitter_cfg.c **** 			0x40014903u, /* Base address: 0x40014900 Count: 3 */
 382:.\Generated_Source\PSoC5/cyfitter_cfg.c **** 			0x40015007u, /* Base address: 0x40015000 Count: 7 */
 383:.\Generated_Source\PSoC5/cyfitter_cfg.c **** 		};
 384:.\Generated_Source\PSoC5/cyfitter_cfg.c **** 
 385:.\Generated_Source\PSoC5/cyfitter_cfg.c **** 		static const cy_cfg_addrvalue_t CYCODE cy_cfg_data_table[] = {
 386:.\Generated_Source\PSoC5/cyfitter_cfg.c **** 			{0x20u, 0x0Au},
 387:.\Generated_Source\PSoC5/cyfitter_cfg.c **** 			{0x21u, 0x0Cu},
 388:.\Generated_Source\PSoC5/cyfitter_cfg.c **** 			{0x82u, 0x72u},
 389:.\Generated_Source\PSoC5/cyfitter_cfg.c **** 			{0x83u, 0x72u},
 390:.\Generated_Source\PSoC5/cyfitter_cfg.c **** 			{0x87u, 0x72u},
 391:.\Generated_Source\PSoC5/cyfitter_cfg.c **** 			{0x8Bu, 0x3Bu},
 392:.\Generated_Source\PSoC5/cyfitter_cfg.c **** 			{0x8Cu, 0x3Bu},
 393:.\Generated_Source\PSoC5/cyfitter_cfg.c **** 			{0x84u, 0x3Bu},
 394:.\Generated_Source\PSoC5/cyfitter_cfg.c **** 			{0x01u, 0x20u},
 395:.\Generated_Source\PSoC5/cyfitter_cfg.c **** 			{0x03u, 0x02u},
 396:.\Generated_Source\PSoC5/cyfitter_cfg.c **** 			{0x04u, 0x03u},
 397:.\Generated_Source\PSoC5/cyfitter_cfg.c **** 			{0x05u, 0x3Fu},
 398:.\Generated_Source\PSoC5/cyfitter_cfg.c **** 			{0x06u, 0x80u},
 399:.\Generated_Source\PSoC5/cyfitter_cfg.c **** 			{0x08u, 0x1Fu},
 400:.\Generated_Source\PSoC5/cyfitter_cfg.c **** 			{0x09u, 0x3Fu},
 401:.\Generated_Source\PSoC5/cyfitter_cfg.c **** 			{0x0Au, 0x20u},
 402:.\Generated_Source\PSoC5/cyfitter_cfg.c **** 			{0x0Cu, 0x14u},
 403:.\Generated_Source\PSoC5/cyfitter_cfg.c **** 			{0x0Du, 0x3Du},
 404:.\Generated_Source\PSoC5/cyfitter_cfg.c **** 			{0x0Eu, 0x23u},
 405:.\Generated_Source\PSoC5/cyfitter_cfg.c **** 			{0x0Fu, 0x02u},
 406:.\Generated_Source\PSoC5/cyfitter_cfg.c **** 			{0x12u, 0x3Cu},
 407:.\Generated_Source\PSoC5/cyfitter_cfg.c **** 			{0x14u, 0x02u},
 408:.\Generated_Source\PSoC5/cyfitter_cfg.c **** 			{0x15u, 0x08u},
 409:.\Generated_Source\PSoC5/cyfitter_cfg.c **** 			{0x16u, 0x40u},
 410:.\Generated_Source\PSoC5/cyfitter_cfg.c **** 			{0x17u, 0x02u},
 411:.\Generated_Source\PSoC5/cyfitter_cfg.c **** 			{0x18u, 0x1Fu},
 412:.\Generated_Source\PSoC5/cyfitter_cfg.c **** 			{0x1Au, 0x20u},
 413:.\Generated_Source\PSoC5/cyfitter_cfg.c **** 			{0x1Cu, 0x2Cu},
 414:.\Generated_Source\PSoC5/cyfitter_cfg.c **** 			{0x1Du, 0x01u},
 415:.\Generated_Source\PSoC5/cyfitter_cfg.c **** 			{0x1Eu, 0x13u},
 416:.\Generated_Source\PSoC5/cyfitter_cfg.c **** 			{0x1Fu, 0xC2u},
 417:.\Generated_Source\PSoC5/cyfitter_cfg.c **** 			{0x20u, 0x0Cu},
 418:.\Generated_Source\PSoC5/cyfitter_cfg.c **** 			{0x21u, 0x02u},
 419:.\Generated_Source\PSoC5/cyfitter_cfg.c **** 			{0x22u, 0x20u},
 420:.\Generated_Source\PSoC5/cyfitter_cfg.c **** 			{0x23u, 0x10u},
 421:.\Generated_Source\PSoC5/cyfitter_cfg.c **** 			{0x26u, 0x3Bu},
 422:.\Generated_Source\PSoC5/cyfitter_cfg.c **** 			{0x28u, 0x01u},
 423:.\Generated_Source\PSoC5/cyfitter_cfg.c **** 			{0x29u, 0x04u},
 424:.\Generated_Source\PSoC5/cyfitter_cfg.c **** 			{0x2Au, 0x40u},
 425:.\Generated_Source\PSoC5/cyfitter_cfg.c **** 			{0x2Bu, 0x02u},
 426:.\Generated_Source\PSoC5/cyfitter_cfg.c **** 			{0x2Fu, 0x80u},
 427:.\Generated_Source\PSoC5/cyfitter_cfg.c **** 			{0x30u, 0x03u},
 428:.\Generated_Source\PSoC5/cyfitter_cfg.c **** 			{0x31u, 0x40u},
 429:.\Generated_Source\PSoC5/cyfitter_cfg.c **** 			{0x33u, 0x80u},
 430:.\Generated_Source\PSoC5/cyfitter_cfg.c **** 			{0x34u, 0x3Cu},
 431:.\Generated_Source\PSoC5/cyfitter_cfg.c **** 			{0x35u, 0x3Fu},
ARM GAS  C:\Users\kingi\AppData\Local\Temp\cc068PKu.s 			page 19


 432:.\Generated_Source\PSoC5/cyfitter_cfg.c **** 			{0x36u, 0xC0u},
 433:.\Generated_Source\PSoC5/cyfitter_cfg.c **** 			{0x3Au, 0x20u},
 434:.\Generated_Source\PSoC5/cyfitter_cfg.c **** 			{0x3Eu, 0x40u},
 435:.\Generated_Source\PSoC5/cyfitter_cfg.c **** 			{0x3Fu, 0x04u},
 436:.\Generated_Source\PSoC5/cyfitter_cfg.c **** 			{0x58u, 0x04u},
 437:.\Generated_Source\PSoC5/cyfitter_cfg.c **** 			{0x59u, 0x04u},
 438:.\Generated_Source\PSoC5/cyfitter_cfg.c **** 			{0x5Fu, 0x01u},
 439:.\Generated_Source\PSoC5/cyfitter_cfg.c **** 			{0x80u, 0xE5u},
 440:.\Generated_Source\PSoC5/cyfitter_cfg.c **** 			{0x81u, 0x42u},
 441:.\Generated_Source\PSoC5/cyfitter_cfg.c **** 			{0x82u, 0x12u},
 442:.\Generated_Source\PSoC5/cyfitter_cfg.c **** 			{0x84u, 0xF9u},
 443:.\Generated_Source\PSoC5/cyfitter_cfg.c **** 			{0x85u, 0x18u},
 444:.\Generated_Source\PSoC5/cyfitter_cfg.c **** 			{0x86u, 0x02u},
 445:.\Generated_Source\PSoC5/cyfitter_cfg.c **** 			{0x87u, 0x63u},
 446:.\Generated_Source\PSoC5/cyfitter_cfg.c **** 			{0x88u, 0x99u},
 447:.\Generated_Source\PSoC5/cyfitter_cfg.c **** 			{0x89u, 0x03u},
 448:.\Generated_Source\PSoC5/cyfitter_cfg.c **** 			{0x8Au, 0x66u},
 449:.\Generated_Source\PSoC5/cyfitter_cfg.c **** 			{0x8Cu, 0x04u},
 450:.\Generated_Source\PSoC5/cyfitter_cfg.c **** 			{0x8Fu, 0x0Bu},
 451:.\Generated_Source\PSoC5/cyfitter_cfg.c **** 			{0x90u, 0x81u},
 452:.\Generated_Source\PSoC5/cyfitter_cfg.c **** 			{0x91u, 0x02u},
 453:.\Generated_Source\PSoC5/cyfitter_cfg.c **** 			{0x92u, 0x06u},
 454:.\Generated_Source\PSoC5/cyfitter_cfg.c **** 			{0x95u, 0x78u},
 455:.\Generated_Source\PSoC5/cyfitter_cfg.c **** 			{0x96u, 0x01u},
 456:.\Generated_Source\PSoC5/cyfitter_cfg.c **** 			{0x98u, 0x24u},
 457:.\Generated_Source\PSoC5/cyfitter_cfg.c **** 			{0x9Bu, 0x04u},
 458:.\Generated_Source\PSoC5/cyfitter_cfg.c **** 			{0x9Du, 0x63u},
 459:.\Generated_Source\PSoC5/cyfitter_cfg.c **** 			{0x9Eu, 0x9Eu},
 460:.\Generated_Source\PSoC5/cyfitter_cfg.c **** 			{0x9Fu, 0x10u},
 461:.\Generated_Source\PSoC5/cyfitter_cfg.c **** 			{0xA0u, 0x01u},
 462:.\Generated_Source\PSoC5/cyfitter_cfg.c **** 			{0xA3u, 0x1Bu},
 463:.\Generated_Source\PSoC5/cyfitter_cfg.c **** 			{0xA4u, 0x64u},
 464:.\Generated_Source\PSoC5/cyfitter_cfg.c **** 			{0xA5u, 0x21u},
 465:.\Generated_Source\PSoC5/cyfitter_cfg.c **** 			{0xA8u, 0x67u},
 466:.\Generated_Source\PSoC5/cyfitter_cfg.c **** 			{0xA9u, 0x63u},
 467:.\Generated_Source\PSoC5/cyfitter_cfg.c **** 			{0xAAu, 0x88u},
 468:.\Generated_Source\PSoC5/cyfitter_cfg.c **** 			{0xACu, 0x44u},
 469:.\Generated_Source\PSoC5/cyfitter_cfg.c **** 			{0xADu, 0x63u},
 470:.\Generated_Source\PSoC5/cyfitter_cfg.c **** 			{0xAFu, 0x18u},
 471:.\Generated_Source\PSoC5/cyfitter_cfg.c **** 			{0xB0u, 0xE0u},
 472:.\Generated_Source\PSoC5/cyfitter_cfg.c **** 			{0xB1u, 0x07u},
 473:.\Generated_Source\PSoC5/cyfitter_cfg.c **** 			{0xB2u, 0x7Fu},
 474:.\Generated_Source\PSoC5/cyfitter_cfg.c **** 			{0xB3u, 0x78u},
 475:.\Generated_Source\PSoC5/cyfitter_cfg.c **** 			{0xBBu, 0x0Au},
 476:.\Generated_Source\PSoC5/cyfitter_cfg.c **** 			{0xBEu, 0x04u},
 477:.\Generated_Source\PSoC5/cyfitter_cfg.c **** 			{0xD2u, 0x03u},
 478:.\Generated_Source\PSoC5/cyfitter_cfg.c **** 			{0xD8u, 0x04u},
 479:.\Generated_Source\PSoC5/cyfitter_cfg.c **** 			{0xD9u, 0x04u},
 480:.\Generated_Source\PSoC5/cyfitter_cfg.c **** 			{0xDBu, 0x04u},
 481:.\Generated_Source\PSoC5/cyfitter_cfg.c **** 			{0xDCu, 0x22u},
 482:.\Generated_Source\PSoC5/cyfitter_cfg.c **** 			{0xDDu, 0x20u},
 483:.\Generated_Source\PSoC5/cyfitter_cfg.c **** 			{0xDFu, 0x01u},
 484:.\Generated_Source\PSoC5/cyfitter_cfg.c **** 			{0x00u, 0x08u},
 485:.\Generated_Source\PSoC5/cyfitter_cfg.c **** 			{0x01u, 0x20u},
 486:.\Generated_Source\PSoC5/cyfitter_cfg.c **** 			{0x02u, 0x01u},
 487:.\Generated_Source\PSoC5/cyfitter_cfg.c **** 			{0x04u, 0x80u},
 488:.\Generated_Source\PSoC5/cyfitter_cfg.c **** 			{0x05u, 0x04u},
ARM GAS  C:\Users\kingi\AppData\Local\Temp\cc068PKu.s 			page 20


 489:.\Generated_Source\PSoC5/cyfitter_cfg.c **** 			{0x07u, 0x48u},
 490:.\Generated_Source\PSoC5/cyfitter_cfg.c **** 			{0x08u, 0x88u},
 491:.\Generated_Source\PSoC5/cyfitter_cfg.c **** 			{0x0Au, 0x88u},
 492:.\Generated_Source\PSoC5/cyfitter_cfg.c **** 			{0x0Cu, 0x20u},
 493:.\Generated_Source\PSoC5/cyfitter_cfg.c **** 			{0x0Du, 0x80u},
 494:.\Generated_Source\PSoC5/cyfitter_cfg.c **** 			{0x0Eu, 0x90u},
 495:.\Generated_Source\PSoC5/cyfitter_cfg.c **** 			{0x11u, 0x10u},
 496:.\Generated_Source\PSoC5/cyfitter_cfg.c **** 			{0x12u, 0x60u},
 497:.\Generated_Source\PSoC5/cyfitter_cfg.c **** 			{0x14u, 0x40u},
 498:.\Generated_Source\PSoC5/cyfitter_cfg.c **** 			{0x16u, 0x22u},
 499:.\Generated_Source\PSoC5/cyfitter_cfg.c **** 			{0x17u, 0x10u},
 500:.\Generated_Source\PSoC5/cyfitter_cfg.c **** 			{0x19u, 0x21u},
 501:.\Generated_Source\PSoC5/cyfitter_cfg.c **** 			{0x1Au, 0x01u},
 502:.\Generated_Source\PSoC5/cyfitter_cfg.c **** 			{0x1Eu, 0x20u},
 503:.\Generated_Source\PSoC5/cyfitter_cfg.c **** 			{0x1Fu, 0x01u},
 504:.\Generated_Source\PSoC5/cyfitter_cfg.c **** 			{0x20u, 0x40u},
 505:.\Generated_Source\PSoC5/cyfitter_cfg.c **** 			{0x22u, 0x20u},
 506:.\Generated_Source\PSoC5/cyfitter_cfg.c **** 			{0x23u, 0x20u},
 507:.\Generated_Source\PSoC5/cyfitter_cfg.c **** 			{0x27u, 0x50u},
 508:.\Generated_Source\PSoC5/cyfitter_cfg.c **** 			{0x28u, 0x80u},
 509:.\Generated_Source\PSoC5/cyfitter_cfg.c **** 			{0x29u, 0x20u},
 510:.\Generated_Source\PSoC5/cyfitter_cfg.c **** 			{0x2Au, 0x40u},
 511:.\Generated_Source\PSoC5/cyfitter_cfg.c **** 			{0x2Cu, 0x20u},
 512:.\Generated_Source\PSoC5/cyfitter_cfg.c **** 			{0x2Eu, 0x60u},
 513:.\Generated_Source\PSoC5/cyfitter_cfg.c **** 			{0x2Fu, 0x40u},
 514:.\Generated_Source\PSoC5/cyfitter_cfg.c **** 			{0x32u, 0x44u},
 515:.\Generated_Source\PSoC5/cyfitter_cfg.c **** 			{0x35u, 0x04u},
 516:.\Generated_Source\PSoC5/cyfitter_cfg.c **** 			{0x36u, 0x11u},
 517:.\Generated_Source\PSoC5/cyfitter_cfg.c **** 			{0x37u, 0x40u},
 518:.\Generated_Source\PSoC5/cyfitter_cfg.c **** 			{0x39u, 0xA8u},
 519:.\Generated_Source\PSoC5/cyfitter_cfg.c **** 			{0x3Au, 0x01u},
 520:.\Generated_Source\PSoC5/cyfitter_cfg.c **** 			{0x3Cu, 0x04u},
 521:.\Generated_Source\PSoC5/cyfitter_cfg.c **** 			{0x3Du, 0xA0u},
 522:.\Generated_Source\PSoC5/cyfitter_cfg.c **** 			{0x3Eu, 0x02u},
 523:.\Generated_Source\PSoC5/cyfitter_cfg.c **** 			{0x6Du, 0xA0u},
 524:.\Generated_Source\PSoC5/cyfitter_cfg.c **** 			{0x6Eu, 0x80u},
 525:.\Generated_Source\PSoC5/cyfitter_cfg.c **** 			{0x78u, 0x04u},
 526:.\Generated_Source\PSoC5/cyfitter_cfg.c **** 			{0x7Au, 0x22u},
 527:.\Generated_Source\PSoC5/cyfitter_cfg.c **** 			{0x7Bu, 0x01u},
 528:.\Generated_Source\PSoC5/cyfitter_cfg.c **** 			{0x82u, 0x40u},
 529:.\Generated_Source\PSoC5/cyfitter_cfg.c **** 			{0x83u, 0x10u},
 530:.\Generated_Source\PSoC5/cyfitter_cfg.c **** 			{0x8Au, 0x40u},
 531:.\Generated_Source\PSoC5/cyfitter_cfg.c **** 			{0xC0u, 0xF7u},
 532:.\Generated_Source\PSoC5/cyfitter_cfg.c **** 			{0xC2u, 0xFFu},
 533:.\Generated_Source\PSoC5/cyfitter_cfg.c **** 			{0xC4u, 0xFEu},
 534:.\Generated_Source\PSoC5/cyfitter_cfg.c **** 			{0xCAu, 0xFDu},
 535:.\Generated_Source\PSoC5/cyfitter_cfg.c **** 			{0xCCu, 0xFAu},
 536:.\Generated_Source\PSoC5/cyfitter_cfg.c **** 			{0xCEu, 0xFFu},
 537:.\Generated_Source\PSoC5/cyfitter_cfg.c **** 			{0x01u, 0x12u},
 538:.\Generated_Source\PSoC5/cyfitter_cfg.c **** 			{0x05u, 0x68u},
 539:.\Generated_Source\PSoC5/cyfitter_cfg.c **** 			{0x07u, 0x93u},
 540:.\Generated_Source\PSoC5/cyfitter_cfg.c **** 			{0x09u, 0x07u},
 541:.\Generated_Source\PSoC5/cyfitter_cfg.c **** 			{0x0Fu, 0xBFu},
 542:.\Generated_Source\PSoC5/cyfitter_cfg.c **** 			{0x10u, 0x01u},
 543:.\Generated_Source\PSoC5/cyfitter_cfg.c **** 			{0x11u, 0x12u},
 544:.\Generated_Source\PSoC5/cyfitter_cfg.c **** 			{0x12u, 0x02u},
 545:.\Generated_Source\PSoC5/cyfitter_cfg.c **** 			{0x14u, 0x02u},
ARM GAS  C:\Users\kingi\AppData\Local\Temp\cc068PKu.s 			page 21


 546:.\Generated_Source\PSoC5/cyfitter_cfg.c **** 			{0x15u, 0x48u},
 547:.\Generated_Source\PSoC5/cyfitter_cfg.c **** 			{0x17u, 0x97u},
 548:.\Generated_Source\PSoC5/cyfitter_cfg.c **** 			{0x19u, 0xF7u},
 549:.\Generated_Source\PSoC5/cyfitter_cfg.c **** 			{0x1Au, 0x01u},
 550:.\Generated_Source\PSoC5/cyfitter_cfg.c **** 			{0x1Du, 0x7Fu},
 551:.\Generated_Source\PSoC5/cyfitter_cfg.c **** 			{0x1Fu, 0x80u},
 552:.\Generated_Source\PSoC5/cyfitter_cfg.c **** 			{0x20u, 0x08u},
 553:.\Generated_Source\PSoC5/cyfitter_cfg.c **** 			{0x23u, 0xBFu},
 554:.\Generated_Source\PSoC5/cyfitter_cfg.c **** 			{0x24u, 0x04u},
 555:.\Generated_Source\PSoC5/cyfitter_cfg.c **** 			{0x25u, 0x11u},
 556:.\Generated_Source\PSoC5/cyfitter_cfg.c **** 			{0x29u, 0x13u},
 557:.\Generated_Source\PSoC5/cyfitter_cfg.c **** 			{0x2Au, 0x01u},
 558:.\Generated_Source\PSoC5/cyfitter_cfg.c **** 			{0x2Fu, 0x24u},
 559:.\Generated_Source\PSoC5/cyfitter_cfg.c **** 			{0x30u, 0x04u},
 560:.\Generated_Source\PSoC5/cyfitter_cfg.c **** 			{0x31u, 0x7Fu},
 561:.\Generated_Source\PSoC5/cyfitter_cfg.c **** 			{0x32u, 0x08u},
 562:.\Generated_Source\PSoC5/cyfitter_cfg.c **** 			{0x36u, 0x03u},
 563:.\Generated_Source\PSoC5/cyfitter_cfg.c **** 			{0x37u, 0xC0u},
 564:.\Generated_Source\PSoC5/cyfitter_cfg.c **** 			{0x3Eu, 0x45u},
 565:.\Generated_Source\PSoC5/cyfitter_cfg.c **** 			{0x3Fu, 0x41u},
 566:.\Generated_Source\PSoC5/cyfitter_cfg.c **** 			{0x56u, 0x02u},
 567:.\Generated_Source\PSoC5/cyfitter_cfg.c **** 			{0x57u, 0x13u},
 568:.\Generated_Source\PSoC5/cyfitter_cfg.c **** 			{0x58u, 0x04u},
 569:.\Generated_Source\PSoC5/cyfitter_cfg.c **** 			{0x59u, 0x04u},
 570:.\Generated_Source\PSoC5/cyfitter_cfg.c **** 			{0x5Bu, 0x04u},
 571:.\Generated_Source\PSoC5/cyfitter_cfg.c **** 			{0x5Du, 0x20u},
 572:.\Generated_Source\PSoC5/cyfitter_cfg.c **** 			{0x5Fu, 0x01u},
 573:.\Generated_Source\PSoC5/cyfitter_cfg.c **** 			{0x80u, 0x02u},
 574:.\Generated_Source\PSoC5/cyfitter_cfg.c **** 			{0x84u, 0x03u},
 575:.\Generated_Source\PSoC5/cyfitter_cfg.c **** 			{0x88u, 0xE7u},
 576:.\Generated_Source\PSoC5/cyfitter_cfg.c **** 			{0x89u, 0x3Fu},
 577:.\Generated_Source\PSoC5/cyfitter_cfg.c **** 			{0x8Au, 0x18u},
 578:.\Generated_Source\PSoC5/cyfitter_cfg.c **** 			{0x8Cu, 0x01u},
 579:.\Generated_Source\PSoC5/cyfitter_cfg.c **** 			{0x8Du, 0x3Du},
 580:.\Generated_Source\PSoC5/cyfitter_cfg.c **** 			{0x8Fu, 0x02u},
 581:.\Generated_Source\PSoC5/cyfitter_cfg.c **** 			{0x90u, 0x03u},
 582:.\Generated_Source\PSoC5/cyfitter_cfg.c **** 			{0x91u, 0x08u},
 583:.\Generated_Source\PSoC5/cyfitter_cfg.c **** 			{0x92u, 0x1Cu},
 584:.\Generated_Source\PSoC5/cyfitter_cfg.c **** 			{0x93u, 0x02u},
 585:.\Generated_Source\PSoC5/cyfitter_cfg.c **** 			{0x94u, 0x60u},
 586:.\Generated_Source\PSoC5/cyfitter_cfg.c **** 			{0x95u, 0x20u},
 587:.\Generated_Source\PSoC5/cyfitter_cfg.c **** 			{0x97u, 0x02u},
 588:.\Generated_Source\PSoC5/cyfitter_cfg.c **** 			{0x98u, 0x8Fu},
 589:.\Generated_Source\PSoC5/cyfitter_cfg.c **** 			{0x99u, 0x04u},
 590:.\Generated_Source\PSoC5/cyfitter_cfg.c **** 			{0x9Au, 0x70u},
 591:.\Generated_Source\PSoC5/cyfitter_cfg.c **** 			{0x9Bu, 0x02u},
 592:.\Generated_Source\PSoC5/cyfitter_cfg.c **** 			{0x9Cu, 0xFBu},
 593:.\Generated_Source\PSoC5/cyfitter_cfg.c **** 			{0x9Du, 0x02u},
 594:.\Generated_Source\PSoC5/cyfitter_cfg.c **** 			{0x9Eu, 0x04u},
 595:.\Generated_Source\PSoC5/cyfitter_cfg.c **** 			{0x9Fu, 0x10u},
 596:.\Generated_Source\PSoC5/cyfitter_cfg.c **** 			{0xA0u, 0x40u},
 597:.\Generated_Source\PSoC5/cyfitter_cfg.c **** 			{0xA4u, 0x20u},
 598:.\Generated_Source\PSoC5/cyfitter_cfg.c **** 			{0xA5u, 0x3Fu},
 599:.\Generated_Source\PSoC5/cyfitter_cfg.c **** 			{0xAAu, 0x1Fu},
 600:.\Generated_Source\PSoC5/cyfitter_cfg.c **** 			{0xACu, 0xECu},
 601:.\Generated_Source\PSoC5/cyfitter_cfg.c **** 			{0xADu, 0x01u},
 602:.\Generated_Source\PSoC5/cyfitter_cfg.c **** 			{0xAEu, 0x13u},
ARM GAS  C:\Users\kingi\AppData\Local\Temp\cc068PKu.s 			page 22


 603:.\Generated_Source\PSoC5/cyfitter_cfg.c **** 			{0xAFu, 0x02u},
 604:.\Generated_Source\PSoC5/cyfitter_cfg.c **** 			{0xB1u, 0x3Fu},
 605:.\Generated_Source\PSoC5/cyfitter_cfg.c **** 			{0xB4u, 0x7Fu},
 606:.\Generated_Source\PSoC5/cyfitter_cfg.c **** 			{0xB6u, 0x90u},
 607:.\Generated_Source\PSoC5/cyfitter_cfg.c **** 			{0xBAu, 0x20u},
 608:.\Generated_Source\PSoC5/cyfitter_cfg.c **** 			{0xBEu, 0x40u},
 609:.\Generated_Source\PSoC5/cyfitter_cfg.c **** 			{0xD6u, 0x02u},
 610:.\Generated_Source\PSoC5/cyfitter_cfg.c **** 			{0xD7u, 0x10u},
 611:.\Generated_Source\PSoC5/cyfitter_cfg.c **** 			{0xD8u, 0x04u},
 612:.\Generated_Source\PSoC5/cyfitter_cfg.c **** 			{0xD9u, 0x04u},
 613:.\Generated_Source\PSoC5/cyfitter_cfg.c **** 			{0xDBu, 0x04u},
 614:.\Generated_Source\PSoC5/cyfitter_cfg.c **** 			{0xDCu, 0x10u},
 615:.\Generated_Source\PSoC5/cyfitter_cfg.c **** 			{0xDFu, 0x01u},
 616:.\Generated_Source\PSoC5/cyfitter_cfg.c **** 			{0x00u, 0x08u},
 617:.\Generated_Source\PSoC5/cyfitter_cfg.c **** 			{0x01u, 0x22u},
 618:.\Generated_Source\PSoC5/cyfitter_cfg.c **** 			{0x02u, 0x02u},
 619:.\Generated_Source\PSoC5/cyfitter_cfg.c **** 			{0x08u, 0x80u},
 620:.\Generated_Source\PSoC5/cyfitter_cfg.c **** 			{0x0Au, 0x84u},
 621:.\Generated_Source\PSoC5/cyfitter_cfg.c **** 			{0x0Bu, 0x10u},
 622:.\Generated_Source\PSoC5/cyfitter_cfg.c **** 			{0x0Du, 0x20u},
 623:.\Generated_Source\PSoC5/cyfitter_cfg.c **** 			{0x0Eu, 0x80u},
 624:.\Generated_Source\PSoC5/cyfitter_cfg.c **** 			{0x0Fu, 0x20u},
 625:.\Generated_Source\PSoC5/cyfitter_cfg.c **** 			{0x10u, 0x04u},
 626:.\Generated_Source\PSoC5/cyfitter_cfg.c **** 			{0x12u, 0x01u},
 627:.\Generated_Source\PSoC5/cyfitter_cfg.c **** 			{0x13u, 0x05u},
 628:.\Generated_Source\PSoC5/cyfitter_cfg.c **** 			{0x14u, 0x20u},
 629:.\Generated_Source\PSoC5/cyfitter_cfg.c **** 			{0x15u, 0x02u},
 630:.\Generated_Source\PSoC5/cyfitter_cfg.c **** 			{0x16u, 0x08u},
 631:.\Generated_Source\PSoC5/cyfitter_cfg.c **** 			{0x19u, 0x80u},
 632:.\Generated_Source\PSoC5/cyfitter_cfg.c **** 			{0x1Au, 0x0Cu},
 633:.\Generated_Source\PSoC5/cyfitter_cfg.c **** 			{0x1Cu, 0x20u},
 634:.\Generated_Source\PSoC5/cyfitter_cfg.c **** 			{0x1Du, 0x02u},
 635:.\Generated_Source\PSoC5/cyfitter_cfg.c **** 			{0x1Fu, 0x80u},
 636:.\Generated_Source\PSoC5/cyfitter_cfg.c **** 			{0x23u, 0x40u},
 637:.\Generated_Source\PSoC5/cyfitter_cfg.c **** 			{0x27u, 0x82u},
 638:.\Generated_Source\PSoC5/cyfitter_cfg.c **** 			{0x2Au, 0x04u},
 639:.\Generated_Source\PSoC5/cyfitter_cfg.c **** 			{0x2Bu, 0x02u},
 640:.\Generated_Source\PSoC5/cyfitter_cfg.c **** 			{0x2Cu, 0x22u},
 641:.\Generated_Source\PSoC5/cyfitter_cfg.c **** 			{0x2Eu, 0x20u},
 642:.\Generated_Source\PSoC5/cyfitter_cfg.c **** 			{0x2Fu, 0x50u},
 643:.\Generated_Source\PSoC5/cyfitter_cfg.c **** 			{0x31u, 0x08u},
 644:.\Generated_Source\PSoC5/cyfitter_cfg.c **** 			{0x32u, 0x81u},
 645:.\Generated_Source\PSoC5/cyfitter_cfg.c **** 			{0x33u, 0x20u},
 646:.\Generated_Source\PSoC5/cyfitter_cfg.c **** 			{0x35u, 0x04u},
 647:.\Generated_Source\PSoC5/cyfitter_cfg.c **** 			{0x36u, 0x01u},
 648:.\Generated_Source\PSoC5/cyfitter_cfg.c **** 			{0x37u, 0x50u},
 649:.\Generated_Source\PSoC5/cyfitter_cfg.c **** 			{0x39u, 0x40u},
 650:.\Generated_Source\PSoC5/cyfitter_cfg.c **** 			{0x3Au, 0x10u},
 651:.\Generated_Source\PSoC5/cyfitter_cfg.c **** 			{0x3Cu, 0x04u},
 652:.\Generated_Source\PSoC5/cyfitter_cfg.c **** 			{0x3Du, 0xA0u},
 653:.\Generated_Source\PSoC5/cyfitter_cfg.c **** 			{0x3Eu, 0x02u},
 654:.\Generated_Source\PSoC5/cyfitter_cfg.c **** 			{0x59u, 0x80u},
 655:.\Generated_Source\PSoC5/cyfitter_cfg.c **** 			{0x5Fu, 0x02u},
 656:.\Generated_Source\PSoC5/cyfitter_cfg.c **** 			{0x68u, 0x41u},
 657:.\Generated_Source\PSoC5/cyfitter_cfg.c **** 			{0x69u, 0xA9u},
 658:.\Generated_Source\PSoC5/cyfitter_cfg.c **** 			{0x6Cu, 0x40u},
 659:.\Generated_Source\PSoC5/cyfitter_cfg.c **** 			{0x6Du, 0x04u},
ARM GAS  C:\Users\kingi\AppData\Local\Temp\cc068PKu.s 			page 23


 660:.\Generated_Source\PSoC5/cyfitter_cfg.c **** 			{0x6Eu, 0x22u},
 661:.\Generated_Source\PSoC5/cyfitter_cfg.c **** 			{0x6Fu, 0x01u},
 662:.\Generated_Source\PSoC5/cyfitter_cfg.c **** 			{0x70u, 0x04u},
 663:.\Generated_Source\PSoC5/cyfitter_cfg.c **** 			{0x73u, 0x15u},
 664:.\Generated_Source\PSoC5/cyfitter_cfg.c **** 			{0x74u, 0x20u},
 665:.\Generated_Source\PSoC5/cyfitter_cfg.c **** 			{0x76u, 0x22u},
 666:.\Generated_Source\PSoC5/cyfitter_cfg.c **** 			{0x81u, 0x03u},
 667:.\Generated_Source\PSoC5/cyfitter_cfg.c **** 			{0x84u, 0x15u},
 668:.\Generated_Source\PSoC5/cyfitter_cfg.c **** 			{0x86u, 0x04u},
 669:.\Generated_Source\PSoC5/cyfitter_cfg.c **** 			{0x89u, 0x01u},
 670:.\Generated_Source\PSoC5/cyfitter_cfg.c **** 			{0x8Bu, 0x04u},
 671:.\Generated_Source\PSoC5/cyfitter_cfg.c **** 			{0x90u, 0x40u},
 672:.\Generated_Source\PSoC5/cyfitter_cfg.c **** 			{0x92u, 0x41u},
 673:.\Generated_Source\PSoC5/cyfitter_cfg.c **** 			{0x93u, 0x02u},
 674:.\Generated_Source\PSoC5/cyfitter_cfg.c **** 			{0x94u, 0x84u},
 675:.\Generated_Source\PSoC5/cyfitter_cfg.c **** 			{0x95u, 0xA8u},
 676:.\Generated_Source\PSoC5/cyfitter_cfg.c **** 			{0x96u, 0x98u},
 677:.\Generated_Source\PSoC5/cyfitter_cfg.c **** 			{0x97u, 0x80u},
 678:.\Generated_Source\PSoC5/cyfitter_cfg.c **** 			{0x98u, 0x04u},
 679:.\Generated_Source\PSoC5/cyfitter_cfg.c **** 			{0x99u, 0x21u},
 680:.\Generated_Source\PSoC5/cyfitter_cfg.c **** 			{0x9Bu, 0x70u},
 681:.\Generated_Source\PSoC5/cyfitter_cfg.c **** 			{0x9Cu, 0xC8u},
 682:.\Generated_Source\PSoC5/cyfitter_cfg.c **** 			{0x9Du, 0x04u},
 683:.\Generated_Source\PSoC5/cyfitter_cfg.c **** 			{0x9Eu, 0x63u},
 684:.\Generated_Source\PSoC5/cyfitter_cfg.c **** 			{0x9Fu, 0x08u},
 685:.\Generated_Source\PSoC5/cyfitter_cfg.c **** 			{0xA1u, 0x50u},
 686:.\Generated_Source\PSoC5/cyfitter_cfg.c **** 			{0xA2u, 0x62u},
 687:.\Generated_Source\PSoC5/cyfitter_cfg.c **** 			{0xA4u, 0x24u},
 688:.\Generated_Source\PSoC5/cyfitter_cfg.c **** 			{0xA5u, 0x80u},
 689:.\Generated_Source\PSoC5/cyfitter_cfg.c **** 			{0xA6u, 0x01u},
 690:.\Generated_Source\PSoC5/cyfitter_cfg.c **** 			{0xADu, 0x20u},
 691:.\Generated_Source\PSoC5/cyfitter_cfg.c **** 			{0xB1u, 0x10u},
 692:.\Generated_Source\PSoC5/cyfitter_cfg.c **** 			{0xB3u, 0x01u},
 693:.\Generated_Source\PSoC5/cyfitter_cfg.c **** 			{0xB6u, 0x20u},
 694:.\Generated_Source\PSoC5/cyfitter_cfg.c **** 			{0xC0u, 0x0Fu},
 695:.\Generated_Source\PSoC5/cyfitter_cfg.c **** 			{0xC2u, 0x7Fu},
 696:.\Generated_Source\PSoC5/cyfitter_cfg.c **** 			{0xC4u, 0x7Fu},
 697:.\Generated_Source\PSoC5/cyfitter_cfg.c **** 			{0xCAu, 0xFAu},
 698:.\Generated_Source\PSoC5/cyfitter_cfg.c **** 			{0xCCu, 0xFFu},
 699:.\Generated_Source\PSoC5/cyfitter_cfg.c **** 			{0xCEu, 0xFCu},
 700:.\Generated_Source\PSoC5/cyfitter_cfg.c **** 			{0xD6u, 0x88u},
 701:.\Generated_Source\PSoC5/cyfitter_cfg.c **** 			{0xE0u, 0x02u},
 702:.\Generated_Source\PSoC5/cyfitter_cfg.c **** 			{0xE4u, 0x08u},
 703:.\Generated_Source\PSoC5/cyfitter_cfg.c **** 			{0xE6u, 0x03u},
 704:.\Generated_Source\PSoC5/cyfitter_cfg.c **** 			{0xE8u, 0x80u},
 705:.\Generated_Source\PSoC5/cyfitter_cfg.c **** 			{0xECu, 0x02u},
 706:.\Generated_Source\PSoC5/cyfitter_cfg.c **** 			{0x80u, 0x20u},
 707:.\Generated_Source\PSoC5/cyfitter_cfg.c **** 			{0x82u, 0x44u},
 708:.\Generated_Source\PSoC5/cyfitter_cfg.c **** 			{0x83u, 0x04u},
 709:.\Generated_Source\PSoC5/cyfitter_cfg.c **** 			{0x84u, 0x02u},
 710:.\Generated_Source\PSoC5/cyfitter_cfg.c **** 			{0x86u, 0x44u},
 711:.\Generated_Source\PSoC5/cyfitter_cfg.c **** 			{0x87u, 0x02u},
 712:.\Generated_Source\PSoC5/cyfitter_cfg.c **** 			{0x88u, 0x08u},
 713:.\Generated_Source\PSoC5/cyfitter_cfg.c **** 			{0x8Au, 0x44u},
 714:.\Generated_Source\PSoC5/cyfitter_cfg.c **** 			{0x8Bu, 0x01u},
 715:.\Generated_Source\PSoC5/cyfitter_cfg.c **** 			{0x90u, 0x01u},
 716:.\Generated_Source\PSoC5/cyfitter_cfg.c **** 			{0x92u, 0xFEu},
ARM GAS  C:\Users\kingi\AppData\Local\Temp\cc068PKu.s 			page 24


 717:.\Generated_Source\PSoC5/cyfitter_cfg.c **** 			{0x93u, 0x01u},
 718:.\Generated_Source\PSoC5/cyfitter_cfg.c **** 			{0x94u, 0x3Eu},
 719:.\Generated_Source\PSoC5/cyfitter_cfg.c **** 			{0x9Au, 0xC0u},
 720:.\Generated_Source\PSoC5/cyfitter_cfg.c **** 			{0x9Eu, 0x41u},
 721:.\Generated_Source\PSoC5/cyfitter_cfg.c **** 			{0xA0u, 0x3Au},
 722:.\Generated_Source\PSoC5/cyfitter_cfg.c **** 			{0xA2u, 0x04u},
 723:.\Generated_Source\PSoC5/cyfitter_cfg.c **** 			{0xA4u, 0x3Eu},
 724:.\Generated_Source\PSoC5/cyfitter_cfg.c **** 			{0xA8u, 0x44u},
 725:.\Generated_Source\PSoC5/cyfitter_cfg.c **** 			{0xAAu, 0x10u},
 726:.\Generated_Source\PSoC5/cyfitter_cfg.c **** 			{0xAFu, 0x04u},
 727:.\Generated_Source\PSoC5/cyfitter_cfg.c **** 			{0xB0u, 0x3Fu},
 728:.\Generated_Source\PSoC5/cyfitter_cfg.c **** 			{0xB2u, 0x40u},
 729:.\Generated_Source\PSoC5/cyfitter_cfg.c **** 			{0xB3u, 0x03u},
 730:.\Generated_Source\PSoC5/cyfitter_cfg.c **** 			{0xB4u, 0x80u},
 731:.\Generated_Source\PSoC5/cyfitter_cfg.c **** 			{0xB5u, 0x04u},
 732:.\Generated_Source\PSoC5/cyfitter_cfg.c **** 			{0xBEu, 0x15u},
 733:.\Generated_Source\PSoC5/cyfitter_cfg.c **** 			{0xBFu, 0x14u},
 734:.\Generated_Source\PSoC5/cyfitter_cfg.c **** 			{0xC0u, 0x34u},
 735:.\Generated_Source\PSoC5/cyfitter_cfg.c **** 			{0xC1u, 0x02u},
 736:.\Generated_Source\PSoC5/cyfitter_cfg.c **** 			{0xC2u, 0x05u},
 737:.\Generated_Source\PSoC5/cyfitter_cfg.c **** 			{0xC4u, 0x06u},
 738:.\Generated_Source\PSoC5/cyfitter_cfg.c **** 			{0xC5u, 0xCDu},
 739:.\Generated_Source\PSoC5/cyfitter_cfg.c **** 			{0xC6u, 0xF0u},
 740:.\Generated_Source\PSoC5/cyfitter_cfg.c **** 			{0xC7u, 0xBEu},
 741:.\Generated_Source\PSoC5/cyfitter_cfg.c **** 			{0xC8u, 0x3Bu},
 742:.\Generated_Source\PSoC5/cyfitter_cfg.c **** 			{0xC9u, 0xFFu},
 743:.\Generated_Source\PSoC5/cyfitter_cfg.c **** 			{0xCAu, 0xFFu},
 744:.\Generated_Source\PSoC5/cyfitter_cfg.c **** 			{0xCBu, 0xFFu},
 745:.\Generated_Source\PSoC5/cyfitter_cfg.c **** 			{0xCCu, 0x62u},
 746:.\Generated_Source\PSoC5/cyfitter_cfg.c **** 			{0xCDu, 0xA0u},
 747:.\Generated_Source\PSoC5/cyfitter_cfg.c **** 			{0xCEu, 0xF0u},
 748:.\Generated_Source\PSoC5/cyfitter_cfg.c **** 			{0xCFu, 0x41u},
 749:.\Generated_Source\PSoC5/cyfitter_cfg.c **** 			{0xD0u, 0x0Cu},
 750:.\Generated_Source\PSoC5/cyfitter_cfg.c **** 			{0xD2u, 0x03u},
 751:.\Generated_Source\PSoC5/cyfitter_cfg.c **** 			{0xD8u, 0x04u},
 752:.\Generated_Source\PSoC5/cyfitter_cfg.c **** 			{0xD9u, 0x04u},
 753:.\Generated_Source\PSoC5/cyfitter_cfg.c **** 			{0xDAu, 0x04u},
 754:.\Generated_Source\PSoC5/cyfitter_cfg.c **** 			{0xDBu, 0x04u},
 755:.\Generated_Source\PSoC5/cyfitter_cfg.c **** 			{0xDDu, 0x12u},
 756:.\Generated_Source\PSoC5/cyfitter_cfg.c **** 			{0xDFu, 0x01u},
 757:.\Generated_Source\PSoC5/cyfitter_cfg.c **** 			{0xE6u, 0x40u},
 758:.\Generated_Source\PSoC5/cyfitter_cfg.c **** 			{0xE7u, 0x02u},
 759:.\Generated_Source\PSoC5/cyfitter_cfg.c **** 			{0xE9u, 0x10u},
 760:.\Generated_Source\PSoC5/cyfitter_cfg.c **** 			{0xEAu, 0x30u},
 761:.\Generated_Source\PSoC5/cyfitter_cfg.c **** 			{0xEBu, 0x10u},
 762:.\Generated_Source\PSoC5/cyfitter_cfg.c **** 			{0xEDu, 0x10u},
 763:.\Generated_Source\PSoC5/cyfitter_cfg.c **** 			{0xEEu, 0x10u},
 764:.\Generated_Source\PSoC5/cyfitter_cfg.c **** 			{0xEFu, 0x12u},
 765:.\Generated_Source\PSoC5/cyfitter_cfg.c **** 			{0x00u, 0x28u},
 766:.\Generated_Source\PSoC5/cyfitter_cfg.c **** 			{0x02u, 0x14u},
 767:.\Generated_Source\PSoC5/cyfitter_cfg.c **** 			{0x03u, 0x02u},
 768:.\Generated_Source\PSoC5/cyfitter_cfg.c **** 			{0x05u, 0x04u},
 769:.\Generated_Source\PSoC5/cyfitter_cfg.c **** 			{0x07u, 0x48u},
 770:.\Generated_Source\PSoC5/cyfitter_cfg.c **** 			{0x09u, 0x08u},
 771:.\Generated_Source\PSoC5/cyfitter_cfg.c **** 			{0x0Au, 0x06u},
 772:.\Generated_Source\PSoC5/cyfitter_cfg.c **** 			{0x0Bu, 0x40u},
 773:.\Generated_Source\PSoC5/cyfitter_cfg.c **** 			{0x0Du, 0x80u},
ARM GAS  C:\Users\kingi\AppData\Local\Temp\cc068PKu.s 			page 25


 774:.\Generated_Source\PSoC5/cyfitter_cfg.c **** 			{0x0Eu, 0xA0u},
 775:.\Generated_Source\PSoC5/cyfitter_cfg.c **** 			{0x0Fu, 0x08u},
 776:.\Generated_Source\PSoC5/cyfitter_cfg.c **** 			{0x10u, 0x08u},
 777:.\Generated_Source\PSoC5/cyfitter_cfg.c **** 			{0x11u, 0x40u},
 778:.\Generated_Source\PSoC5/cyfitter_cfg.c **** 			{0x12u, 0x80u},
 779:.\Generated_Source\PSoC5/cyfitter_cfg.c **** 			{0x14u, 0x04u},
 780:.\Generated_Source\PSoC5/cyfitter_cfg.c **** 			{0x15u, 0x04u},
 781:.\Generated_Source\PSoC5/cyfitter_cfg.c **** 			{0x17u, 0x11u},
 782:.\Generated_Source\PSoC5/cyfitter_cfg.c **** 			{0x18u, 0x02u},
 783:.\Generated_Source\PSoC5/cyfitter_cfg.c **** 			{0x1Bu, 0x09u},
 784:.\Generated_Source\PSoC5/cyfitter_cfg.c **** 			{0x1Cu, 0x10u},
 785:.\Generated_Source\PSoC5/cyfitter_cfg.c **** 			{0x1Du, 0x12u},
 786:.\Generated_Source\PSoC5/cyfitter_cfg.c **** 			{0x20u, 0x02u},
 787:.\Generated_Source\PSoC5/cyfitter_cfg.c **** 			{0x22u, 0x10u},
 788:.\Generated_Source\PSoC5/cyfitter_cfg.c **** 			{0x24u, 0x08u},
 789:.\Generated_Source\PSoC5/cyfitter_cfg.c **** 			{0x26u, 0x08u},
 790:.\Generated_Source\PSoC5/cyfitter_cfg.c **** 			{0x28u, 0x80u},
 791:.\Generated_Source\PSoC5/cyfitter_cfg.c **** 			{0x29u, 0x60u},
 792:.\Generated_Source\PSoC5/cyfitter_cfg.c **** 			{0x2Fu, 0x01u},
 793:.\Generated_Source\PSoC5/cyfitter_cfg.c **** 			{0x32u, 0x64u},
 794:.\Generated_Source\PSoC5/cyfitter_cfg.c **** 			{0x34u, 0x08u},
 795:.\Generated_Source\PSoC5/cyfitter_cfg.c **** 			{0x35u, 0x04u},
 796:.\Generated_Source\PSoC5/cyfitter_cfg.c **** 			{0x36u, 0x01u},
 797:.\Generated_Source\PSoC5/cyfitter_cfg.c **** 			{0x39u, 0xA8u},
 798:.\Generated_Source\PSoC5/cyfitter_cfg.c **** 			{0x3Du, 0x29u},
 799:.\Generated_Source\PSoC5/cyfitter_cfg.c **** 			{0x40u, 0x02u},
 800:.\Generated_Source\PSoC5/cyfitter_cfg.c **** 			{0x42u, 0x84u},
 801:.\Generated_Source\PSoC5/cyfitter_cfg.c **** 			{0x43u, 0x08u},
 802:.\Generated_Source\PSoC5/cyfitter_cfg.c **** 			{0x44u, 0x08u},
 803:.\Generated_Source\PSoC5/cyfitter_cfg.c **** 			{0x45u, 0x02u},
 804:.\Generated_Source\PSoC5/cyfitter_cfg.c **** 			{0x47u, 0x08u},
 805:.\Generated_Source\PSoC5/cyfitter_cfg.c **** 			{0x49u, 0x82u},
 806:.\Generated_Source\PSoC5/cyfitter_cfg.c **** 			{0x4Bu, 0x08u},
 807:.\Generated_Source\PSoC5/cyfitter_cfg.c **** 			{0x4Du, 0x01u},
 808:.\Generated_Source\PSoC5/cyfitter_cfg.c **** 			{0x4Eu, 0x0Au},
 809:.\Generated_Source\PSoC5/cyfitter_cfg.c **** 			{0x4Fu, 0x08u},
 810:.\Generated_Source\PSoC5/cyfitter_cfg.c **** 			{0x50u, 0xA8u},
 811:.\Generated_Source\PSoC5/cyfitter_cfg.c **** 			{0x54u, 0x02u},
 812:.\Generated_Source\PSoC5/cyfitter_cfg.c **** 			{0x56u, 0x08u},
 813:.\Generated_Source\PSoC5/cyfitter_cfg.c **** 			{0x57u, 0x10u},
 814:.\Generated_Source\PSoC5/cyfitter_cfg.c **** 			{0x69u, 0x10u},
 815:.\Generated_Source\PSoC5/cyfitter_cfg.c **** 			{0x6Au, 0x80u},
 816:.\Generated_Source\PSoC5/cyfitter_cfg.c **** 			{0x6Fu, 0x06u},
 817:.\Generated_Source\PSoC5/cyfitter_cfg.c **** 			{0x78u, 0x40u},
 818:.\Generated_Source\PSoC5/cyfitter_cfg.c **** 			{0x7Au, 0x01u},
 819:.\Generated_Source\PSoC5/cyfitter_cfg.c **** 			{0x7Eu, 0x02u},
 820:.\Generated_Source\PSoC5/cyfitter_cfg.c **** 			{0x7Fu, 0x01u},
 821:.\Generated_Source\PSoC5/cyfitter_cfg.c **** 			{0x82u, 0x01u},
 822:.\Generated_Source\PSoC5/cyfitter_cfg.c **** 			{0x84u, 0x81u},
 823:.\Generated_Source\PSoC5/cyfitter_cfg.c **** 			{0x87u, 0x41u},
 824:.\Generated_Source\PSoC5/cyfitter_cfg.c **** 			{0x88u, 0x08u},
 825:.\Generated_Source\PSoC5/cyfitter_cfg.c **** 			{0x8Bu, 0x04u},
 826:.\Generated_Source\PSoC5/cyfitter_cfg.c **** 			{0x8Eu, 0x50u},
 827:.\Generated_Source\PSoC5/cyfitter_cfg.c **** 			{0x90u, 0x40u},
 828:.\Generated_Source\PSoC5/cyfitter_cfg.c **** 			{0x91u, 0xACu},
 829:.\Generated_Source\PSoC5/cyfitter_cfg.c **** 			{0x92u, 0x49u},
 830:.\Generated_Source\PSoC5/cyfitter_cfg.c **** 			{0x93u, 0x77u},
ARM GAS  C:\Users\kingi\AppData\Local\Temp\cc068PKu.s 			page 26


 831:.\Generated_Source\PSoC5/cyfitter_cfg.c **** 			{0x94u, 0x06u},
 832:.\Generated_Source\PSoC5/cyfitter_cfg.c **** 			{0x95u, 0x42u},
 833:.\Generated_Source\PSoC5/cyfitter_cfg.c **** 			{0x96u, 0x82u},
 834:.\Generated_Source\PSoC5/cyfitter_cfg.c **** 			{0x97u, 0x80u},
 835:.\Generated_Source\PSoC5/cyfitter_cfg.c **** 			{0x98u, 0x10u},
 836:.\Generated_Source\PSoC5/cyfitter_cfg.c **** 			{0x99u, 0x21u},
 837:.\Generated_Source\PSoC5/cyfitter_cfg.c **** 			{0x9Au, 0x22u},
 838:.\Generated_Source\PSoC5/cyfitter_cfg.c **** 			{0x9Bu, 0xF1u},
 839:.\Generated_Source\PSoC5/cyfitter_cfg.c **** 			{0x9Cu, 0xE0u},
 840:.\Generated_Source\PSoC5/cyfitter_cfg.c **** 			{0x9Du, 0x04u},
 841:.\Generated_Source\PSoC5/cyfitter_cfg.c **** 			{0x9Eu, 0x5Du},
 842:.\Generated_Source\PSoC5/cyfitter_cfg.c **** 			{0x9Fu, 0x08u},
 843:.\Generated_Source\PSoC5/cyfitter_cfg.c **** 			{0xA0u, 0x40u},
 844:.\Generated_Source\PSoC5/cyfitter_cfg.c **** 			{0xA1u, 0x41u},
 845:.\Generated_Source\PSoC5/cyfitter_cfg.c **** 			{0xA2u, 0x70u},
 846:.\Generated_Source\PSoC5/cyfitter_cfg.c **** 			{0xA4u, 0x02u},
 847:.\Generated_Source\PSoC5/cyfitter_cfg.c **** 			{0xA5u, 0xA8u},
 848:.\Generated_Source\PSoC5/cyfitter_cfg.c **** 			{0xA6u, 0x80u},
 849:.\Generated_Source\PSoC5/cyfitter_cfg.c **** 			{0xA7u, 0x32u},
 850:.\Generated_Source\PSoC5/cyfitter_cfg.c **** 			{0xA8u, 0x08u},
 851:.\Generated_Source\PSoC5/cyfitter_cfg.c **** 			{0xA9u, 0x02u},
 852:.\Generated_Source\PSoC5/cyfitter_cfg.c **** 			{0xAAu, 0x10u},
 853:.\Generated_Source\PSoC5/cyfitter_cfg.c **** 			{0xACu, 0x10u},
 854:.\Generated_Source\PSoC5/cyfitter_cfg.c **** 			{0xB1u, 0x14u},
 855:.\Generated_Source\PSoC5/cyfitter_cfg.c **** 			{0xB3u, 0x80u},
 856:.\Generated_Source\PSoC5/cyfitter_cfg.c **** 			{0xB4u, 0x05u},
 857:.\Generated_Source\PSoC5/cyfitter_cfg.c **** 			{0xB7u, 0x01u},
 858:.\Generated_Source\PSoC5/cyfitter_cfg.c **** 			{0xC0u, 0x77u},
 859:.\Generated_Source\PSoC5/cyfitter_cfg.c **** 			{0xC2u, 0xFFu},
 860:.\Generated_Source\PSoC5/cyfitter_cfg.c **** 			{0xC4u, 0x7Bu},
 861:.\Generated_Source\PSoC5/cyfitter_cfg.c **** 			{0xCAu, 0x1Du},
 862:.\Generated_Source\PSoC5/cyfitter_cfg.c **** 			{0xCCu, 0x8Eu},
 863:.\Generated_Source\PSoC5/cyfitter_cfg.c **** 			{0xCEu, 0xEEu},
 864:.\Generated_Source\PSoC5/cyfitter_cfg.c **** 			{0xD0u, 0xEFu},
 865:.\Generated_Source\PSoC5/cyfitter_cfg.c **** 			{0xD2u, 0x38u},
 866:.\Generated_Source\PSoC5/cyfitter_cfg.c **** 			{0xE0u, 0x08u},
 867:.\Generated_Source\PSoC5/cyfitter_cfg.c **** 			{0xE2u, 0x02u},
 868:.\Generated_Source\PSoC5/cyfitter_cfg.c **** 			{0xE4u, 0x0Bu},
 869:.\Generated_Source\PSoC5/cyfitter_cfg.c **** 			{0xEAu, 0x01u},
 870:.\Generated_Source\PSoC5/cyfitter_cfg.c **** 			{0xECu, 0x02u},
 871:.\Generated_Source\PSoC5/cyfitter_cfg.c **** 			{0xEEu, 0x04u},
 872:.\Generated_Source\PSoC5/cyfitter_cfg.c **** 			{0x00u, 0x2Bu},
 873:.\Generated_Source\PSoC5/cyfitter_cfg.c **** 			{0x02u, 0xC0u},
 874:.\Generated_Source\PSoC5/cyfitter_cfg.c **** 			{0x03u, 0x04u},
 875:.\Generated_Source\PSoC5/cyfitter_cfg.c **** 			{0x04u, 0xB8u},
 876:.\Generated_Source\PSoC5/cyfitter_cfg.c **** 			{0x05u, 0x21u},
 877:.\Generated_Source\PSoC5/cyfitter_cfg.c **** 			{0x06u, 0x43u},
 878:.\Generated_Source\PSoC5/cyfitter_cfg.c **** 			{0x08u, 0xB9u},
 879:.\Generated_Source\PSoC5/cyfitter_cfg.c **** 			{0x09u, 0x63u},
 880:.\Generated_Source\PSoC5/cyfitter_cfg.c **** 			{0x0Au, 0x40u},
 881:.\Generated_Source\PSoC5/cyfitter_cfg.c **** 			{0x0Fu, 0x1Bu},
 882:.\Generated_Source\PSoC5/cyfitter_cfg.c **** 			{0x11u, 0x42u},
 883:.\Generated_Source\PSoC5/cyfitter_cfg.c **** 			{0x12u, 0x04u},
 884:.\Generated_Source\PSoC5/cyfitter_cfg.c **** 			{0x14u, 0x5Bu},
 885:.\Generated_Source\PSoC5/cyfitter_cfg.c **** 			{0x15u, 0x03u},
 886:.\Generated_Source\PSoC5/cyfitter_cfg.c **** 			{0x16u, 0xA0u},
 887:.\Generated_Source\PSoC5/cyfitter_cfg.c **** 			{0x18u, 0x18u},
ARM GAS  C:\Users\kingi\AppData\Local\Temp\cc068PKu.s 			page 27


 888:.\Generated_Source\PSoC5/cyfitter_cfg.c **** 			{0x19u, 0x63u},
 889:.\Generated_Source\PSoC5/cyfitter_cfg.c **** 			{0x1Au, 0x40u},
 890:.\Generated_Source\PSoC5/cyfitter_cfg.c **** 			{0x1Bu, 0x10u},
 891:.\Generated_Source\PSoC5/cyfitter_cfg.c **** 			{0x1Du, 0x63u},
 892:.\Generated_Source\PSoC5/cyfitter_cfg.c **** 			{0x1Eu, 0x72u},
 893:.\Generated_Source\PSoC5/cyfitter_cfg.c **** 			{0x1Fu, 0x18u},
 894:.\Generated_Source\PSoC5/cyfitter_cfg.c **** 			{0x21u, 0x02u},
 895:.\Generated_Source\PSoC5/cyfitter_cfg.c **** 			{0x22u, 0x7Bu},
 896:.\Generated_Source\PSoC5/cyfitter_cfg.c **** 			{0x25u, 0x78u},
 897:.\Generated_Source\PSoC5/cyfitter_cfg.c **** 			{0x29u, 0x18u},
 898:.\Generated_Source\PSoC5/cyfitter_cfg.c **** 			{0x2Bu, 0x63u},
 899:.\Generated_Source\PSoC5/cyfitter_cfg.c **** 			{0x2Cu, 0x07u},
 900:.\Generated_Source\PSoC5/cyfitter_cfg.c **** 			{0x2Fu, 0x0Bu},
 901:.\Generated_Source\PSoC5/cyfitter_cfg.c **** 			{0x30u, 0x07u},
 902:.\Generated_Source\PSoC5/cyfitter_cfg.c **** 			{0x32u, 0x78u},
 903:.\Generated_Source\PSoC5/cyfitter_cfg.c **** 			{0x33u, 0x07u},
 904:.\Generated_Source\PSoC5/cyfitter_cfg.c **** 			{0x34u, 0x80u},
 905:.\Generated_Source\PSoC5/cyfitter_cfg.c **** 			{0x37u, 0x78u},
 906:.\Generated_Source\PSoC5/cyfitter_cfg.c **** 			{0x38u, 0x20u},
 907:.\Generated_Source\PSoC5/cyfitter_cfg.c **** 			{0x3Au, 0x08u},
 908:.\Generated_Source\PSoC5/cyfitter_cfg.c **** 			{0x3Bu, 0x88u},
 909:.\Generated_Source\PSoC5/cyfitter_cfg.c **** 			{0x58u, 0x04u},
 910:.\Generated_Source\PSoC5/cyfitter_cfg.c **** 			{0x59u, 0x04u},
 911:.\Generated_Source\PSoC5/cyfitter_cfg.c **** 			{0x5Cu, 0x12u},
 912:.\Generated_Source\PSoC5/cyfitter_cfg.c **** 			{0x5Fu, 0x01u},
 913:.\Generated_Source\PSoC5/cyfitter_cfg.c **** 			{0x80u, 0xFBu},
 914:.\Generated_Source\PSoC5/cyfitter_cfg.c **** 			{0x81u, 0x04u},
 915:.\Generated_Source\PSoC5/cyfitter_cfg.c **** 			{0x82u, 0x04u},
 916:.\Generated_Source\PSoC5/cyfitter_cfg.c **** 			{0x84u, 0xECu},
 917:.\Generated_Source\PSoC5/cyfitter_cfg.c **** 			{0x85u, 0x64u},
 918:.\Generated_Source\PSoC5/cyfitter_cfg.c **** 			{0x86u, 0x13u},
 919:.\Generated_Source\PSoC5/cyfitter_cfg.c **** 			{0x88u, 0x03u},
 920:.\Generated_Source\PSoC5/cyfitter_cfg.c **** 			{0x89u, 0x24u},
 921:.\Generated_Source\PSoC5/cyfitter_cfg.c **** 			{0x8Cu, 0x03u},
 922:.\Generated_Source\PSoC5/cyfitter_cfg.c **** 			{0x8Eu, 0x1Cu},
 923:.\Generated_Source\PSoC5/cyfitter_cfg.c **** 			{0x8Fu, 0x9Eu},
 924:.\Generated_Source\PSoC5/cyfitter_cfg.c **** 			{0x90u, 0x02u},
 925:.\Generated_Source\PSoC5/cyfitter_cfg.c **** 			{0x91u, 0x81u},
 926:.\Generated_Source\PSoC5/cyfitter_cfg.c **** 			{0x93u, 0x06u},
 927:.\Generated_Source\PSoC5/cyfitter_cfg.c **** 			{0x94u, 0x60u},
 928:.\Generated_Source\PSoC5/cyfitter_cfg.c **** 			{0x95u, 0xE5u},
 929:.\Generated_Source\PSoC5/cyfitter_cfg.c **** 			{0x97u, 0x12u},
 930:.\Generated_Source\PSoC5/cyfitter_cfg.c **** 			{0x98u, 0xE7u},
 931:.\Generated_Source\PSoC5/cyfitter_cfg.c **** 			{0x99u, 0xF9u},
 932:.\Generated_Source\PSoC5/cyfitter_cfg.c **** 			{0x9Au, 0x18u},
 933:.\Generated_Source\PSoC5/cyfitter_cfg.c **** 			{0x9Bu, 0x02u},
 934:.\Generated_Source\PSoC5/cyfitter_cfg.c **** 			{0x9Cu, 0x8Fu},
 935:.\Generated_Source\PSoC5/cyfitter_cfg.c **** 			{0x9Du, 0x67u},
 936:.\Generated_Source\PSoC5/cyfitter_cfg.c **** 			{0x9Eu, 0x70u},
 937:.\Generated_Source\PSoC5/cyfitter_cfg.c **** 			{0x9Fu, 0x88u},
 938:.\Generated_Source\PSoC5/cyfitter_cfg.c **** 			{0xA0u, 0x40u},
 939:.\Generated_Source\PSoC5/cyfitter_cfg.c **** 			{0xA1u, 0x99u},
 940:.\Generated_Source\PSoC5/cyfitter_cfg.c **** 			{0xA3u, 0x66u},
 941:.\Generated_Source\PSoC5/cyfitter_cfg.c **** 			{0xA4u, 0x01u},
 942:.\Generated_Source\PSoC5/cyfitter_cfg.c **** 			{0xA5u, 0x01u},
 943:.\Generated_Source\PSoC5/cyfitter_cfg.c **** 			{0xA8u, 0x20u},
 944:.\Generated_Source\PSoC5/cyfitter_cfg.c **** 			{0xABu, 0x01u},
ARM GAS  C:\Users\kingi\AppData\Local\Temp\cc068PKu.s 			page 28


 945:.\Generated_Source\PSoC5/cyfitter_cfg.c **** 			{0xADu, 0x44u},
 946:.\Generated_Source\PSoC5/cyfitter_cfg.c **** 			{0xAEu, 0x1Fu},
 947:.\Generated_Source\PSoC5/cyfitter_cfg.c **** 			{0xB1u, 0xE0u},
 948:.\Generated_Source\PSoC5/cyfitter_cfg.c **** 			{0xB2u, 0x90u},
 949:.\Generated_Source\PSoC5/cyfitter_cfg.c **** 			{0xB6u, 0x7Fu},
 950:.\Generated_Source\PSoC5/cyfitter_cfg.c **** 			{0xB7u, 0x7Fu},
 951:.\Generated_Source\PSoC5/cyfitter_cfg.c **** 			{0xBAu, 0x80u},
 952:.\Generated_Source\PSoC5/cyfitter_cfg.c **** 			{0xBEu, 0x04u},
 953:.\Generated_Source\PSoC5/cyfitter_cfg.c **** 			{0xBFu, 0x40u},
 954:.\Generated_Source\PSoC5/cyfitter_cfg.c **** 			{0xD6u, 0x02u},
 955:.\Generated_Source\PSoC5/cyfitter_cfg.c **** 			{0xD7u, 0x11u},
 956:.\Generated_Source\PSoC5/cyfitter_cfg.c **** 			{0xD8u, 0x04u},
 957:.\Generated_Source\PSoC5/cyfitter_cfg.c **** 			{0xD9u, 0x04u},
 958:.\Generated_Source\PSoC5/cyfitter_cfg.c **** 			{0xDBu, 0x04u},
 959:.\Generated_Source\PSoC5/cyfitter_cfg.c **** 			{0xDCu, 0x11u},
 960:.\Generated_Source\PSoC5/cyfitter_cfg.c **** 			{0xDDu, 0x10u},
 961:.\Generated_Source\PSoC5/cyfitter_cfg.c **** 			{0xDFu, 0x01u},
 962:.\Generated_Source\PSoC5/cyfitter_cfg.c **** 			{0x02u, 0x88u},
 963:.\Generated_Source\PSoC5/cyfitter_cfg.c **** 			{0x03u, 0x12u},
 964:.\Generated_Source\PSoC5/cyfitter_cfg.c **** 			{0x05u, 0x04u},
 965:.\Generated_Source\PSoC5/cyfitter_cfg.c **** 			{0x07u, 0x48u},
 966:.\Generated_Source\PSoC5/cyfitter_cfg.c **** 			{0x09u, 0x01u},
 967:.\Generated_Source\PSoC5/cyfitter_cfg.c **** 			{0x0Au, 0x16u},
 968:.\Generated_Source\PSoC5/cyfitter_cfg.c **** 			{0x0Cu, 0x04u},
 969:.\Generated_Source\PSoC5/cyfitter_cfg.c **** 			{0x0Du, 0x81u},
 970:.\Generated_Source\PSoC5/cyfitter_cfg.c **** 			{0x0Eu, 0x80u},
 971:.\Generated_Source\PSoC5/cyfitter_cfg.c **** 			{0x0Fu, 0x08u},
 972:.\Generated_Source\PSoC5/cyfitter_cfg.c **** 			{0x10u, 0x10u},
 973:.\Generated_Source\PSoC5/cyfitter_cfg.c **** 			{0x12u, 0x04u},
 974:.\Generated_Source\PSoC5/cyfitter_cfg.c **** 			{0x13u, 0x42u},
 975:.\Generated_Source\PSoC5/cyfitter_cfg.c **** 			{0x14u, 0x80u},
 976:.\Generated_Source\PSoC5/cyfitter_cfg.c **** 			{0x16u, 0x0Cu},
 977:.\Generated_Source\PSoC5/cyfitter_cfg.c **** 			{0x17u, 0x80u},
 978:.\Generated_Source\PSoC5/cyfitter_cfg.c **** 			{0x19u, 0x80u},
 979:.\Generated_Source\PSoC5/cyfitter_cfg.c **** 			{0x1Au, 0x22u},
 980:.\Generated_Source\PSoC5/cyfitter_cfg.c **** 			{0x1Bu, 0x40u},
 981:.\Generated_Source\PSoC5/cyfitter_cfg.c **** 			{0x1Du, 0x24u},
 982:.\Generated_Source\PSoC5/cyfitter_cfg.c **** 			{0x1Eu, 0x80u},
 983:.\Generated_Source\PSoC5/cyfitter_cfg.c **** 			{0x20u, 0x01u},
 984:.\Generated_Source\PSoC5/cyfitter_cfg.c **** 			{0x21u, 0x02u},
 985:.\Generated_Source\PSoC5/cyfitter_cfg.c **** 			{0x22u, 0x02u},
 986:.\Generated_Source\PSoC5/cyfitter_cfg.c **** 			{0x25u, 0x08u},
 987:.\Generated_Source\PSoC5/cyfitter_cfg.c **** 			{0x26u, 0x80u},
 988:.\Generated_Source\PSoC5/cyfitter_cfg.c **** 			{0x27u, 0x10u},
 989:.\Generated_Source\PSoC5/cyfitter_cfg.c **** 			{0x28u, 0x18u},
 990:.\Generated_Source\PSoC5/cyfitter_cfg.c **** 			{0x29u, 0x40u},
 991:.\Generated_Source\PSoC5/cyfitter_cfg.c **** 			{0x2Bu, 0x40u},
 992:.\Generated_Source\PSoC5/cyfitter_cfg.c **** 			{0x2Du, 0x01u},
 993:.\Generated_Source\PSoC5/cyfitter_cfg.c **** 			{0x2Fu, 0x2Au},
 994:.\Generated_Source\PSoC5/cyfitter_cfg.c **** 			{0x31u, 0x08u},
 995:.\Generated_Source\PSoC5/cyfitter_cfg.c **** 			{0x32u, 0x80u},
 996:.\Generated_Source\PSoC5/cyfitter_cfg.c **** 			{0x33u, 0x22u},
 997:.\Generated_Source\PSoC5/cyfitter_cfg.c **** 			{0x36u, 0x80u},
 998:.\Generated_Source\PSoC5/cyfitter_cfg.c **** 			{0x37u, 0x16u},
 999:.\Generated_Source\PSoC5/cyfitter_cfg.c **** 			{0x38u, 0x28u},
1000:.\Generated_Source\PSoC5/cyfitter_cfg.c **** 			{0x39u, 0x01u},
1001:.\Generated_Source\PSoC5/cyfitter_cfg.c **** 			{0x3Bu, 0x40u},
ARM GAS  C:\Users\kingi\AppData\Local\Temp\cc068PKu.s 			page 29


1002:.\Generated_Source\PSoC5/cyfitter_cfg.c **** 			{0x3Cu, 0x01u},
1003:.\Generated_Source\PSoC5/cyfitter_cfg.c **** 			{0x3Eu, 0x18u},
1004:.\Generated_Source\PSoC5/cyfitter_cfg.c **** 			{0x3Fu, 0x40u},
1005:.\Generated_Source\PSoC5/cyfitter_cfg.c **** 			{0x40u, 0x30u},
1006:.\Generated_Source\PSoC5/cyfitter_cfg.c **** 			{0x45u, 0x02u},
1007:.\Generated_Source\PSoC5/cyfitter_cfg.c **** 			{0x46u, 0x80u},
1008:.\Generated_Source\PSoC5/cyfitter_cfg.c **** 			{0x5Au, 0x20u},
1009:.\Generated_Source\PSoC5/cyfitter_cfg.c **** 			{0x68u, 0x16u},
1010:.\Generated_Source\PSoC5/cyfitter_cfg.c **** 			{0x69u, 0x41u},
1011:.\Generated_Source\PSoC5/cyfitter_cfg.c **** 			{0x70u, 0x14u},
1012:.\Generated_Source\PSoC5/cyfitter_cfg.c **** 			{0x71u, 0x40u},
1013:.\Generated_Source\PSoC5/cyfitter_cfg.c **** 			{0x72u, 0x18u},
1014:.\Generated_Source\PSoC5/cyfitter_cfg.c **** 			{0x73u, 0x02u},
1015:.\Generated_Source\PSoC5/cyfitter_cfg.c **** 			{0x7Cu, 0x80u},
1016:.\Generated_Source\PSoC5/cyfitter_cfg.c **** 			{0x7Du, 0x80u},
1017:.\Generated_Source\PSoC5/cyfitter_cfg.c **** 			{0x80u, 0x02u},
1018:.\Generated_Source\PSoC5/cyfitter_cfg.c **** 			{0x84u, 0x10u},
1019:.\Generated_Source\PSoC5/cyfitter_cfg.c **** 			{0x8Au, 0x80u},
1020:.\Generated_Source\PSoC5/cyfitter_cfg.c **** 			{0x8Du, 0x08u},
1021:.\Generated_Source\PSoC5/cyfitter_cfg.c **** 			{0x8Eu, 0x80u},
1022:.\Generated_Source\PSoC5/cyfitter_cfg.c **** 			{0x90u, 0x40u},
1023:.\Generated_Source\PSoC5/cyfitter_cfg.c **** 			{0x91u, 0x14u},
1024:.\Generated_Source\PSoC5/cyfitter_cfg.c **** 			{0x92u, 0xC9u},
1025:.\Generated_Source\PSoC5/cyfitter_cfg.c **** 			{0x93u, 0x75u},
1026:.\Generated_Source\PSoC5/cyfitter_cfg.c **** 			{0x94u, 0x04u},
1027:.\Generated_Source\PSoC5/cyfitter_cfg.c **** 			{0x95u, 0x42u},
1028:.\Generated_Source\PSoC5/cyfitter_cfg.c **** 			{0x96u, 0x06u},
1029:.\Generated_Source\PSoC5/cyfitter_cfg.c **** 			{0x97u, 0x80u},
1030:.\Generated_Source\PSoC5/cyfitter_cfg.c **** 			{0x98u, 0x15u},
1031:.\Generated_Source\PSoC5/cyfitter_cfg.c **** 			{0x99u, 0x23u},
1032:.\Generated_Source\PSoC5/cyfitter_cfg.c **** 			{0x9Au, 0x22u},
1033:.\Generated_Source\PSoC5/cyfitter_cfg.c **** 			{0x9Bu, 0xE5u},
1034:.\Generated_Source\PSoC5/cyfitter_cfg.c **** 			{0x9Cu, 0x20u},
1035:.\Generated_Source\PSoC5/cyfitter_cfg.c **** 			{0x9Du, 0x84u},
1036:.\Generated_Source\PSoC5/cyfitter_cfg.c **** 			{0x9Eu, 0xC0u},
1037:.\Generated_Source\PSoC5/cyfitter_cfg.c **** 			{0x9Fu, 0x08u},
1038:.\Generated_Source\PSoC5/cyfitter_cfg.c **** 			{0xA0u, 0x49u},
1039:.\Generated_Source\PSoC5/cyfitter_cfg.c **** 			{0xA1u, 0x41u},
1040:.\Generated_Source\PSoC5/cyfitter_cfg.c **** 			{0xA2u, 0x31u},
1041:.\Generated_Source\PSoC5/cyfitter_cfg.c **** 			{0xA3u, 0x86u},
1042:.\Generated_Source\PSoC5/cyfitter_cfg.c **** 			{0xA4u, 0x14u},
1043:.\Generated_Source\PSoC5/cyfitter_cfg.c **** 			{0xA5u, 0xBCu},
1044:.\Generated_Source\PSoC5/cyfitter_cfg.c **** 			{0xA6u, 0x80u},
1045:.\Generated_Source\PSoC5/cyfitter_cfg.c **** 			{0xA7u, 0x20u},
1046:.\Generated_Source\PSoC5/cyfitter_cfg.c **** 			{0xA8u, 0x04u},
1047:.\Generated_Source\PSoC5/cyfitter_cfg.c **** 			{0xAAu, 0x01u},
1048:.\Generated_Source\PSoC5/cyfitter_cfg.c **** 			{0xACu, 0x80u},
1049:.\Generated_Source\PSoC5/cyfitter_cfg.c **** 			{0xADu, 0x40u},
1050:.\Generated_Source\PSoC5/cyfitter_cfg.c **** 			{0xAFu, 0x80u},
1051:.\Generated_Source\PSoC5/cyfitter_cfg.c **** 			{0xB0u, 0x22u},
1052:.\Generated_Source\PSoC5/cyfitter_cfg.c **** 			{0xB1u, 0x10u},
1053:.\Generated_Source\PSoC5/cyfitter_cfg.c **** 			{0xB3u, 0x02u},
1054:.\Generated_Source\PSoC5/cyfitter_cfg.c **** 			{0xB4u, 0x10u},
1055:.\Generated_Source\PSoC5/cyfitter_cfg.c **** 			{0xB5u, 0x10u},
1056:.\Generated_Source\PSoC5/cyfitter_cfg.c **** 			{0xC0u, 0x7Fu},
1057:.\Generated_Source\PSoC5/cyfitter_cfg.c **** 			{0xC2u, 0xFFu},
1058:.\Generated_Source\PSoC5/cyfitter_cfg.c **** 			{0xC4u, 0x9Fu},
ARM GAS  C:\Users\kingi\AppData\Local\Temp\cc068PKu.s 			page 30


1059:.\Generated_Source\PSoC5/cyfitter_cfg.c **** 			{0xCAu, 0xFFu},
1060:.\Generated_Source\PSoC5/cyfitter_cfg.c **** 			{0xCCu, 0xFFu},
1061:.\Generated_Source\PSoC5/cyfitter_cfg.c **** 			{0xCEu, 0xFFu},
1062:.\Generated_Source\PSoC5/cyfitter_cfg.c **** 			{0xD6u, 0x04u},
1063:.\Generated_Source\PSoC5/cyfitter_cfg.c **** 			{0xE0u, 0x0Cu},
1064:.\Generated_Source\PSoC5/cyfitter_cfg.c **** 			{0xEAu, 0x04u},
1065:.\Generated_Source\PSoC5/cyfitter_cfg.c **** 			{0xECu, 0x01u},
1066:.\Generated_Source\PSoC5/cyfitter_cfg.c **** 			{0xEEu, 0x0Au},
1067:.\Generated_Source\PSoC5/cyfitter_cfg.c **** 			{0x80u, 0x04u},
1068:.\Generated_Source\PSoC5/cyfitter_cfg.c **** 			{0x84u, 0x80u},
1069:.\Generated_Source\PSoC5/cyfitter_cfg.c **** 			{0x8Au, 0x10u},
1070:.\Generated_Source\PSoC5/cyfitter_cfg.c **** 			{0x8Du, 0x18u},
1071:.\Generated_Source\PSoC5/cyfitter_cfg.c **** 			{0x8Eu, 0x80u},
1072:.\Generated_Source\PSoC5/cyfitter_cfg.c **** 			{0x90u, 0x20u},
1073:.\Generated_Source\PSoC5/cyfitter_cfg.c **** 			{0x92u, 0x04u},
1074:.\Generated_Source\PSoC5/cyfitter_cfg.c **** 			{0x93u, 0x08u},
1075:.\Generated_Source\PSoC5/cyfitter_cfg.c **** 			{0x94u, 0x84u},
1076:.\Generated_Source\PSoC5/cyfitter_cfg.c **** 			{0x95u, 0x10u},
1077:.\Generated_Source\PSoC5/cyfitter_cfg.c **** 			{0x96u, 0x40u},
1078:.\Generated_Source\PSoC5/cyfitter_cfg.c **** 			{0x97u, 0x01u},
1079:.\Generated_Source\PSoC5/cyfitter_cfg.c **** 			{0x9Cu, 0x11u},
1080:.\Generated_Source\PSoC5/cyfitter_cfg.c **** 			{0x9Du, 0x08u},
1081:.\Generated_Source\PSoC5/cyfitter_cfg.c **** 			{0x9Eu, 0x90u},
1082:.\Generated_Source\PSoC5/cyfitter_cfg.c **** 			{0x9Fu, 0x10u},
1083:.\Generated_Source\PSoC5/cyfitter_cfg.c **** 			{0xA4u, 0x80u},
1084:.\Generated_Source\PSoC5/cyfitter_cfg.c **** 			{0xA5u, 0x10u},
1085:.\Generated_Source\PSoC5/cyfitter_cfg.c **** 			{0xA6u, 0x10u},
1086:.\Generated_Source\PSoC5/cyfitter_cfg.c **** 			{0xA8u, 0x02u},
1087:.\Generated_Source\PSoC5/cyfitter_cfg.c **** 			{0xAAu, 0x08u},
1088:.\Generated_Source\PSoC5/cyfitter_cfg.c **** 			{0xAEu, 0x6Cu},
1089:.\Generated_Source\PSoC5/cyfitter_cfg.c **** 			{0xB0u, 0x08u},
1090:.\Generated_Source\PSoC5/cyfitter_cfg.c **** 			{0xB2u, 0x41u},
1091:.\Generated_Source\PSoC5/cyfitter_cfg.c **** 			{0xB3u, 0xC0u},
1092:.\Generated_Source\PSoC5/cyfitter_cfg.c **** 			{0xB4u, 0xA0u},
1093:.\Generated_Source\PSoC5/cyfitter_cfg.c **** 			{0xE0u, 0xC0u},
1094:.\Generated_Source\PSoC5/cyfitter_cfg.c **** 			{0xE4u, 0x10u},
1095:.\Generated_Source\PSoC5/cyfitter_cfg.c **** 			{0xE8u, 0xD0u},
1096:.\Generated_Source\PSoC5/cyfitter_cfg.c **** 			{0xEAu, 0x20u},
1097:.\Generated_Source\PSoC5/cyfitter_cfg.c **** 			{0xECu, 0xA0u},
1098:.\Generated_Source\PSoC5/cyfitter_cfg.c **** 			{0x00u, 0x02u},
1099:.\Generated_Source\PSoC5/cyfitter_cfg.c **** 			{0x02u, 0x01u},
1100:.\Generated_Source\PSoC5/cyfitter_cfg.c **** 			{0x03u, 0x04u},
1101:.\Generated_Source\PSoC5/cyfitter_cfg.c **** 			{0x05u, 0x78u},
1102:.\Generated_Source\PSoC5/cyfitter_cfg.c **** 			{0x09u, 0x63u},
1103:.\Generated_Source\PSoC5/cyfitter_cfg.c **** 			{0x0Bu, 0x18u},
1104:.\Generated_Source\PSoC5/cyfitter_cfg.c **** 			{0x0Du, 0x63u},
1105:.\Generated_Source\PSoC5/cyfitter_cfg.c **** 			{0x0Fu, 0x10u},
1106:.\Generated_Source\PSoC5/cyfitter_cfg.c **** 			{0x10u, 0x01u},
1107:.\Generated_Source\PSoC5/cyfitter_cfg.c **** 			{0x11u, 0x21u},
1108:.\Generated_Source\PSoC5/cyfitter_cfg.c **** 			{0x12u, 0x06u},
1109:.\Generated_Source\PSoC5/cyfitter_cfg.c **** 			{0x15u, 0x42u},
1110:.\Generated_Source\PSoC5/cyfitter_cfg.c **** 			{0x19u, 0x18u},
1111:.\Generated_Source\PSoC5/cyfitter_cfg.c **** 			{0x1Bu, 0x63u},
1112:.\Generated_Source\PSoC5/cyfitter_cfg.c **** 			{0x1Fu, 0x1Bu},
1113:.\Generated_Source\PSoC5/cyfitter_cfg.c **** 			{0x21u, 0x03u},
1114:.\Generated_Source\PSoC5/cyfitter_cfg.c **** 			{0x25u, 0x63u},
1115:.\Generated_Source\PSoC5/cyfitter_cfg.c **** 			{0x29u, 0x02u},
ARM GAS  C:\Users\kingi\AppData\Local\Temp\cc068PKu.s 			page 31


1116:.\Generated_Source\PSoC5/cyfitter_cfg.c **** 			{0x2Fu, 0x0Bu},
1117:.\Generated_Source\PSoC5/cyfitter_cfg.c **** 			{0x30u, 0x04u},
1118:.\Generated_Source\PSoC5/cyfitter_cfg.c **** 			{0x33u, 0x07u},
1119:.\Generated_Source\PSoC5/cyfitter_cfg.c **** 			{0x35u, 0x78u},
1120:.\Generated_Source\PSoC5/cyfitter_cfg.c **** 			{0x36u, 0x03u},
1121:.\Generated_Source\PSoC5/cyfitter_cfg.c **** 			{0x3Bu, 0x28u},
1122:.\Generated_Source\PSoC5/cyfitter_cfg.c **** 			{0x3Eu, 0x40u},
1123:.\Generated_Source\PSoC5/cyfitter_cfg.c **** 			{0x58u, 0x04u},
1124:.\Generated_Source\PSoC5/cyfitter_cfg.c **** 			{0x59u, 0x04u},
1125:.\Generated_Source\PSoC5/cyfitter_cfg.c **** 			{0x5Cu, 0x01u},
1126:.\Generated_Source\PSoC5/cyfitter_cfg.c **** 			{0x5Fu, 0x01u},
1127:.\Generated_Source\PSoC5/cyfitter_cfg.c **** 			{0x82u, 0x03u},
1128:.\Generated_Source\PSoC5/cyfitter_cfg.c **** 			{0x83u, 0x08u},
1129:.\Generated_Source\PSoC5/cyfitter_cfg.c **** 			{0x84u, 0x03u},
1130:.\Generated_Source\PSoC5/cyfitter_cfg.c **** 			{0x88u, 0x03u},
1131:.\Generated_Source\PSoC5/cyfitter_cfg.c **** 			{0x8Au, 0x04u},
1132:.\Generated_Source\PSoC5/cyfitter_cfg.c **** 			{0x8Du, 0x01u},
1133:.\Generated_Source\PSoC5/cyfitter_cfg.c **** 			{0x8Eu, 0x03u},
1134:.\Generated_Source\PSoC5/cyfitter_cfg.c **** 			{0x8Fu, 0x06u},
1135:.\Generated_Source\PSoC5/cyfitter_cfg.c **** 			{0x90u, 0x03u},
1136:.\Generated_Source\PSoC5/cyfitter_cfg.c **** 			{0x93u, 0x20u},
1137:.\Generated_Source\PSoC5/cyfitter_cfg.c **** 			{0x96u, 0x03u},
1138:.\Generated_Source\PSoC5/cyfitter_cfg.c **** 			{0x97u, 0x08u},
1139:.\Generated_Source\PSoC5/cyfitter_cfg.c **** 			{0x9Au, 0x20u},
1140:.\Generated_Source\PSoC5/cyfitter_cfg.c **** 			{0x9Cu, 0x02u},
1141:.\Generated_Source\PSoC5/cyfitter_cfg.c **** 			{0x9Du, 0x02u},
1142:.\Generated_Source\PSoC5/cyfitter_cfg.c **** 			{0x9Eu, 0x08u},
1143:.\Generated_Source\PSoC5/cyfitter_cfg.c **** 			{0x9Fu, 0x01u},
1144:.\Generated_Source\PSoC5/cyfitter_cfg.c **** 			{0xA0u, 0x01u},
1145:.\Generated_Source\PSoC5/cyfitter_cfg.c **** 			{0xA1u, 0x08u},
1146:.\Generated_Source\PSoC5/cyfitter_cfg.c **** 			{0xA2u, 0x18u},
1147:.\Generated_Source\PSoC5/cyfitter_cfg.c **** 			{0xA3u, 0x30u},
1148:.\Generated_Source\PSoC5/cyfitter_cfg.c **** 			{0xA4u, 0x40u},
1149:.\Generated_Source\PSoC5/cyfitter_cfg.c **** 			{0xA9u, 0x10u},
1150:.\Generated_Source\PSoC5/cyfitter_cfg.c **** 			{0xAAu, 0x20u},
1151:.\Generated_Source\PSoC5/cyfitter_cfg.c **** 			{0xACu, 0x20u},
1152:.\Generated_Source\PSoC5/cyfitter_cfg.c **** 			{0xAEu, 0x40u},
1153:.\Generated_Source\PSoC5/cyfitter_cfg.c **** 			{0xB0u, 0x0Cu},
1154:.\Generated_Source\PSoC5/cyfitter_cfg.c **** 			{0xB1u, 0x04u},
1155:.\Generated_Source\PSoC5/cyfitter_cfg.c **** 			{0xB2u, 0x10u},
1156:.\Generated_Source\PSoC5/cyfitter_cfg.c **** 			{0xB3u, 0x20u},
1157:.\Generated_Source\PSoC5/cyfitter_cfg.c **** 			{0xB4u, 0x60u},
1158:.\Generated_Source\PSoC5/cyfitter_cfg.c **** 			{0xB5u, 0x18u},
1159:.\Generated_Source\PSoC5/cyfitter_cfg.c **** 			{0xB6u, 0x03u},
1160:.\Generated_Source\PSoC5/cyfitter_cfg.c **** 			{0xB7u, 0x03u},
1161:.\Generated_Source\PSoC5/cyfitter_cfg.c **** 			{0xBEu, 0x11u},
1162:.\Generated_Source\PSoC5/cyfitter_cfg.c **** 			{0xBFu, 0x54u},
1163:.\Generated_Source\PSoC5/cyfitter_cfg.c **** 			{0xD4u, 0x1Bu},
1164:.\Generated_Source\PSoC5/cyfitter_cfg.c **** 			{0xD8u, 0x04u},
1165:.\Generated_Source\PSoC5/cyfitter_cfg.c **** 			{0xD9u, 0x04u},
1166:.\Generated_Source\PSoC5/cyfitter_cfg.c **** 			{0xDBu, 0x04u},
1167:.\Generated_Source\PSoC5/cyfitter_cfg.c **** 			{0xDCu, 0x21u},
1168:.\Generated_Source\PSoC5/cyfitter_cfg.c **** 			{0xDDu, 0x20u},
1169:.\Generated_Source\PSoC5/cyfitter_cfg.c **** 			{0xDFu, 0x05u},
1170:.\Generated_Source\PSoC5/cyfitter_cfg.c **** 			{0x01u, 0x02u},
1171:.\Generated_Source\PSoC5/cyfitter_cfg.c **** 			{0x04u, 0x20u},
1172:.\Generated_Source\PSoC5/cyfitter_cfg.c **** 			{0x06u, 0x80u},
ARM GAS  C:\Users\kingi\AppData\Local\Temp\cc068PKu.s 			page 32


1173:.\Generated_Source\PSoC5/cyfitter_cfg.c **** 			{0x07u, 0x12u},
1174:.\Generated_Source\PSoC5/cyfitter_cfg.c **** 			{0x0Bu, 0x80u},
1175:.\Generated_Source\PSoC5/cyfitter_cfg.c **** 			{0x0Cu, 0x01u},
1176:.\Generated_Source\PSoC5/cyfitter_cfg.c **** 			{0x0Du, 0x80u},
1177:.\Generated_Source\PSoC5/cyfitter_cfg.c **** 			{0x0Eu, 0x28u},
1178:.\Generated_Source\PSoC5/cyfitter_cfg.c **** 			{0x15u, 0x12u},
1179:.\Generated_Source\PSoC5/cyfitter_cfg.c **** 			{0x16u, 0x10u},
1180:.\Generated_Source\PSoC5/cyfitter_cfg.c **** 			{0x17u, 0x40u},
1181:.\Generated_Source\PSoC5/cyfitter_cfg.c **** 			{0x19u, 0x02u},
1182:.\Generated_Source\PSoC5/cyfitter_cfg.c **** 			{0x1Au, 0x02u},
1183:.\Generated_Source\PSoC5/cyfitter_cfg.c **** 			{0x1Eu, 0x86u},
1184:.\Generated_Source\PSoC5/cyfitter_cfg.c **** 			{0x1Fu, 0x04u},
1185:.\Generated_Source\PSoC5/cyfitter_cfg.c **** 			{0x21u, 0x10u},
1186:.\Generated_Source\PSoC5/cyfitter_cfg.c **** 			{0x22u, 0x2Cu},
1187:.\Generated_Source\PSoC5/cyfitter_cfg.c **** 			{0x25u, 0x40u},
1188:.\Generated_Source\PSoC5/cyfitter_cfg.c **** 			{0x27u, 0xA4u},
1189:.\Generated_Source\PSoC5/cyfitter_cfg.c **** 			{0x29u, 0x44u},
1190:.\Generated_Source\PSoC5/cyfitter_cfg.c **** 			{0x2Au, 0x20u},
1191:.\Generated_Source\PSoC5/cyfitter_cfg.c **** 			{0x2Bu, 0x80u},
1192:.\Generated_Source\PSoC5/cyfitter_cfg.c **** 			{0x2Cu, 0x08u},
1193:.\Generated_Source\PSoC5/cyfitter_cfg.c **** 			{0x2Fu, 0x40u},
1194:.\Generated_Source\PSoC5/cyfitter_cfg.c **** 			{0x30u, 0x60u},
1195:.\Generated_Source\PSoC5/cyfitter_cfg.c **** 			{0x31u, 0x08u},
1196:.\Generated_Source\PSoC5/cyfitter_cfg.c **** 			{0x33u, 0x02u},
1197:.\Generated_Source\PSoC5/cyfitter_cfg.c **** 			{0x36u, 0x02u},
1198:.\Generated_Source\PSoC5/cyfitter_cfg.c **** 			{0x37u, 0x88u},
1199:.\Generated_Source\PSoC5/cyfitter_cfg.c **** 			{0x38u, 0x02u},
1200:.\Generated_Source\PSoC5/cyfitter_cfg.c **** 			{0x39u, 0x24u},
1201:.\Generated_Source\PSoC5/cyfitter_cfg.c **** 			{0x3Au, 0x40u},
1202:.\Generated_Source\PSoC5/cyfitter_cfg.c **** 			{0x3Cu, 0x02u},
1203:.\Generated_Source\PSoC5/cyfitter_cfg.c **** 			{0x3Fu, 0x40u},
1204:.\Generated_Source\PSoC5/cyfitter_cfg.c **** 			{0x59u, 0x40u},
1205:.\Generated_Source\PSoC5/cyfitter_cfg.c **** 			{0x5Bu, 0x40u},
1206:.\Generated_Source\PSoC5/cyfitter_cfg.c **** 			{0x5Cu, 0xA0u},
1207:.\Generated_Source\PSoC5/cyfitter_cfg.c **** 			{0x5Fu, 0x01u},
1208:.\Generated_Source\PSoC5/cyfitter_cfg.c **** 			{0x64u, 0x0Au},
1209:.\Generated_Source\PSoC5/cyfitter_cfg.c **** 			{0x7Du, 0x80u},
1210:.\Generated_Source\PSoC5/cyfitter_cfg.c **** 			{0x82u, 0x40u},
1211:.\Generated_Source\PSoC5/cyfitter_cfg.c **** 			{0x84u, 0x01u},
1212:.\Generated_Source\PSoC5/cyfitter_cfg.c **** 			{0x85u, 0x10u},
1213:.\Generated_Source\PSoC5/cyfitter_cfg.c **** 			{0x87u, 0x0Au},
1214:.\Generated_Source\PSoC5/cyfitter_cfg.c **** 			{0x8Au, 0x02u},
1215:.\Generated_Source\PSoC5/cyfitter_cfg.c **** 			{0x8Bu, 0x20u},
1216:.\Generated_Source\PSoC5/cyfitter_cfg.c **** 			{0x8Eu, 0x04u},
1217:.\Generated_Source\PSoC5/cyfitter_cfg.c **** 			{0x8Fu, 0x40u},
1218:.\Generated_Source\PSoC5/cyfitter_cfg.c **** 			{0x90u, 0x22u},
1219:.\Generated_Source\PSoC5/cyfitter_cfg.c **** 			{0x91u, 0x06u},
1220:.\Generated_Source\PSoC5/cyfitter_cfg.c **** 			{0x93u, 0x40u},
1221:.\Generated_Source\PSoC5/cyfitter_cfg.c **** 			{0x94u, 0x84u},
1222:.\Generated_Source\PSoC5/cyfitter_cfg.c **** 			{0x95u, 0x20u},
1223:.\Generated_Source\PSoC5/cyfitter_cfg.c **** 			{0x96u, 0xCBu},
1224:.\Generated_Source\PSoC5/cyfitter_cfg.c **** 			{0x98u, 0x48u},
1225:.\Generated_Source\PSoC5/cyfitter_cfg.c **** 			{0x99u, 0x04u},
1226:.\Generated_Source\PSoC5/cyfitter_cfg.c **** 			{0x9Au, 0x20u},
1227:.\Generated_Source\PSoC5/cyfitter_cfg.c **** 			{0x9Cu, 0x11u},
1228:.\Generated_Source\PSoC5/cyfitter_cfg.c **** 			{0x9Du, 0x08u},
1229:.\Generated_Source\PSoC5/cyfitter_cfg.c **** 			{0x9Fu, 0x64u},
ARM GAS  C:\Users\kingi\AppData\Local\Temp\cc068PKu.s 			page 33


1230:.\Generated_Source\PSoC5/cyfitter_cfg.c **** 			{0xA0u, 0x20u},
1231:.\Generated_Source\PSoC5/cyfitter_cfg.c **** 			{0xA1u, 0x88u},
1232:.\Generated_Source\PSoC5/cyfitter_cfg.c **** 			{0xA3u, 0x02u},
1233:.\Generated_Source\PSoC5/cyfitter_cfg.c **** 			{0xA4u, 0x80u},
1234:.\Generated_Source\PSoC5/cyfitter_cfg.c **** 			{0xA5u, 0x10u},
1235:.\Generated_Source\PSoC5/cyfitter_cfg.c **** 			{0xA6u, 0x21u},
1236:.\Generated_Source\PSoC5/cyfitter_cfg.c **** 			{0xA7u, 0x20u},
1237:.\Generated_Source\PSoC5/cyfitter_cfg.c **** 			{0xA9u, 0x02u},
1238:.\Generated_Source\PSoC5/cyfitter_cfg.c **** 			{0xABu, 0x80u},
1239:.\Generated_Source\PSoC5/cyfitter_cfg.c **** 			{0xACu, 0x88u},
1240:.\Generated_Source\PSoC5/cyfitter_cfg.c **** 			{0xADu, 0x01u},
1241:.\Generated_Source\PSoC5/cyfitter_cfg.c **** 			{0xAFu, 0x01u},
1242:.\Generated_Source\PSoC5/cyfitter_cfg.c **** 			{0xB0u, 0x08u},
1243:.\Generated_Source\PSoC5/cyfitter_cfg.c **** 			{0xB3u, 0x90u},
1244:.\Generated_Source\PSoC5/cyfitter_cfg.c **** 			{0xB4u, 0x42u},
1245:.\Generated_Source\PSoC5/cyfitter_cfg.c **** 			{0xB5u, 0x0Cu},
1246:.\Generated_Source\PSoC5/cyfitter_cfg.c **** 			{0xC0u, 0xF8u},
1247:.\Generated_Source\PSoC5/cyfitter_cfg.c **** 			{0xC2u, 0xF8u},
1248:.\Generated_Source\PSoC5/cyfitter_cfg.c **** 			{0xC4u, 0xF0u},
1249:.\Generated_Source\PSoC5/cyfitter_cfg.c **** 			{0xCAu, 0xAFu},
1250:.\Generated_Source\PSoC5/cyfitter_cfg.c **** 			{0xCCu, 0xDFu},
1251:.\Generated_Source\PSoC5/cyfitter_cfg.c **** 			{0xCEu, 0x9Fu},
1252:.\Generated_Source\PSoC5/cyfitter_cfg.c **** 			{0xD6u, 0xB0u},
1253:.\Generated_Source\PSoC5/cyfitter_cfg.c **** 			{0xD8u, 0x30u},
1254:.\Generated_Source\PSoC5/cyfitter_cfg.c **** 			{0xDEu, 0x10u},
1255:.\Generated_Source\PSoC5/cyfitter_cfg.c **** 			{0xE0u, 0xD0u},
1256:.\Generated_Source\PSoC5/cyfitter_cfg.c **** 			{0xE4u, 0x20u},
1257:.\Generated_Source\PSoC5/cyfitter_cfg.c **** 			{0xE8u, 0xD0u},
1258:.\Generated_Source\PSoC5/cyfitter_cfg.c **** 			{0xECu, 0xB0u},
1259:.\Generated_Source\PSoC5/cyfitter_cfg.c **** 			{0x02u, 0x01u},
1260:.\Generated_Source\PSoC5/cyfitter_cfg.c **** 			{0x03u, 0x01u},
1261:.\Generated_Source\PSoC5/cyfitter_cfg.c **** 			{0x05u, 0x01u},
1262:.\Generated_Source\PSoC5/cyfitter_cfg.c **** 			{0x06u, 0x01u},
1263:.\Generated_Source\PSoC5/cyfitter_cfg.c **** 			{0x08u, 0x28u},
1264:.\Generated_Source\PSoC5/cyfitter_cfg.c **** 			{0x0Au, 0x10u},
1265:.\Generated_Source\PSoC5/cyfitter_cfg.c **** 			{0x0Bu, 0x01u},
1266:.\Generated_Source\PSoC5/cyfitter_cfg.c **** 			{0x0Cu, 0x48u},
1267:.\Generated_Source\PSoC5/cyfitter_cfg.c **** 			{0x0Eu, 0x90u},
1268:.\Generated_Source\PSoC5/cyfitter_cfg.c **** 			{0x0Fu, 0x01u},
1269:.\Generated_Source\PSoC5/cyfitter_cfg.c **** 			{0x11u, 0x50u},
1270:.\Generated_Source\PSoC5/cyfitter_cfg.c **** 			{0x13u, 0xA0u},
1271:.\Generated_Source\PSoC5/cyfitter_cfg.c **** 			{0x15u, 0x18u},
1272:.\Generated_Source\PSoC5/cyfitter_cfg.c **** 			{0x16u, 0x02u},
1273:.\Generated_Source\PSoC5/cyfitter_cfg.c **** 			{0x17u, 0x20u},
1274:.\Generated_Source\PSoC5/cyfitter_cfg.c **** 			{0x1Au, 0x01u},
1275:.\Generated_Source\PSoC5/cyfitter_cfg.c **** 			{0x1Bu, 0x04u},
1276:.\Generated_Source\PSoC5/cyfitter_cfg.c **** 			{0x1Cu, 0x01u},
1277:.\Generated_Source\PSoC5/cyfitter_cfg.c **** 			{0x1Du, 0x48u},
1278:.\Generated_Source\PSoC5/cyfitter_cfg.c **** 			{0x1Fu, 0xA0u},
1279:.\Generated_Source\PSoC5/cyfitter_cfg.c **** 			{0x20u, 0x60u},
1280:.\Generated_Source\PSoC5/cyfitter_cfg.c **** 			{0x22u, 0x90u},
1281:.\Generated_Source\PSoC5/cyfitter_cfg.c **** 			{0x23u, 0x02u},
1282:.\Generated_Source\PSoC5/cyfitter_cfg.c **** 			{0x25u, 0x01u},
1283:.\Generated_Source\PSoC5/cyfitter_cfg.c **** 			{0x26u, 0x01u},
1284:.\Generated_Source\PSoC5/cyfitter_cfg.c **** 			{0x28u, 0x01u},
1285:.\Generated_Source\PSoC5/cyfitter_cfg.c **** 			{0x2Eu, 0x04u},
1286:.\Generated_Source\PSoC5/cyfitter_cfg.c **** 			{0x2Fu, 0x01u},
ARM GAS  C:\Users\kingi\AppData\Local\Temp\cc068PKu.s 			page 34


1287:.\Generated_Source\PSoC5/cyfitter_cfg.c **** 			{0x32u, 0x3Fu},
1288:.\Generated_Source\PSoC5/cyfitter_cfg.c **** 			{0x33u, 0x3Fu},
1289:.\Generated_Source\PSoC5/cyfitter_cfg.c **** 			{0x36u, 0xC7u},
1290:.\Generated_Source\PSoC5/cyfitter_cfg.c **** 			{0x37u, 0xC7u},
1291:.\Generated_Source\PSoC5/cyfitter_cfg.c **** 			{0x38u, 0x88u},
1292:.\Generated_Source\PSoC5/cyfitter_cfg.c **** 			{0x39u, 0x88u},
1293:.\Generated_Source\PSoC5/cyfitter_cfg.c **** 			{0x54u, 0x1Bu},
1294:.\Generated_Source\PSoC5/cyfitter_cfg.c **** 			{0x58u, 0x04u},
1295:.\Generated_Source\PSoC5/cyfitter_cfg.c **** 			{0x59u, 0x04u},
1296:.\Generated_Source\PSoC5/cyfitter_cfg.c **** 			{0x5Bu, 0x04u},
1297:.\Generated_Source\PSoC5/cyfitter_cfg.c **** 			{0x5Cu, 0x10u},
1298:.\Generated_Source\PSoC5/cyfitter_cfg.c **** 			{0x5Du, 0x10u},
1299:.\Generated_Source\PSoC5/cyfitter_cfg.c **** 			{0x5Fu, 0x05u},
1300:.\Generated_Source\PSoC5/cyfitter_cfg.c **** 			{0x80u, 0x02u},
1301:.\Generated_Source\PSoC5/cyfitter_cfg.c **** 			{0x82u, 0x0Cu},
1302:.\Generated_Source\PSoC5/cyfitter_cfg.c **** 			{0x84u, 0xF2u},
1303:.\Generated_Source\PSoC5/cyfitter_cfg.c **** 			{0x86u, 0x04u},
1304:.\Generated_Source\PSoC5/cyfitter_cfg.c **** 			{0x8Au, 0x02u},
1305:.\Generated_Source\PSoC5/cyfitter_cfg.c **** 			{0x8Cu, 0x48u},
1306:.\Generated_Source\PSoC5/cyfitter_cfg.c **** 			{0x8Fu, 0x02u},
1307:.\Generated_Source\PSoC5/cyfitter_cfg.c **** 			{0x90u, 0xC8u},
1308:.\Generated_Source\PSoC5/cyfitter_cfg.c **** 			{0x94u, 0x88u},
1309:.\Generated_Source\PSoC5/cyfitter_cfg.c **** 			{0x98u, 0xCAu},
1310:.\Generated_Source\PSoC5/cyfitter_cfg.c **** 			{0x9Au, 0x24u},
1311:.\Generated_Source\PSoC5/cyfitter_cfg.c **** 			{0x9Cu, 0x32u},
1312:.\Generated_Source\PSoC5/cyfitter_cfg.c **** 			{0x9Eu, 0xCCu},
1313:.\Generated_Source\PSoC5/cyfitter_cfg.c **** 			{0x9Fu, 0x01u},
1314:.\Generated_Source\PSoC5/cyfitter_cfg.c **** 			{0xA2u, 0x3Cu},
1315:.\Generated_Source\PSoC5/cyfitter_cfg.c **** 			{0xA4u, 0xCEu},
1316:.\Generated_Source\PSoC5/cyfitter_cfg.c **** 			{0xA6u, 0x10u},
1317:.\Generated_Source\PSoC5/cyfitter_cfg.c **** 			{0xA7u, 0x02u},
1318:.\Generated_Source\PSoC5/cyfitter_cfg.c **** 			{0xA8u, 0x02u},
1319:.\Generated_Source\PSoC5/cyfitter_cfg.c **** 			{0xAAu, 0x01u},
1320:.\Generated_Source\PSoC5/cyfitter_cfg.c **** 			{0xACu, 0x08u},
1321:.\Generated_Source\PSoC5/cyfitter_cfg.c **** 			{0xB1u, 0x01u},
1322:.\Generated_Source\PSoC5/cyfitter_cfg.c **** 			{0xB4u, 0x01u},
1323:.\Generated_Source\PSoC5/cyfitter_cfg.c **** 			{0xB6u, 0xFEu},
1324:.\Generated_Source\PSoC5/cyfitter_cfg.c **** 			{0xB7u, 0x02u},
1325:.\Generated_Source\PSoC5/cyfitter_cfg.c **** 			{0xBEu, 0x40u},
1326:.\Generated_Source\PSoC5/cyfitter_cfg.c **** 			{0xBFu, 0x40u},
1327:.\Generated_Source\PSoC5/cyfitter_cfg.c **** 			{0xD8u, 0x04u},
1328:.\Generated_Source\PSoC5/cyfitter_cfg.c **** 			{0xD9u, 0x04u},
1329:.\Generated_Source\PSoC5/cyfitter_cfg.c **** 			{0xDCu, 0x20u},
1330:.\Generated_Source\PSoC5/cyfitter_cfg.c **** 			{0xDFu, 0x01u},
1331:.\Generated_Source\PSoC5/cyfitter_cfg.c **** 			{0x00u, 0x80u},
1332:.\Generated_Source\PSoC5/cyfitter_cfg.c **** 			{0x01u, 0x24u},
1333:.\Generated_Source\PSoC5/cyfitter_cfg.c **** 			{0x03u, 0x52u},
1334:.\Generated_Source\PSoC5/cyfitter_cfg.c **** 			{0x04u, 0x10u},
1335:.\Generated_Source\PSoC5/cyfitter_cfg.c **** 			{0x05u, 0x40u},
1336:.\Generated_Source\PSoC5/cyfitter_cfg.c **** 			{0x07u, 0x51u},
1337:.\Generated_Source\PSoC5/cyfitter_cfg.c **** 			{0x08u, 0x22u},
1338:.\Generated_Source\PSoC5/cyfitter_cfg.c **** 			{0x09u, 0x48u},
1339:.\Generated_Source\PSoC5/cyfitter_cfg.c **** 			{0x0Au, 0x08u},
1340:.\Generated_Source\PSoC5/cyfitter_cfg.c **** 			{0x0Cu, 0x20u},
1341:.\Generated_Source\PSoC5/cyfitter_cfg.c **** 			{0x0Fu, 0x12u},
1342:.\Generated_Source\PSoC5/cyfitter_cfg.c **** 			{0x10u, 0x4Au},
1343:.\Generated_Source\PSoC5/cyfitter_cfg.c **** 			{0x11u, 0x02u},
ARM GAS  C:\Users\kingi\AppData\Local\Temp\cc068PKu.s 			page 35


1344:.\Generated_Source\PSoC5/cyfitter_cfg.c **** 			{0x12u, 0x20u},
1345:.\Generated_Source\PSoC5/cyfitter_cfg.c **** 			{0x14u, 0x20u},
1346:.\Generated_Source\PSoC5/cyfitter_cfg.c **** 			{0x15u, 0x21u},
1347:.\Generated_Source\PSoC5/cyfitter_cfg.c **** 			{0x17u, 0x80u},
1348:.\Generated_Source\PSoC5/cyfitter_cfg.c **** 			{0x18u, 0x02u},
1349:.\Generated_Source\PSoC5/cyfitter_cfg.c **** 			{0x19u, 0x20u},
1350:.\Generated_Source\PSoC5/cyfitter_cfg.c **** 			{0x1Cu, 0x10u},
1351:.\Generated_Source\PSoC5/cyfitter_cfg.c **** 			{0x1Fu, 0x88u},
1352:.\Generated_Source\PSoC5/cyfitter_cfg.c **** 			{0x21u, 0x02u},
1353:.\Generated_Source\PSoC5/cyfitter_cfg.c **** 			{0x23u, 0x01u},
1354:.\Generated_Source\PSoC5/cyfitter_cfg.c **** 			{0x24u, 0x20u},
1355:.\Generated_Source\PSoC5/cyfitter_cfg.c **** 			{0x25u, 0x80u},
1356:.\Generated_Source\PSoC5/cyfitter_cfg.c **** 			{0x26u, 0x04u},
1357:.\Generated_Source\PSoC5/cyfitter_cfg.c **** 			{0x27u, 0x02u},
1358:.\Generated_Source\PSoC5/cyfitter_cfg.c **** 			{0x2Bu, 0x20u},
1359:.\Generated_Source\PSoC5/cyfitter_cfg.c **** 			{0x2Cu, 0x81u},
1360:.\Generated_Source\PSoC5/cyfitter_cfg.c **** 			{0x2Du, 0x08u},
1361:.\Generated_Source\PSoC5/cyfitter_cfg.c **** 			{0x30u, 0x04u},
1362:.\Generated_Source\PSoC5/cyfitter_cfg.c **** 			{0x32u, 0x40u},
1363:.\Generated_Source\PSoC5/cyfitter_cfg.c **** 			{0x33u, 0x04u},
1364:.\Generated_Source\PSoC5/cyfitter_cfg.c **** 			{0x34u, 0x90u},
1365:.\Generated_Source\PSoC5/cyfitter_cfg.c **** 			{0x36u, 0x04u},
1366:.\Generated_Source\PSoC5/cyfitter_cfg.c **** 			{0x37u, 0x02u},
1367:.\Generated_Source\PSoC5/cyfitter_cfg.c **** 			{0x38u, 0x80u},
1368:.\Generated_Source\PSoC5/cyfitter_cfg.c **** 			{0x3Cu, 0x04u},
1369:.\Generated_Source\PSoC5/cyfitter_cfg.c **** 			{0x3Du, 0x20u},
1370:.\Generated_Source\PSoC5/cyfitter_cfg.c **** 			{0x3Eu, 0x41u},
1371:.\Generated_Source\PSoC5/cyfitter_cfg.c **** 			{0x5Cu, 0x40u},
1372:.\Generated_Source\PSoC5/cyfitter_cfg.c **** 			{0x5Eu, 0x02u},
1373:.\Generated_Source\PSoC5/cyfitter_cfg.c **** 			{0x5Fu, 0x20u},
1374:.\Generated_Source\PSoC5/cyfitter_cfg.c **** 			{0x64u, 0x04u},
1375:.\Generated_Source\PSoC5/cyfitter_cfg.c **** 			{0x67u, 0x01u},
1376:.\Generated_Source\PSoC5/cyfitter_cfg.c **** 			{0x79u, 0x01u},
1377:.\Generated_Source\PSoC5/cyfitter_cfg.c **** 			{0x7Bu, 0x80u},
1378:.\Generated_Source\PSoC5/cyfitter_cfg.c **** 			{0x7Eu, 0x01u},
1379:.\Generated_Source\PSoC5/cyfitter_cfg.c **** 			{0x81u, 0x80u},
1380:.\Generated_Source\PSoC5/cyfitter_cfg.c **** 			{0x84u, 0x20u},
1381:.\Generated_Source\PSoC5/cyfitter_cfg.c **** 			{0x85u, 0x40u},
1382:.\Generated_Source\PSoC5/cyfitter_cfg.c **** 			{0x87u, 0x09u},
1383:.\Generated_Source\PSoC5/cyfitter_cfg.c **** 			{0x88u, 0x42u},
1384:.\Generated_Source\PSoC5/cyfitter_cfg.c **** 			{0x8Au, 0x20u},
1385:.\Generated_Source\PSoC5/cyfitter_cfg.c **** 			{0x91u, 0x04u},
1386:.\Generated_Source\PSoC5/cyfitter_cfg.c **** 			{0x93u, 0x40u},
1387:.\Generated_Source\PSoC5/cyfitter_cfg.c **** 			{0x99u, 0x40u},
1388:.\Generated_Source\PSoC5/cyfitter_cfg.c **** 			{0xA1u, 0x01u},
1389:.\Generated_Source\PSoC5/cyfitter_cfg.c **** 			{0xADu, 0x04u},
1390:.\Generated_Source\PSoC5/cyfitter_cfg.c **** 			{0xB1u, 0x40u},
1391:.\Generated_Source\PSoC5/cyfitter_cfg.c **** 			{0xB5u, 0x01u},
1392:.\Generated_Source\PSoC5/cyfitter_cfg.c **** 			{0xC0u, 0xFFu},
1393:.\Generated_Source\PSoC5/cyfitter_cfg.c **** 			{0xC2u, 0xEFu},
1394:.\Generated_Source\PSoC5/cyfitter_cfg.c **** 			{0xC4u, 0xFFu},
1395:.\Generated_Source\PSoC5/cyfitter_cfg.c **** 			{0xCAu, 0xD2u},
1396:.\Generated_Source\PSoC5/cyfitter_cfg.c **** 			{0xCCu, 0xF8u},
1397:.\Generated_Source\PSoC5/cyfitter_cfg.c **** 			{0xCEu, 0xF8u},
1398:.\Generated_Source\PSoC5/cyfitter_cfg.c **** 			{0xD6u, 0xB0u},
1399:.\Generated_Source\PSoC5/cyfitter_cfg.c **** 			{0xD8u, 0x30u},
1400:.\Generated_Source\PSoC5/cyfitter_cfg.c **** 			{0xDEu, 0x10u},
ARM GAS  C:\Users\kingi\AppData\Local\Temp\cc068PKu.s 			page 36


1401:.\Generated_Source\PSoC5/cyfitter_cfg.c **** 			{0xE4u, 0xA0u},
1402:.\Generated_Source\PSoC5/cyfitter_cfg.c **** 			{0xE8u, 0x90u},
1403:.\Generated_Source\PSoC5/cyfitter_cfg.c **** 			{0x8Bu, 0x40u},
1404:.\Generated_Source\PSoC5/cyfitter_cfg.c **** 			{0xE0u, 0x20u},
1405:.\Generated_Source\PSoC5/cyfitter_cfg.c **** 			{0x01u, 0x07u},
1406:.\Generated_Source\PSoC5/cyfitter_cfg.c **** 			{0x05u, 0x10u},
1407:.\Generated_Source\PSoC5/cyfitter_cfg.c **** 			{0x06u, 0x04u},
1408:.\Generated_Source\PSoC5/cyfitter_cfg.c **** 			{0x09u, 0x40u},
1409:.\Generated_Source\PSoC5/cyfitter_cfg.c **** 			{0x0Bu, 0x04u},
1410:.\Generated_Source\PSoC5/cyfitter_cfg.c **** 			{0x0Cu, 0x02u},
1411:.\Generated_Source\PSoC5/cyfitter_cfg.c **** 			{0x0Du, 0xB3u},
1412:.\Generated_Source\PSoC5/cyfitter_cfg.c **** 			{0x0Eu, 0x01u},
1413:.\Generated_Source\PSoC5/cyfitter_cfg.c **** 			{0x0Fu, 0x08u},
1414:.\Generated_Source\PSoC5/cyfitter_cfg.c **** 			{0x10u, 0x01u},
1415:.\Generated_Source\PSoC5/cyfitter_cfg.c **** 			{0x11u, 0x08u},
1416:.\Generated_Source\PSoC5/cyfitter_cfg.c **** 			{0x12u, 0x02u},
1417:.\Generated_Source\PSoC5/cyfitter_cfg.c **** 			{0x13u, 0x83u},
1418:.\Generated_Source\PSoC5/cyfitter_cfg.c **** 			{0x15u, 0x09u},
1419:.\Generated_Source\PSoC5/cyfitter_cfg.c **** 			{0x17u, 0xB0u},
1420:.\Generated_Source\PSoC5/cyfitter_cfg.c **** 			{0x1Bu, 0x8Au},
1421:.\Generated_Source\PSoC5/cyfitter_cfg.c **** 			{0x1Du, 0x20u},
1422:.\Generated_Source\PSoC5/cyfitter_cfg.c **** 			{0x21u, 0x3Bu},
1423:.\Generated_Source\PSoC5/cyfitter_cfg.c **** 			{0x23u, 0x80u},
1424:.\Generated_Source\PSoC5/cyfitter_cfg.c **** 			{0x25u, 0x30u},
1425:.\Generated_Source\PSoC5/cyfitter_cfg.c **** 			{0x26u, 0x04u},
1426:.\Generated_Source\PSoC5/cyfitter_cfg.c **** 			{0x29u, 0x38u},
1427:.\Generated_Source\PSoC5/cyfitter_cfg.c **** 			{0x2Bu, 0x83u},
1428:.\Generated_Source\PSoC5/cyfitter_cfg.c **** 			{0x2Fu, 0x80u},
1429:.\Generated_Source\PSoC5/cyfitter_cfg.c **** 			{0x30u, 0x03u},
1430:.\Generated_Source\PSoC5/cyfitter_cfg.c **** 			{0x31u, 0x40u},
1431:.\Generated_Source\PSoC5/cyfitter_cfg.c **** 			{0x33u, 0x07u},
1432:.\Generated_Source\PSoC5/cyfitter_cfg.c **** 			{0x35u, 0x38u},
1433:.\Generated_Source\PSoC5/cyfitter_cfg.c **** 			{0x36u, 0x04u},
1434:.\Generated_Source\PSoC5/cyfitter_cfg.c **** 			{0x37u, 0x80u},
1435:.\Generated_Source\PSoC5/cyfitter_cfg.c **** 			{0x3Eu, 0x41u},
1436:.\Generated_Source\PSoC5/cyfitter_cfg.c **** 			{0x3Fu, 0x41u},
1437:.\Generated_Source\PSoC5/cyfitter_cfg.c **** 			{0x54u, 0x1Bu},
1438:.\Generated_Source\PSoC5/cyfitter_cfg.c **** 			{0x58u, 0x04u},
1439:.\Generated_Source\PSoC5/cyfitter_cfg.c **** 			{0x59u, 0x04u},
1440:.\Generated_Source\PSoC5/cyfitter_cfg.c **** 			{0x5Bu, 0x04u},
1441:.\Generated_Source\PSoC5/cyfitter_cfg.c **** 			{0x5Fu, 0x05u},
1442:.\Generated_Source\PSoC5/cyfitter_cfg.c **** 			{0x80u, 0x20u},
1443:.\Generated_Source\PSoC5/cyfitter_cfg.c **** 			{0x82u, 0xC2u},
1444:.\Generated_Source\PSoC5/cyfitter_cfg.c **** 			{0x83u, 0x01u},
1445:.\Generated_Source\PSoC5/cyfitter_cfg.c **** 			{0x84u, 0xC4u},
1446:.\Generated_Source\PSoC5/cyfitter_cfg.c **** 			{0x85u, 0x28u},
1447:.\Generated_Source\PSoC5/cyfitter_cfg.c **** 			{0x86u, 0x02u},
1448:.\Generated_Source\PSoC5/cyfitter_cfg.c **** 			{0x87u, 0x10u},
1449:.\Generated_Source\PSoC5/cyfitter_cfg.c **** 			{0x88u, 0x80u},
1450:.\Generated_Source\PSoC5/cyfitter_cfg.c **** 			{0x89u, 0x60u},
1451:.\Generated_Source\PSoC5/cyfitter_cfg.c **** 			{0x8Bu, 0x90u},
1452:.\Generated_Source\PSoC5/cyfitter_cfg.c **** 			{0x8Eu, 0xC0u},
1453:.\Generated_Source\PSoC5/cyfitter_cfg.c **** 			{0x8Fu, 0x01u},
1454:.\Generated_Source\PSoC5/cyfitter_cfg.c **** 			{0x90u, 0x01u},
1455:.\Generated_Source\PSoC5/cyfitter_cfg.c **** 			{0x91u, 0x48u},
1456:.\Generated_Source\PSoC5/cyfitter_cfg.c **** 			{0x92u, 0x02u},
1457:.\Generated_Source\PSoC5/cyfitter_cfg.c **** 			{0x93u, 0x90u},
ARM GAS  C:\Users\kingi\AppData\Local\Temp\cc068PKu.s 			page 37


1458:.\Generated_Source\PSoC5/cyfitter_cfg.c **** 			{0x94u, 0x3Fu},
1459:.\Generated_Source\PSoC5/cyfitter_cfg.c **** 			{0x97u, 0x01u},
1460:.\Generated_Source\PSoC5/cyfitter_cfg.c **** 			{0x98u, 0xC0u},
1461:.\Generated_Source\PSoC5/cyfitter_cfg.c **** 			{0x9Bu, 0x04u},
1462:.\Generated_Source\PSoC5/cyfitter_cfg.c **** 			{0x9Cu, 0x40u},
1463:.\Generated_Source\PSoC5/cyfitter_cfg.c **** 			{0x9Fu, 0x01u},
1464:.\Generated_Source\PSoC5/cyfitter_cfg.c **** 			{0xA0u, 0x3Du},
1465:.\Generated_Source\PSoC5/cyfitter_cfg.c **** 			{0xA2u, 0x02u},
1466:.\Generated_Source\PSoC5/cyfitter_cfg.c **** 			{0xA4u, 0x3Fu},
1467:.\Generated_Source\PSoC5/cyfitter_cfg.c **** 			{0xA7u, 0x02u},
1468:.\Generated_Source\PSoC5/cyfitter_cfg.c **** 			{0xA8u, 0x02u},
1469:.\Generated_Source\PSoC5/cyfitter_cfg.c **** 			{0xA9u, 0x01u},
1470:.\Generated_Source\PSoC5/cyfitter_cfg.c **** 			{0xAAu, 0xD0u},
1471:.\Generated_Source\PSoC5/cyfitter_cfg.c **** 			{0xACu, 0xC8u},
1472:.\Generated_Source\PSoC5/cyfitter_cfg.c **** 			{0xADu, 0x01u},
1473:.\Generated_Source\PSoC5/cyfitter_cfg.c **** 			{0xAEu, 0x02u},
1474:.\Generated_Source\PSoC5/cyfitter_cfg.c **** 			{0xB2u, 0xC0u},
1475:.\Generated_Source\PSoC5/cyfitter_cfg.c **** 			{0xB3u, 0x3Fu},
1476:.\Generated_Source\PSoC5/cyfitter_cfg.c **** 			{0xB5u, 0xC7u},
1477:.\Generated_Source\PSoC5/cyfitter_cfg.c **** 			{0xB6u, 0x3Fu},
1478:.\Generated_Source\PSoC5/cyfitter_cfg.c **** 			{0xB9u, 0x28u},
1479:.\Generated_Source\PSoC5/cyfitter_cfg.c **** 			{0xD8u, 0x04u},
1480:.\Generated_Source\PSoC5/cyfitter_cfg.c **** 			{0xD9u, 0x04u},
1481:.\Generated_Source\PSoC5/cyfitter_cfg.c **** 			{0xDCu, 0x22u},
1482:.\Generated_Source\PSoC5/cyfitter_cfg.c **** 			{0xDFu, 0x01u},
1483:.\Generated_Source\PSoC5/cyfitter_cfg.c **** 			{0x00u, 0x44u},
1484:.\Generated_Source\PSoC5/cyfitter_cfg.c **** 			{0x05u, 0x84u},
1485:.\Generated_Source\PSoC5/cyfitter_cfg.c **** 			{0x07u, 0x44u},
1486:.\Generated_Source\PSoC5/cyfitter_cfg.c **** 			{0x09u, 0x02u},
1487:.\Generated_Source\PSoC5/cyfitter_cfg.c **** 			{0x0Eu, 0x2Au},
1488:.\Generated_Source\PSoC5/cyfitter_cfg.c **** 			{0x0Fu, 0x40u},
1489:.\Generated_Source\PSoC5/cyfitter_cfg.c **** 			{0x10u, 0x20u},
1490:.\Generated_Source\PSoC5/cyfitter_cfg.c **** 			{0x14u, 0x04u},
1491:.\Generated_Source\PSoC5/cyfitter_cfg.c **** 			{0x15u, 0x04u},
1492:.\Generated_Source\PSoC5/cyfitter_cfg.c **** 			{0x16u, 0x83u},
1493:.\Generated_Source\PSoC5/cyfitter_cfg.c **** 			{0x17u, 0x01u},
1494:.\Generated_Source\PSoC5/cyfitter_cfg.c **** 			{0x19u, 0x40u},
1495:.\Generated_Source\PSoC5/cyfitter_cfg.c **** 			{0x1Bu, 0x01u},
1496:.\Generated_Source\PSoC5/cyfitter_cfg.c **** 			{0x1Du, 0x88u},
1497:.\Generated_Source\PSoC5/cyfitter_cfg.c **** 			{0x1Fu, 0x40u},
1498:.\Generated_Source\PSoC5/cyfitter_cfg.c **** 			{0x20u, 0x14u},
1499:.\Generated_Source\PSoC5/cyfitter_cfg.c **** 			{0x21u, 0x21u},
1500:.\Generated_Source\PSoC5/cyfitter_cfg.c **** 			{0x22u, 0x40u},
1501:.\Generated_Source\PSoC5/cyfitter_cfg.c **** 			{0x25u, 0x14u},
1502:.\Generated_Source\PSoC5/cyfitter_cfg.c **** 			{0x26u, 0x04u},
1503:.\Generated_Source\PSoC5/cyfitter_cfg.c **** 			{0x27u, 0x04u},
1504:.\Generated_Source\PSoC5/cyfitter_cfg.c **** 			{0x29u, 0x20u},
1505:.\Generated_Source\PSoC5/cyfitter_cfg.c **** 			{0x2Au, 0x40u},
1506:.\Generated_Source\PSoC5/cyfitter_cfg.c **** 			{0x2Bu, 0x90u},
1507:.\Generated_Source\PSoC5/cyfitter_cfg.c **** 			{0x2Cu, 0x04u},
1508:.\Generated_Source\PSoC5/cyfitter_cfg.c **** 			{0x2Du, 0x04u},
1509:.\Generated_Source\PSoC5/cyfitter_cfg.c **** 			{0x2Eu, 0x80u},
1510:.\Generated_Source\PSoC5/cyfitter_cfg.c **** 			{0x30u, 0x80u},
1511:.\Generated_Source\PSoC5/cyfitter_cfg.c **** 			{0x31u, 0x02u},
1512:.\Generated_Source\PSoC5/cyfitter_cfg.c **** 			{0x32u, 0x24u},
1513:.\Generated_Source\PSoC5/cyfitter_cfg.c **** 			{0x35u, 0x04u},
1514:.\Generated_Source\PSoC5/cyfitter_cfg.c **** 			{0x36u, 0x11u},
ARM GAS  C:\Users\kingi\AppData\Local\Temp\cc068PKu.s 			page 38


1515:.\Generated_Source\PSoC5/cyfitter_cfg.c **** 			{0x37u, 0x40u},
1516:.\Generated_Source\PSoC5/cyfitter_cfg.c **** 			{0x38u, 0x12u},
1517:.\Generated_Source\PSoC5/cyfitter_cfg.c **** 			{0x39u, 0x40u},
1518:.\Generated_Source\PSoC5/cyfitter_cfg.c **** 			{0x3Bu, 0x04u},
1519:.\Generated_Source\PSoC5/cyfitter_cfg.c **** 			{0x3Du, 0xA8u},
1520:.\Generated_Source\PSoC5/cyfitter_cfg.c **** 			{0x3Eu, 0x02u},
1521:.\Generated_Source\PSoC5/cyfitter_cfg.c **** 			{0x3Fu, 0x40u},
1522:.\Generated_Source\PSoC5/cyfitter_cfg.c **** 			{0x49u, 0x80u},
1523:.\Generated_Source\PSoC5/cyfitter_cfg.c **** 			{0x4Bu, 0x80u},
1524:.\Generated_Source\PSoC5/cyfitter_cfg.c **** 			{0x59u, 0x01u},
1525:.\Generated_Source\PSoC5/cyfitter_cfg.c **** 			{0x5Au, 0x80u},
1526:.\Generated_Source\PSoC5/cyfitter_cfg.c **** 			{0x5Bu, 0x20u},
1527:.\Generated_Source\PSoC5/cyfitter_cfg.c **** 			{0x61u, 0x40u},
1528:.\Generated_Source\PSoC5/cyfitter_cfg.c **** 			{0x62u, 0x10u},
1529:.\Generated_Source\PSoC5/cyfitter_cfg.c **** 			{0x7Bu, 0x01u},
1530:.\Generated_Source\PSoC5/cyfitter_cfg.c **** 			{0x85u, 0x01u},
1531:.\Generated_Source\PSoC5/cyfitter_cfg.c **** 			{0x8Du, 0x08u},
1532:.\Generated_Source\PSoC5/cyfitter_cfg.c **** 			{0x90u, 0x42u},
1533:.\Generated_Source\PSoC5/cyfitter_cfg.c **** 			{0x91u, 0x44u},
1534:.\Generated_Source\PSoC5/cyfitter_cfg.c **** 			{0x92u, 0x08u},
1535:.\Generated_Source\PSoC5/cyfitter_cfg.c **** 			{0x93u, 0x04u},
1536:.\Generated_Source\PSoC5/cyfitter_cfg.c **** 			{0x97u, 0x80u},
1537:.\Generated_Source\PSoC5/cyfitter_cfg.c **** 			{0x98u, 0x04u},
1538:.\Generated_Source\PSoC5/cyfitter_cfg.c **** 			{0x99u, 0x25u},
1539:.\Generated_Source\PSoC5/cyfitter_cfg.c **** 			{0x9Au, 0x51u},
1540:.\Generated_Source\PSoC5/cyfitter_cfg.c **** 			{0x9Bu, 0x61u},
1541:.\Generated_Source\PSoC5/cyfitter_cfg.c **** 			{0xA0u, 0xA0u},
1542:.\Generated_Source\PSoC5/cyfitter_cfg.c **** 			{0xA1u, 0x42u},
1543:.\Generated_Source\PSoC5/cyfitter_cfg.c **** 			{0xA2u, 0x31u},
1544:.\Generated_Source\PSoC5/cyfitter_cfg.c **** 			{0xA3u, 0x90u},
1545:.\Generated_Source\PSoC5/cyfitter_cfg.c **** 			{0xA5u, 0xB4u},
1546:.\Generated_Source\PSoC5/cyfitter_cfg.c **** 			{0xAAu, 0x01u},
1547:.\Generated_Source\PSoC5/cyfitter_cfg.c **** 			{0xABu, 0x08u},
1548:.\Generated_Source\PSoC5/cyfitter_cfg.c **** 			{0xAEu, 0x04u},
1549:.\Generated_Source\PSoC5/cyfitter_cfg.c **** 			{0xAFu, 0x04u},
1550:.\Generated_Source\PSoC5/cyfitter_cfg.c **** 			{0xB2u, 0x10u},
1551:.\Generated_Source\PSoC5/cyfitter_cfg.c **** 			{0xC0u, 0xF5u},
1552:.\Generated_Source\PSoC5/cyfitter_cfg.c **** 			{0xC2u, 0xF8u},
1553:.\Generated_Source\PSoC5/cyfitter_cfg.c **** 			{0xC4u, 0xF4u},
1554:.\Generated_Source\PSoC5/cyfitter_cfg.c **** 			{0xCAu, 0x7Fu},
1555:.\Generated_Source\PSoC5/cyfitter_cfg.c **** 			{0xCCu, 0xFFu},
1556:.\Generated_Source\PSoC5/cyfitter_cfg.c **** 			{0xCEu, 0xFFu},
1557:.\Generated_Source\PSoC5/cyfitter_cfg.c **** 			{0xD6u, 0x0Du},
1558:.\Generated_Source\PSoC5/cyfitter_cfg.c **** 			{0xD8u, 0x0Cu},
1559:.\Generated_Source\PSoC5/cyfitter_cfg.c **** 			{0xDEu, 0x08u},
1560:.\Generated_Source\PSoC5/cyfitter_cfg.c **** 			{0xE8u, 0x02u},
1561:.\Generated_Source\PSoC5/cyfitter_cfg.c **** 			{0xECu, 0x08u},
1562:.\Generated_Source\PSoC5/cyfitter_cfg.c **** 			{0x01u, 0x40u},
1563:.\Generated_Source\PSoC5/cyfitter_cfg.c **** 			{0x02u, 0x7Bu},
1564:.\Generated_Source\PSoC5/cyfitter_cfg.c **** 			{0x04u, 0x2Bu},
1565:.\Generated_Source\PSoC5/cyfitter_cfg.c **** 			{0x05u, 0x03u},
1566:.\Generated_Source\PSoC5/cyfitter_cfg.c **** 			{0x06u, 0x40u},
1567:.\Generated_Source\PSoC5/cyfitter_cfg.c **** 			{0x09u, 0x02u},
1568:.\Generated_Source\PSoC5/cyfitter_cfg.c **** 			{0x0Au, 0x04u},
1569:.\Generated_Source\PSoC5/cyfitter_cfg.c **** 			{0x0Cu, 0x39u},
1570:.\Generated_Source\PSoC5/cyfitter_cfg.c **** 			{0x0Du, 0x03u},
1571:.\Generated_Source\PSoC5/cyfitter_cfg.c **** 			{0x0Eu, 0x40u},
ARM GAS  C:\Users\kingi\AppData\Local\Temp\cc068PKu.s 			page 39


1572:.\Generated_Source\PSoC5/cyfitter_cfg.c **** 			{0x0Fu, 0x1Cu},
1573:.\Generated_Source\PSoC5/cyfitter_cfg.c **** 			{0x11u, 0x01u},
1574:.\Generated_Source\PSoC5/cyfitter_cfg.c **** 			{0x12u, 0x72u},
1575:.\Generated_Source\PSoC5/cyfitter_cfg.c **** 			{0x14u, 0x18u},
1576:.\Generated_Source\PSoC5/cyfitter_cfg.c **** 			{0x15u, 0x0Fu},
1577:.\Generated_Source\PSoC5/cyfitter_cfg.c **** 			{0x16u, 0x40u},
1578:.\Generated_Source\PSoC5/cyfitter_cfg.c **** 			{0x17u, 0x70u},
1579:.\Generated_Source\PSoC5/cyfitter_cfg.c **** 			{0x18u, 0x38u},
1580:.\Generated_Source\PSoC5/cyfitter_cfg.c **** 			{0x19u, 0x67u},
1581:.\Generated_Source\PSoC5/cyfitter_cfg.c **** 			{0x1Au, 0x43u},
1582:.\Generated_Source\PSoC5/cyfitter_cfg.c **** 			{0x1Bu, 0x18u},
1583:.\Generated_Source\PSoC5/cyfitter_cfg.c **** 			{0x1Cu, 0x5Bu},
1584:.\Generated_Source\PSoC5/cyfitter_cfg.c **** 			{0x1Du, 0x6Cu},
1585:.\Generated_Source\PSoC5/cyfitter_cfg.c **** 			{0x1Eu, 0x20u},
1586:.\Generated_Source\PSoC5/cyfitter_cfg.c **** 			{0x1Fu, 0x13u},
1587:.\Generated_Source\PSoC5/cyfitter_cfg.c **** 			{0x20u, 0x07u},
1588:.\Generated_Source\PSoC5/cyfitter_cfg.c **** 			{0x23u, 0x1Fu},
1589:.\Generated_Source\PSoC5/cyfitter_cfg.c **** 			{0x25u, 0x20u},
1590:.\Generated_Source\PSoC5/cyfitter_cfg.c **** 			{0x29u, 0x60u},
1591:.\Generated_Source\PSoC5/cyfitter_cfg.c **** 			{0x2Du, 0x7Bu},
1592:.\Generated_Source\PSoC5/cyfitter_cfg.c **** 			{0x2Fu, 0x04u},
1593:.\Generated_Source\PSoC5/cyfitter_cfg.c **** 			{0x32u, 0x07u},
1594:.\Generated_Source\PSoC5/cyfitter_cfg.c **** 			{0x34u, 0x78u},
1595:.\Generated_Source\PSoC5/cyfitter_cfg.c **** 			{0x35u, 0x7Fu},
1596:.\Generated_Source\PSoC5/cyfitter_cfg.c **** 			{0x3Au, 0x20u},
1597:.\Generated_Source\PSoC5/cyfitter_cfg.c **** 			{0x3Bu, 0x20u},
1598:.\Generated_Source\PSoC5/cyfitter_cfg.c **** 			{0x58u, 0x04u},
1599:.\Generated_Source\PSoC5/cyfitter_cfg.c **** 			{0x59u, 0x04u},
1600:.\Generated_Source\PSoC5/cyfitter_cfg.c **** 			{0x5Cu, 0x21u},
1601:.\Generated_Source\PSoC5/cyfitter_cfg.c **** 			{0x5Fu, 0x01u},
1602:.\Generated_Source\PSoC5/cyfitter_cfg.c **** 			{0x80u, 0x7Fu},
1603:.\Generated_Source\PSoC5/cyfitter_cfg.c **** 			{0x81u, 0x12u},
1604:.\Generated_Source\PSoC5/cyfitter_cfg.c **** 			{0x85u, 0x13u},
1605:.\Generated_Source\PSoC5/cyfitter_cfg.c **** 			{0x86u, 0x3Fu},
1606:.\Generated_Source\PSoC5/cyfitter_cfg.c **** 			{0x88u, 0x48u},
1607:.\Generated_Source\PSoC5/cyfitter_cfg.c **** 			{0x89u, 0x68u},
1608:.\Generated_Source\PSoC5/cyfitter_cfg.c **** 			{0x8Au, 0x17u},
1609:.\Generated_Source\PSoC5/cyfitter_cfg.c **** 			{0x8Bu, 0x13u},
1610:.\Generated_Source\PSoC5/cyfitter_cfg.c **** 			{0x8Cu, 0x12u},
1611:.\Generated_Source\PSoC5/cyfitter_cfg.c **** 			{0x8Fu, 0x3Fu},
1612:.\Generated_Source\PSoC5/cyfitter_cfg.c **** 			{0x92u, 0x3Fu},
1613:.\Generated_Source\PSoC5/cyfitter_cfg.c **** 			{0x93u, 0x3Fu},
1614:.\Generated_Source\PSoC5/cyfitter_cfg.c **** 			{0x94u, 0x13u},
1615:.\Generated_Source\PSoC5/cyfitter_cfg.c **** 			{0x95u, 0x07u},
1616:.\Generated_Source\PSoC5/cyfitter_cfg.c **** 			{0x98u, 0x68u},
1617:.\Generated_Source\PSoC5/cyfitter_cfg.c **** 			{0x99u, 0x7Fu},
1618:.\Generated_Source\PSoC5/cyfitter_cfg.c **** 			{0x9Au, 0x13u},
1619:.\Generated_Source\PSoC5/cyfitter_cfg.c **** 			{0x9Du, 0x77u},
1620:.\Generated_Source\PSoC5/cyfitter_cfg.c **** 			{0x9Eu, 0x24u},
1621:.\Generated_Source\PSoC5/cyfitter_cfg.c **** 			{0xA0u, 0x12u},
1622:.\Generated_Source\PSoC5/cyfitter_cfg.c **** 			{0xA3u, 0x24u},
1623:.\Generated_Source\PSoC5/cyfitter_cfg.c **** 			{0xA4u, 0x11u},
1624:.\Generated_Source\PSoC5/cyfitter_cfg.c **** 			{0xA5u, 0x11u},
1625:.\Generated_Source\PSoC5/cyfitter_cfg.c **** 			{0xA8u, 0x07u},
1626:.\Generated_Source\PSoC5/cyfitter_cfg.c **** 			{0xA9u, 0x48u},
1627:.\Generated_Source\PSoC5/cyfitter_cfg.c **** 			{0xABu, 0x17u},
1628:.\Generated_Source\PSoC5/cyfitter_cfg.c **** 			{0xACu, 0x77u},
ARM GAS  C:\Users\kingi\AppData\Local\Temp\cc068PKu.s 			page 40


1629:.\Generated_Source\PSoC5/cyfitter_cfg.c **** 			{0xADu, 0x12u},
1630:.\Generated_Source\PSoC5/cyfitter_cfg.c **** 			{0xB1u, 0x7Fu},
1631:.\Generated_Source\PSoC5/cyfitter_cfg.c **** 			{0xB6u, 0x7Fu},
1632:.\Generated_Source\PSoC5/cyfitter_cfg.c **** 			{0xBEu, 0x40u},
1633:.\Generated_Source\PSoC5/cyfitter_cfg.c **** 			{0xBFu, 0x01u},
1634:.\Generated_Source\PSoC5/cyfitter_cfg.c **** 			{0xC0u, 0x35u},
1635:.\Generated_Source\PSoC5/cyfitter_cfg.c **** 			{0xC1u, 0x06u},
1636:.\Generated_Source\PSoC5/cyfitter_cfg.c **** 			{0xC2u, 0x02u},
1637:.\Generated_Source\PSoC5/cyfitter_cfg.c **** 			{0xC4u, 0x01u},
1638:.\Generated_Source\PSoC5/cyfitter_cfg.c **** 			{0xC5u, 0xBCu},
1639:.\Generated_Source\PSoC5/cyfitter_cfg.c **** 			{0xC6u, 0xFDu},
1640:.\Generated_Source\PSoC5/cyfitter_cfg.c **** 			{0xC7u, 0x0Eu},
1641:.\Generated_Source\PSoC5/cyfitter_cfg.c **** 			{0xC8u, 0x1Fu},
1642:.\Generated_Source\PSoC5/cyfitter_cfg.c **** 			{0xC9u, 0xFFu},
1643:.\Generated_Source\PSoC5/cyfitter_cfg.c **** 			{0xCAu, 0xFFu},
1644:.\Generated_Source\PSoC5/cyfitter_cfg.c **** 			{0xCBu, 0xFFu},
1645:.\Generated_Source\PSoC5/cyfitter_cfg.c **** 			{0xCCu, 0x62u},
1646:.\Generated_Source\PSoC5/cyfitter_cfg.c **** 			{0xCDu, 0xA0u},
1647:.\Generated_Source\PSoC5/cyfitter_cfg.c **** 			{0xCEu, 0xF0u},
1648:.\Generated_Source\PSoC5/cyfitter_cfg.c **** 			{0xCFu, 0x41u},
1649:.\Generated_Source\PSoC5/cyfitter_cfg.c **** 			{0xD0u, 0x0Cu},
1650:.\Generated_Source\PSoC5/cyfitter_cfg.c **** 			{0xD8u, 0x04u},
1651:.\Generated_Source\PSoC5/cyfitter_cfg.c **** 			{0xD9u, 0x04u},
1652:.\Generated_Source\PSoC5/cyfitter_cfg.c **** 			{0xDAu, 0x04u},
1653:.\Generated_Source\PSoC5/cyfitter_cfg.c **** 			{0xDFu, 0x01u},
1654:.\Generated_Source\PSoC5/cyfitter_cfg.c **** 			{0xE6u, 0x40u},
1655:.\Generated_Source\PSoC5/cyfitter_cfg.c **** 			{0xE7u, 0x02u},
1656:.\Generated_Source\PSoC5/cyfitter_cfg.c **** 			{0xE9u, 0x10u},
1657:.\Generated_Source\PSoC5/cyfitter_cfg.c **** 			{0xEAu, 0x30u},
1658:.\Generated_Source\PSoC5/cyfitter_cfg.c **** 			{0xEBu, 0x10u},
1659:.\Generated_Source\PSoC5/cyfitter_cfg.c **** 			{0xEDu, 0x10u},
1660:.\Generated_Source\PSoC5/cyfitter_cfg.c **** 			{0xEEu, 0x10u},
1661:.\Generated_Source\PSoC5/cyfitter_cfg.c **** 			{0xEFu, 0x12u},
1662:.\Generated_Source\PSoC5/cyfitter_cfg.c **** 			{0x00u, 0x80u},
1663:.\Generated_Source\PSoC5/cyfitter_cfg.c **** 			{0x01u, 0x20u},
1664:.\Generated_Source\PSoC5/cyfitter_cfg.c **** 			{0x02u, 0x20u},
1665:.\Generated_Source\PSoC5/cyfitter_cfg.c **** 			{0x03u, 0x80u},
1666:.\Generated_Source\PSoC5/cyfitter_cfg.c **** 			{0x04u, 0x10u},
1667:.\Generated_Source\PSoC5/cyfitter_cfg.c **** 			{0x05u, 0x80u},
1668:.\Generated_Source\PSoC5/cyfitter_cfg.c **** 			{0x06u, 0x80u},
1669:.\Generated_Source\PSoC5/cyfitter_cfg.c **** 			{0x07u, 0x10u},
1670:.\Generated_Source\PSoC5/cyfitter_cfg.c **** 			{0x08u, 0x20u},
1671:.\Generated_Source\PSoC5/cyfitter_cfg.c **** 			{0x09u, 0x02u},
1672:.\Generated_Source\PSoC5/cyfitter_cfg.c **** 			{0x0Au, 0x88u},
1673:.\Generated_Source\PSoC5/cyfitter_cfg.c **** 			{0x0Bu, 0x12u},
1674:.\Generated_Source\PSoC5/cyfitter_cfg.c **** 			{0x0Cu, 0x48u},
1675:.\Generated_Source\PSoC5/cyfitter_cfg.c **** 			{0x0Eu, 0x04u},
1676:.\Generated_Source\PSoC5/cyfitter_cfg.c **** 			{0x0Fu, 0x40u},
1677:.\Generated_Source\PSoC5/cyfitter_cfg.c **** 			{0x10u, 0x81u},
1678:.\Generated_Source\PSoC5/cyfitter_cfg.c **** 			{0x11u, 0x50u},
1679:.\Generated_Source\PSoC5/cyfitter_cfg.c **** 			{0x13u, 0x05u},
1680:.\Generated_Source\PSoC5/cyfitter_cfg.c **** 			{0x15u, 0x02u},
1681:.\Generated_Source\PSoC5/cyfitter_cfg.c **** 			{0x18u, 0x02u},
1682:.\Generated_Source\PSoC5/cyfitter_cfg.c **** 			{0x1Cu, 0x10u},
1683:.\Generated_Source\PSoC5/cyfitter_cfg.c **** 			{0x1Du, 0x10u},
1684:.\Generated_Source\PSoC5/cyfitter_cfg.c **** 			{0x1Eu, 0x04u},
1685:.\Generated_Source\PSoC5/cyfitter_cfg.c **** 			{0x1Fu, 0x20u},
ARM GAS  C:\Users\kingi\AppData\Local\Temp\cc068PKu.s 			page 41


1686:.\Generated_Source\PSoC5/cyfitter_cfg.c **** 			{0x21u, 0x01u},
1687:.\Generated_Source\PSoC5/cyfitter_cfg.c **** 			{0x24u, 0x04u},
1688:.\Generated_Source\PSoC5/cyfitter_cfg.c **** 			{0x27u, 0x08u},
1689:.\Generated_Source\PSoC5/cyfitter_cfg.c **** 			{0x29u, 0x52u},
1690:.\Generated_Source\PSoC5/cyfitter_cfg.c **** 			{0x2Au, 0x08u},
1691:.\Generated_Source\PSoC5/cyfitter_cfg.c **** 			{0x2Eu, 0x60u},
1692:.\Generated_Source\PSoC5/cyfitter_cfg.c **** 			{0x2Fu, 0x50u},
1693:.\Generated_Source\PSoC5/cyfitter_cfg.c **** 			{0x30u, 0x40u},
1694:.\Generated_Source\PSoC5/cyfitter_cfg.c **** 			{0x32u, 0x80u},
1695:.\Generated_Source\PSoC5/cyfitter_cfg.c **** 			{0x33u, 0x16u},
1696:.\Generated_Source\PSoC5/cyfitter_cfg.c **** 			{0x34u, 0x10u},
1697:.\Generated_Source\PSoC5/cyfitter_cfg.c **** 			{0x36u, 0x01u},
1698:.\Generated_Source\PSoC5/cyfitter_cfg.c **** 			{0x37u, 0x48u},
1699:.\Generated_Source\PSoC5/cyfitter_cfg.c **** 			{0x38u, 0x28u},
1700:.\Generated_Source\PSoC5/cyfitter_cfg.c **** 			{0x39u, 0x01u},
1701:.\Generated_Source\PSoC5/cyfitter_cfg.c **** 			{0x3Bu, 0x40u},
1702:.\Generated_Source\PSoC5/cyfitter_cfg.c **** 			{0x3Du, 0xA8u},
1703:.\Generated_Source\PSoC5/cyfitter_cfg.c **** 			{0x3Eu, 0x02u},
1704:.\Generated_Source\PSoC5/cyfitter_cfg.c **** 			{0x40u, 0x20u},
1705:.\Generated_Source\PSoC5/cyfitter_cfg.c **** 			{0x41u, 0x20u},
1706:.\Generated_Source\PSoC5/cyfitter_cfg.c **** 			{0x42u, 0x81u},
1707:.\Generated_Source\PSoC5/cyfitter_cfg.c **** 			{0x43u, 0x02u},
1708:.\Generated_Source\PSoC5/cyfitter_cfg.c **** 			{0x48u, 0x21u},
1709:.\Generated_Source\PSoC5/cyfitter_cfg.c **** 			{0x49u, 0x20u},
1710:.\Generated_Source\PSoC5/cyfitter_cfg.c **** 			{0x4Bu, 0x02u},
1711:.\Generated_Source\PSoC5/cyfitter_cfg.c **** 			{0x4Fu, 0x30u},
1712:.\Generated_Source\PSoC5/cyfitter_cfg.c **** 			{0x51u, 0x10u},
1713:.\Generated_Source\PSoC5/cyfitter_cfg.c **** 			{0x52u, 0x40u},
1714:.\Generated_Source\PSoC5/cyfitter_cfg.c **** 			{0x53u, 0x04u},
1715:.\Generated_Source\PSoC5/cyfitter_cfg.c **** 			{0x64u, 0x10u},
1716:.\Generated_Source\PSoC5/cyfitter_cfg.c **** 			{0x65u, 0x04u},
1717:.\Generated_Source\PSoC5/cyfitter_cfg.c **** 			{0x8Cu, 0x10u},
1718:.\Generated_Source\PSoC5/cyfitter_cfg.c **** 			{0x8Du, 0x80u},
1719:.\Generated_Source\PSoC5/cyfitter_cfg.c **** 			{0x90u, 0x48u},
1720:.\Generated_Source\PSoC5/cyfitter_cfg.c **** 			{0x91u, 0x15u},
1721:.\Generated_Source\PSoC5/cyfitter_cfg.c **** 			{0x92u, 0xC9u},
1722:.\Generated_Source\PSoC5/cyfitter_cfg.c **** 			{0x93u, 0x75u},
1723:.\Generated_Source\PSoC5/cyfitter_cfg.c **** 			{0x94u, 0x14u},
1724:.\Generated_Source\PSoC5/cyfitter_cfg.c **** 			{0x95u, 0x20u},
1725:.\Generated_Source\PSoC5/cyfitter_cfg.c **** 			{0x96u, 0x04u},
1726:.\Generated_Source\PSoC5/cyfitter_cfg.c **** 			{0x97u, 0x80u},
1727:.\Generated_Source\PSoC5/cyfitter_cfg.c **** 			{0x98u, 0x05u},
1728:.\Generated_Source\PSoC5/cyfitter_cfg.c **** 			{0x99u, 0xE7u},
1729:.\Generated_Source\PSoC5/cyfitter_cfg.c **** 			{0x9Au, 0x2Au},
1730:.\Generated_Source\PSoC5/cyfitter_cfg.c **** 			{0x9Bu, 0x75u},
1731:.\Generated_Source\PSoC5/cyfitter_cfg.c **** 			{0x9Eu, 0x40u},
1732:.\Generated_Source\PSoC5/cyfitter_cfg.c **** 			{0x9Fu, 0x08u},
1733:.\Generated_Source\PSoC5/cyfitter_cfg.c **** 			{0xA0u, 0x49u},
1734:.\Generated_Source\PSoC5/cyfitter_cfg.c **** 			{0xA1u, 0x40u},
1735:.\Generated_Source\PSoC5/cyfitter_cfg.c **** 			{0xA2u, 0xB1u},
1736:.\Generated_Source\PSoC5/cyfitter_cfg.c **** 			{0xA3u, 0x82u},
1737:.\Generated_Source\PSoC5/cyfitter_cfg.c **** 			{0xA5u, 0x94u},
1738:.\Generated_Source\PSoC5/cyfitter_cfg.c **** 			{0xA7u, 0x20u},
1739:.\Generated_Source\PSoC5/cyfitter_cfg.c **** 			{0xAAu, 0x0Au},
1740:.\Generated_Source\PSoC5/cyfitter_cfg.c **** 			{0xACu, 0x08u},
1741:.\Generated_Source\PSoC5/cyfitter_cfg.c **** 			{0xAEu, 0x01u},
1742:.\Generated_Source\PSoC5/cyfitter_cfg.c **** 			{0xAFu, 0x08u},
ARM GAS  C:\Users\kingi\AppData\Local\Temp\cc068PKu.s 			page 42


1743:.\Generated_Source\PSoC5/cyfitter_cfg.c **** 			{0xB0u, 0x04u},
1744:.\Generated_Source\PSoC5/cyfitter_cfg.c **** 			{0xB1u, 0x10u},
1745:.\Generated_Source\PSoC5/cyfitter_cfg.c **** 			{0xB5u, 0x80u},
1746:.\Generated_Source\PSoC5/cyfitter_cfg.c **** 			{0xC0u, 0xFFu},
1747:.\Generated_Source\PSoC5/cyfitter_cfg.c **** 			{0xC2u, 0xFFu},
1748:.\Generated_Source\PSoC5/cyfitter_cfg.c **** 			{0xC4u, 0x1Fu},
1749:.\Generated_Source\PSoC5/cyfitter_cfg.c **** 			{0xCAu, 0xFFu},
1750:.\Generated_Source\PSoC5/cyfitter_cfg.c **** 			{0xCCu, 0xFFu},
1751:.\Generated_Source\PSoC5/cyfitter_cfg.c **** 			{0xCEu, 0xFFu},
1752:.\Generated_Source\PSoC5/cyfitter_cfg.c **** 			{0xD0u, 0x0Eu},
1753:.\Generated_Source\PSoC5/cyfitter_cfg.c **** 			{0xD2u, 0x0Cu},
1754:.\Generated_Source\PSoC5/cyfitter_cfg.c **** 			{0xE8u, 0x01u},
1755:.\Generated_Source\PSoC5/cyfitter_cfg.c **** 			{0xEAu, 0x04u},
1756:.\Generated_Source\PSoC5/cyfitter_cfg.c **** 			{0xEEu, 0x08u},
1757:.\Generated_Source\PSoC5/cyfitter_cfg.c **** 			{0x92u, 0x04u},
1758:.\Generated_Source\PSoC5/cyfitter_cfg.c **** 			{0x95u, 0x10u},
1759:.\Generated_Source\PSoC5/cyfitter_cfg.c **** 			{0x97u, 0x01u},
1760:.\Generated_Source\PSoC5/cyfitter_cfg.c **** 			{0x9Cu, 0x01u},
1761:.\Generated_Source\PSoC5/cyfitter_cfg.c **** 			{0xA8u, 0x50u},
1762:.\Generated_Source\PSoC5/cyfitter_cfg.c **** 			{0xAFu, 0x04u},
1763:.\Generated_Source\PSoC5/cyfitter_cfg.c **** 			{0xB0u, 0x10u},
1764:.\Generated_Source\PSoC5/cyfitter_cfg.c **** 			{0xB2u, 0x10u},
1765:.\Generated_Source\PSoC5/cyfitter_cfg.c **** 			{0xB6u, 0x40u},
1766:.\Generated_Source\PSoC5/cyfitter_cfg.c **** 			{0xB7u, 0x10u},
1767:.\Generated_Source\PSoC5/cyfitter_cfg.c **** 			{0xE8u, 0x20u},
1768:.\Generated_Source\PSoC5/cyfitter_cfg.c **** 			{0xECu, 0x60u},
1769:.\Generated_Source\PSoC5/cyfitter_cfg.c **** 			{0x8Fu, 0x01u},
1770:.\Generated_Source\PSoC5/cyfitter_cfg.c **** 			{0x97u, 0x01u},
1771:.\Generated_Source\PSoC5/cyfitter_cfg.c **** 			{0xACu, 0x01u},
1772:.\Generated_Source\PSoC5/cyfitter_cfg.c **** 			{0xADu, 0x10u},
1773:.\Generated_Source\PSoC5/cyfitter_cfg.c **** 			{0xB2u, 0x04u},
1774:.\Generated_Source\PSoC5/cyfitter_cfg.c **** 			{0xE4u, 0x10u},
1775:.\Generated_Source\PSoC5/cyfitter_cfg.c **** 			{0xEEu, 0x20u},
1776:.\Generated_Source\PSoC5/cyfitter_cfg.c **** 			{0x55u, 0x20u},
1777:.\Generated_Source\PSoC5/cyfitter_cfg.c **** 			{0x58u, 0x10u},
1778:.\Generated_Source\PSoC5/cyfitter_cfg.c **** 			{0x5Fu, 0x80u},
1779:.\Generated_Source\PSoC5/cyfitter_cfg.c **** 			{0xD4u, 0xC0u},
1780:.\Generated_Source\PSoC5/cyfitter_cfg.c **** 			{0xD6u, 0x20u},
1781:.\Generated_Source\PSoC5/cyfitter_cfg.c **** 			{0x00u, 0x08u},
1782:.\Generated_Source\PSoC5/cyfitter_cfg.c **** 			{0x01u, 0x20u},
1783:.\Generated_Source\PSoC5/cyfitter_cfg.c **** 			{0x05u, 0x08u},
1784:.\Generated_Source\PSoC5/cyfitter_cfg.c **** 			{0x83u, 0x80u},
1785:.\Generated_Source\PSoC5/cyfitter_cfg.c **** 			{0x85u, 0x20u},
1786:.\Generated_Source\PSoC5/cyfitter_cfg.c **** 			{0x9Cu, 0x10u},
1787:.\Generated_Source\PSoC5/cyfitter_cfg.c **** 			{0x9Du, 0x08u},
1788:.\Generated_Source\PSoC5/cyfitter_cfg.c **** 			{0x9Fu, 0x80u},
1789:.\Generated_Source\PSoC5/cyfitter_cfg.c **** 			{0xA5u, 0x20u},
1790:.\Generated_Source\PSoC5/cyfitter_cfg.c **** 			{0xB1u, 0x08u},
1791:.\Generated_Source\PSoC5/cyfitter_cfg.c **** 			{0xC0u, 0x70u},
1792:.\Generated_Source\PSoC5/cyfitter_cfg.c **** 			{0xE2u, 0x90u},
1793:.\Generated_Source\PSoC5/cyfitter_cfg.c **** 			{0x81u, 0x20u},
1794:.\Generated_Source\PSoC5/cyfitter_cfg.c **** 			{0x99u, 0x20u},
1795:.\Generated_Source\PSoC5/cyfitter_cfg.c **** 			{0x9Cu, 0x10u},
1796:.\Generated_Source\PSoC5/cyfitter_cfg.c **** 			{0xACu, 0x04u},
1797:.\Generated_Source\PSoC5/cyfitter_cfg.c **** 			{0xE4u, 0x80u},
1798:.\Generated_Source\PSoC5/cyfitter_cfg.c **** 			{0xECu, 0x40u},
1799:.\Generated_Source\PSoC5/cyfitter_cfg.c **** 			{0x9Cu, 0x10u},
ARM GAS  C:\Users\kingi\AppData\Local\Temp\cc068PKu.s 			page 43


1800:.\Generated_Source\PSoC5/cyfitter_cfg.c **** 			{0x9Cu, 0x10u},
1801:.\Generated_Source\PSoC5/cyfitter_cfg.c **** 			{0x84u, 0x10u},
1802:.\Generated_Source\PSoC5/cyfitter_cfg.c **** 			{0x9Cu, 0x10u},
1803:.\Generated_Source\PSoC5/cyfitter_cfg.c **** 			{0xE6u, 0x40u},
1804:.\Generated_Source\PSoC5/cyfitter_cfg.c **** 			{0x00u, 0x07u},
1805:.\Generated_Source\PSoC5/cyfitter_cfg.c **** 			{0x08u, 0x07u},
1806:.\Generated_Source\PSoC5/cyfitter_cfg.c **** 			{0x0Au, 0x07u},
1807:.\Generated_Source\PSoC5/cyfitter_cfg.c **** 			{0x0Cu, 0x07u},
1808:.\Generated_Source\PSoC5/cyfitter_cfg.c **** 			{0x0Eu, 0x07u},
1809:.\Generated_Source\PSoC5/cyfitter_cfg.c **** 			{0x10u, 0x07u},
1810:.\Generated_Source\PSoC5/cyfitter_cfg.c **** 			{0x1Au, 0x07u},
1811:.\Generated_Source\PSoC5/cyfitter_cfg.c **** 		};
1812:.\Generated_Source\PSoC5/cyfitter_cfg.c **** 
1813:.\Generated_Source\PSoC5/cyfitter_cfg.c **** 
1814:.\Generated_Source\PSoC5/cyfitter_cfg.c **** 
1815:.\Generated_Source\PSoC5/cyfitter_cfg.c **** 		CYPACKED typedef struct {
1816:.\Generated_Source\PSoC5/cyfitter_cfg.c **** 			void CYFAR *address;
1817:.\Generated_Source\PSoC5/cyfitter_cfg.c **** 			uint16 size;
1818:.\Generated_Source\PSoC5/cyfitter_cfg.c **** 		} CYPACKED_ATTR cfg_memset_t;
1819:.\Generated_Source\PSoC5/cyfitter_cfg.c **** 
1820:.\Generated_Source\PSoC5/cyfitter_cfg.c **** 
1821:.\Generated_Source\PSoC5/cyfitter_cfg.c **** 		CYPACKED typedef struct {
1822:.\Generated_Source\PSoC5/cyfitter_cfg.c **** 			void CYFAR *dest;
1823:.\Generated_Source\PSoC5/cyfitter_cfg.c **** 			const void CYCODE *src;
1824:.\Generated_Source\PSoC5/cyfitter_cfg.c **** 			uint16 size;
1825:.\Generated_Source\PSoC5/cyfitter_cfg.c **** 		} CYPACKED_ATTR cfg_memcpy_t;
1826:.\Generated_Source\PSoC5/cyfitter_cfg.c **** 
1827:.\Generated_Source\PSoC5/cyfitter_cfg.c **** 		static const cfg_memset_t CYCODE cfg_memset_list [] = {
1828:.\Generated_Source\PSoC5/cyfitter_cfg.c **** 			/* address, size */
1829:.\Generated_Source\PSoC5/cyfitter_cfg.c **** 			{(void CYFAR *)(CYREG_PRT2_DR), 32u},
1830:.\Generated_Source\PSoC5/cyfitter_cfg.c **** 			{(void CYFAR *)(CYREG_PRT5_DR), 32u},
1831:.\Generated_Source\PSoC5/cyfitter_cfg.c **** 			{(void CYFAR *)(CYREG_PRT12_DR), 16u},
1832:.\Generated_Source\PSoC5/cyfitter_cfg.c **** 			{(void CYFAR *)(CYREG_PRT15_DR), 16u},
1833:.\Generated_Source\PSoC5/cyfitter_cfg.c **** 			{(void CYFAR *)(CYDEV_UCFG_B0_P0_U0_BASE), 1024u},
1834:.\Generated_Source\PSoC5/cyfitter_cfg.c **** 			{(void CYFAR *)(CYDEV_UCFG_B0_P2_U1_BASE), 2944u},
1835:.\Generated_Source\PSoC5/cyfitter_cfg.c **** 			{(void CYFAR *)(CYDEV_UCFG_B1_P2_U0_BASE), 2048u},
1836:.\Generated_Source\PSoC5/cyfitter_cfg.c **** 			{(void CYFAR *)(CYDEV_UCFG_DSI0_BASE), 2560u},
1837:.\Generated_Source\PSoC5/cyfitter_cfg.c **** 			{(void CYFAR *)(CYDEV_UCFG_DSI12_BASE), 512u},
1838:.\Generated_Source\PSoC5/cyfitter_cfg.c **** 			{(void CYFAR *)(CYREG_BCTL0_MDCLK_EN), 32u},
1839:.\Generated_Source\PSoC5/cyfitter_cfg.c **** 		};
1840:.\Generated_Source\PSoC5/cyfitter_cfg.c **** 
1841:.\Generated_Source\PSoC5/cyfitter_cfg.c **** 		/* UDB_1_3_0_CONFIG Address: CYDEV_UCFG_B0_P2_U0_BASE Size (bytes): 128 */
1842:.\Generated_Source\PSoC5/cyfitter_cfg.c **** 		static const uint8 CYCODE BS_UDB_1_3_0_CONFIG_VAL[] = {
1843:.\Generated_Source\PSoC5/cyfitter_cfg.c **** 			0x00u, 0x00u, 0x00u, 0x00u, 0xF8u, 0x3Eu, 0x00u, 0x00u, 0xF8u, 0x3Eu, 0x00u, 0x00u, 0x04u, 0x3Au
1844:.\Generated_Source\PSoC5/cyfitter_cfg.c **** 			0x00u, 0x00u, 0x06u, 0x00u, 0x80u, 0x48u, 0x13u, 0x04u, 0x09u, 0x00u, 0x12u, 0x01u, 0x21u, 0x01u
1845:.\Generated_Source\PSoC5/cyfitter_cfg.c **** 			0x12u, 0x04u, 0x41u, 0x50u, 0x00u, 0x00u, 0x00u, 0x00u, 0x00u, 0x42u, 0x02u, 0x04u, 0xE8u, 0x20u
1846:.\Generated_Source\PSoC5/cyfitter_cfg.c **** 			0x01u, 0x00u, 0xFCu, 0x00u, 0x00u, 0x40u, 0x02u, 0x3Fu, 0x02u, 0x20u, 0x00u, 0x00u, 0x00u, 0x00u
1847:.\Generated_Source\PSoC5/cyfitter_cfg.c **** 			0x53u, 0x02u, 0x04u, 0x00u, 0x01u, 0xBCu, 0xFEu, 0x0Du, 0x1Fu, 0xFFu, 0xFFu, 0xFFu, 0x62u, 0xA0u
1848:.\Generated_Source\PSoC5/cyfitter_cfg.c **** 			0x0Cu, 0x00u, 0x03u, 0x00u, 0x00u, 0x00u, 0x00u, 0x00u, 0x04u, 0x04u, 0x04u, 0x04u, 0x01u, 0x01u
1849:.\Generated_Source\PSoC5/cyfitter_cfg.c **** 			0x00u, 0x00u, 0x00u, 0x00u, 0x00u, 0x00u, 0x40u, 0x02u, 0x00u, 0x10u, 0x30u, 0x10u, 0x00u, 0x10u
1850:.\Generated_Source\PSoC5/cyfitter_cfg.c **** 			0x00u, 0x00u, 0x00u, 0x00u, 0x00u, 0x00u, 0x00u, 0x00u, 0x00u, 0x00u, 0x00u, 0x00u, 0x00u, 0x00u
1851:.\Generated_Source\PSoC5/cyfitter_cfg.c **** 
1852:.\Generated_Source\PSoC5/cyfitter_cfg.c **** 		static const cfg_memcpy_t CYCODE cfg_memcpy_list [] = {
1853:.\Generated_Source\PSoC5/cyfitter_cfg.c **** 			/* dest, src, size */
1854:.\Generated_Source\PSoC5/cyfitter_cfg.c **** 			{(void CYFAR *)(CYDEV_UCFG_B0_P2_U0_BASE), BS_UDB_1_3_0_CONFIG_VAL, 128u},
1855:.\Generated_Source\PSoC5/cyfitter_cfg.c **** 		};
1856:.\Generated_Source\PSoC5/cyfitter_cfg.c **** 
ARM GAS  C:\Users\kingi\AppData\Local\Temp\cc068PKu.s 			page 44


1857:.\Generated_Source\PSoC5/cyfitter_cfg.c **** 		uint8 CYDATA i;
1858:.\Generated_Source\PSoC5/cyfitter_cfg.c **** 
1859:.\Generated_Source\PSoC5/cyfitter_cfg.c **** 		/* Zero out critical memory blocks before beginning configuration */
1860:.\Generated_Source\PSoC5/cyfitter_cfg.c **** 		for (i = 0u; i < (sizeof(cfg_memset_list)/sizeof(cfg_memset_list[0])); i++)
 590              		.loc 1 1860 0
 591 0022 0023     		movs	r3, #0
 592 0024 FB75     		strb	r3, [r7, #23]
 593 0026 13E0     		b	.L27
 594              	.L28:
 595              	.LBB4:
1861:.\Generated_Source\PSoC5/cyfitter_cfg.c **** 		{
1862:.\Generated_Source\PSoC5/cyfitter_cfg.c **** 			const cfg_memset_t CYCODE * CYDATA ms = &cfg_memset_list[i];
 596              		.loc 1 1862 0 discriminator 3
 597 0028 FA7D     		ldrb	r2, [r7, #23]	@ zero_extendqisi2
 598 002a 1346     		mov	r3, r2
 599 002c 5B00     		lsls	r3, r3, #1
 600 002e 1344     		add	r3, r3, r2
 601 0030 5B00     		lsls	r3, r3, #1
 602 0032 3F4A     		ldr	r2, .L31+8
 603 0034 1344     		add	r3, r3, r2
 604 0036 3B61     		str	r3, [r7, #16]
1863:.\Generated_Source\PSoC5/cyfitter_cfg.c **** 			CYMEMZERO(ms->address, (size_t)(uint32)(ms->size));
 605              		.loc 1 1863 0 discriminator 3
 606 0038 3B69     		ldr	r3, [r7, #16]
 607 003a 1A68     		ldr	r2, [r3]	@ unaligned
 608 003c 3B69     		ldr	r3, [r7, #16]
 609 003e 9B88     		ldrh	r3, [r3, #4]	@ unaligned
 610 0040 9BB2     		uxth	r3, r3
 611 0042 1046     		mov	r0, r2
 612 0044 1946     		mov	r1, r3
 613 0046 FFF7FEFF 		bl	CYMEMZERO
 614              	.LBE4:
1860:.\Generated_Source\PSoC5/cyfitter_cfg.c **** 		{
 615              		.loc 1 1860 0 discriminator 3
 616 004a FB7D     		ldrb	r3, [r7, #23]	@ zero_extendqisi2
 617 004c 0133     		adds	r3, r3, #1
 618 004e FB75     		strb	r3, [r7, #23]
 619              	.L27:
1860:.\Generated_Source\PSoC5/cyfitter_cfg.c **** 		{
 620              		.loc 1 1860 0 is_stmt 0 discriminator 1
 621 0050 FB7D     		ldrb	r3, [r7, #23]	@ zero_extendqisi2
 622 0052 092B     		cmp	r3, #9
 623 0054 E8D9     		bls	.L28
1864:.\Generated_Source\PSoC5/cyfitter_cfg.c **** 		}
1865:.\Generated_Source\PSoC5/cyfitter_cfg.c **** 
1866:.\Generated_Source\PSoC5/cyfitter_cfg.c **** 		/* Copy device configuration data into registers */
1867:.\Generated_Source\PSoC5/cyfitter_cfg.c **** 		for (i = 0u; i < (sizeof(cfg_memcpy_list)/sizeof(cfg_memcpy_list[0])); i++)
 624              		.loc 1 1867 0 is_stmt 1
 625 0056 0023     		movs	r3, #0
 626 0058 FB75     		strb	r3, [r7, #23]
 627 005a 1CE0     		b	.L29
 628              	.L30:
 629              	.LBB5:
1868:.\Generated_Source\PSoC5/cyfitter_cfg.c **** 		{
1869:.\Generated_Source\PSoC5/cyfitter_cfg.c **** 			const cfg_memcpy_t CYCODE * CYDATA mc = &cfg_memcpy_list[i];
 630              		.loc 1 1869 0 discriminator 3
 631 005c FA7D     		ldrb	r2, [r7, #23]	@ zero_extendqisi2
ARM GAS  C:\Users\kingi\AppData\Local\Temp\cc068PKu.s 			page 45


 632 005e 1346     		mov	r3, r2
 633 0060 9B00     		lsls	r3, r3, #2
 634 0062 1344     		add	r3, r3, r2
 635 0064 5B00     		lsls	r3, r3, #1
 636 0066 334A     		ldr	r2, .L31+12
 637 0068 1344     		add	r3, r3, r2
 638 006a FB60     		str	r3, [r7, #12]
1870:.\Generated_Source\PSoC5/cyfitter_cfg.c **** 			void * CYDATA destPtr = mc->dest;
 639              		.loc 1 1870 0 discriminator 3
 640 006c FB68     		ldr	r3, [r7, #12]
 641 006e 1B68     		ldr	r3, [r3]	@ unaligned
 642 0070 BB60     		str	r3, [r7, #8]
1871:.\Generated_Source\PSoC5/cyfitter_cfg.c **** 			const void CYCODE * CYDATA srcPtr = mc->src;
 643              		.loc 1 1871 0 discriminator 3
 644 0072 FB68     		ldr	r3, [r7, #12]
 645 0074 5B68     		ldr	r3, [r3, #4]	@ unaligned
 646 0076 7B60     		str	r3, [r7, #4]
1872:.\Generated_Source\PSoC5/cyfitter_cfg.c **** 			uint16 CYDATA numBytes = mc->size;
 647              		.loc 1 1872 0 discriminator 3
 648 0078 FB68     		ldr	r3, [r7, #12]
 649 007a 1A7A     		ldrb	r2, [r3, #8]	@ zero_extendqisi2
 650 007c 5B7A     		ldrb	r3, [r3, #9]	@ zero_extendqisi2
 651 007e 1B02     		lsls	r3, r3, #8
 652 0080 1343     		orrs	r3, r3, r2
 653 0082 7B80     		strh	r3, [r7, #2]	@ movhi
1873:.\Generated_Source\PSoC5/cyfitter_cfg.c **** 			CYCONFIGCPYCODE(destPtr, srcPtr, numBytes);
 654              		.loc 1 1873 0 discriminator 3
 655 0084 7B88     		ldrh	r3, [r7, #2]
 656 0086 B868     		ldr	r0, [r7, #8]
 657 0088 7968     		ldr	r1, [r7, #4]
 658 008a 1A46     		mov	r2, r3
 659 008c FFF7FEFF 		bl	CYCONFIGCPYCODE
 660              	.LBE5:
1867:.\Generated_Source\PSoC5/cyfitter_cfg.c **** 		{
 661              		.loc 1 1867 0 discriminator 3
 662 0090 FB7D     		ldrb	r3, [r7, #23]	@ zero_extendqisi2
 663 0092 0133     		adds	r3, r3, #1
 664 0094 FB75     		strb	r3, [r7, #23]
 665              	.L29:
1867:.\Generated_Source\PSoC5/cyfitter_cfg.c **** 		{
 666              		.loc 1 1867 0 is_stmt 0 discriminator 1
 667 0096 FB7D     		ldrb	r3, [r7, #23]	@ zero_extendqisi2
 668 0098 002B     		cmp	r3, #0
 669 009a DFD0     		beq	.L30
1874:.\Generated_Source\PSoC5/cyfitter_cfg.c **** 		}
1875:.\Generated_Source\PSoC5/cyfitter_cfg.c **** 
1876:.\Generated_Source\PSoC5/cyfitter_cfg.c **** 		cfg_write_bytes32(cy_cfg_addr_table, cy_cfg_data_table);
 670              		.loc 1 1876 0 is_stmt 1
 671 009c 2648     		ldr	r0, .L31+16
 672 009e 2749     		ldr	r1, .L31+20
 673 00a0 FFF7FEFF 		bl	cfg_write_bytes32
1877:.\Generated_Source\PSoC5/cyfitter_cfg.c **** 
1878:.\Generated_Source\PSoC5/cyfitter_cfg.c **** 		/* Enable digital routing */
1879:.\Generated_Source\PSoC5/cyfitter_cfg.c **** 		CY_SET_XTND_REG8((void CYFAR *)CYREG_BCTL0_BANK_CTL, CY_GET_XTND_REG8((void CYFAR *)CYREG_BCTL0_B
 674              		.loc 1 1879 0
 675 00a4 264A     		ldr	r2, .L31+24
 676 00a6 264B     		ldr	r3, .L31+24
ARM GAS  C:\Users\kingi\AppData\Local\Temp\cc068PKu.s 			page 46


 677 00a8 1B78     		ldrb	r3, [r3]
 678 00aa DBB2     		uxtb	r3, r3
 679 00ac 43F00203 		orr	r3, r3, #2
 680 00b0 DBB2     		uxtb	r3, r3
 681 00b2 1370     		strb	r3, [r2]
1880:.\Generated_Source\PSoC5/cyfitter_cfg.c **** 		CY_SET_XTND_REG8((void CYFAR *)CYREG_BCTL1_BANK_CTL, CY_GET_XTND_REG8((void CYFAR *)CYREG_BCTL1_B
 682              		.loc 1 1880 0
 683 00b4 234A     		ldr	r2, .L31+28
 684 00b6 234B     		ldr	r3, .L31+28
 685 00b8 1B78     		ldrb	r3, [r3]
 686 00ba DBB2     		uxtb	r3, r3
 687 00bc 43F00203 		orr	r3, r3, #2
 688 00c0 DBB2     		uxtb	r3, r3
 689 00c2 1370     		strb	r3, [r2]
1881:.\Generated_Source\PSoC5/cyfitter_cfg.c **** 
1882:.\Generated_Source\PSoC5/cyfitter_cfg.c **** 		/* Enable UDB array */
1883:.\Generated_Source\PSoC5/cyfitter_cfg.c **** 		CY_SET_XTND_REG8((void CYFAR *)CYREG_PM_ACT_CFG0, CY_GET_XTND_REG8((void CYFAR *)CYREG_PM_ACT_CFG
 690              		.loc 1 1883 0
 691 00c4 204A     		ldr	r2, .L31+32
 692 00c6 204B     		ldr	r3, .L31+32
 693 00c8 1B78     		ldrb	r3, [r3]
 694 00ca DBB2     		uxtb	r3, r3
 695 00cc 43F04003 		orr	r3, r3, #64
 696 00d0 DBB2     		uxtb	r3, r3
 697 00d2 1370     		strb	r3, [r2]
1884:.\Generated_Source\PSoC5/cyfitter_cfg.c **** 		CY_SET_XTND_REG8((void CYFAR *)CYREG_PM_AVAIL_CR2, CY_GET_XTND_REG8((void CYFAR *)CYREG_PM_AVAIL_
 698              		.loc 1 1884 0
 699 00d4 1D4A     		ldr	r2, .L31+36
 700 00d6 1D4B     		ldr	r3, .L31+36
 701 00d8 1B78     		ldrb	r3, [r3]
 702 00da DBB2     		uxtb	r3, r3
 703 00dc 43F01003 		orr	r3, r3, #16
 704 00e0 DBB2     		uxtb	r3, r3
 705 00e2 1370     		strb	r3, [r2]
 706              	.LBE3:
1885:.\Generated_Source\PSoC5/cyfitter_cfg.c **** 	}
1886:.\Generated_Source\PSoC5/cyfitter_cfg.c **** 
1887:.\Generated_Source\PSoC5/cyfitter_cfg.c **** 
1888:.\Generated_Source\PSoC5/cyfitter_cfg.c **** 	/* Perform second pass device configuration. These items must be configured in specific order afte
1889:.\Generated_Source\PSoC5/cyfitter_cfg.c **** 	CYCONFIGCPYCODE((void CYFAR *)(CYREG_PRT0_DM0), (const void CYCODE *)(BS_IOPINS0_0_VAL), 8u);
 707              		.loc 1 1889 0
 708 00e4 1A48     		ldr	r0, .L31+40
 709 00e6 1B49     		ldr	r1, .L31+44
 710 00e8 0822     		movs	r2, #8
 711 00ea FFF7FEFF 		bl	CYCONFIGCPYCODE
1890:.\Generated_Source\PSoC5/cyfitter_cfg.c **** 	CYCONFIGCPYCODE((void CYFAR *)(CYREG_PRT1_DM0), (const void CYCODE *)(BS_IOPINS0_1_VAL), 8u);
 712              		.loc 1 1890 0
 713 00ee 1A48     		ldr	r0, .L31+48
 714 00f0 1A49     		ldr	r1, .L31+52
 715 00f2 0822     		movs	r2, #8
 716 00f4 FFF7FEFF 		bl	CYCONFIGCPYCODE
1891:.\Generated_Source\PSoC5/cyfitter_cfg.c **** 	CYCONFIGCPYCODE((void CYFAR *)(CYREG_PRT4_DR), (const void CYCODE *)(BS_IOPINS0_4_VAL), 10u);
 717              		.loc 1 1891 0
 718 00f8 1948     		ldr	r0, .L31+56
 719 00fa 1A49     		ldr	r1, .L31+60
 720 00fc 0A22     		movs	r2, #10
 721 00fe FFF7FEFF 		bl	CYCONFIGCPYCODE
ARM GAS  C:\Users\kingi\AppData\Local\Temp\cc068PKu.s 			page 47


1892:.\Generated_Source\PSoC5/cyfitter_cfg.c **** 	/* Switch Boost to the precision bandgap reference from its internal reference */
1893:.\Generated_Source\PSoC5/cyfitter_cfg.c **** 	CY_SET_REG8((void CYXDATA *)CYREG_BOOST_CR2, (CY_GET_REG8((void CYXDATA *)CYREG_BOOST_CR2) | 0x08u
 722              		.loc 1 1893 0
 723 0102 194A     		ldr	r2, .L31+64
 724 0104 184B     		ldr	r3, .L31+64
 725 0106 1B78     		ldrb	r3, [r3]
 726 0108 DBB2     		uxtb	r3, r3
 727 010a 43F00803 		orr	r3, r3, #8
 728 010e DBB2     		uxtb	r3, r3
 729 0110 1370     		strb	r3, [r2]
1894:.\Generated_Source\PSoC5/cyfitter_cfg.c **** 
1895:.\Generated_Source\PSoC5/cyfitter_cfg.c **** 	/* Perform basic analog initialization to defaults */
1896:.\Generated_Source\PSoC5/cyfitter_cfg.c **** 	AnalogSetDefault();
 730              		.loc 1 1896 0
 731 0112 FFF7FEFF 		bl	AnalogSetDefault
1897:.\Generated_Source\PSoC5/cyfitter_cfg.c **** 
1898:.\Generated_Source\PSoC5/cyfitter_cfg.c **** 	/* Configure alternate active mode */
1899:.\Generated_Source\PSoC5/cyfitter_cfg.c **** 	CYCONFIGCPY((void CYFAR *)CYDEV_PM_STBY_BASE, (const void CYFAR *)CYDEV_PM_ACT_BASE, 14u);
 732              		.loc 1 1899 0
 733 0116 1548     		ldr	r0, .L31+68
 734 0118 0B49     		ldr	r1, .L31+32
 735 011a 0E22     		movs	r2, #14
 736 011c FFF7FEFF 		bl	CYCONFIGCPY
1900:.\Generated_Source\PSoC5/cyfitter_cfg.c **** }
 737              		.loc 1 1900 0
 738 0120 1837     		adds	r7, r7, #24
 739              		.cfi_def_cfa_offset 8
 740 0122 BD46     		mov	sp, r7
 741              		.cfi_def_cfa_register 13
 742              		@ sp needed
 743 0124 80BD     		pop	{r7, pc}
 744              	.L32:
 745 0126 00BF     		.align	2
 746              	.L31:
 747 0128 00480040 		.word	1073760256
 748 012c E8460040 		.word	1073759976
 749 0130 04000000 		.word	cfg_memset_list.4923
 750 0134 40000000 		.word	cfg_memcpy_list.4925
 751 0138 4C000000 		.word	cy_cfg_addr_table.4912
 752 013c C4000000 		.word	cy_cfg_data_table.4913
 753 0140 03500140 		.word	1073827843
 754 0144 13500140 		.word	1073827859
 755 0148 A0430040 		.word	1073759136
 756 014c C2430040 		.word	1073759170
 757 0150 02510040 		.word	1073762562
 758 0154 E80B0000 		.word	BS_IOPINS0_0_VAL.4909
 759 0158 12510040 		.word	1073762578
 760 015c F00B0000 		.word	BS_IOPINS0_1_VAL.4910
 761 0160 40510040 		.word	1073762624
 762 0164 F80B0000 		.word	BS_IOPINS0_4_VAL.4911
 763 0168 22430040 		.word	1073759010
 764 016c B0430040 		.word	1073759152
 765              		.cfi_endproc
 766              	.LFE8:
 767              		.size	cyfitter_cfg, .-cyfitter_cfg
 768              		.section	.rodata
 769              		.align	2
ARM GAS  C:\Users\kingi\AppData\Local\Temp\cc068PKu.s 			page 48


 770              		.type	BS_CYDEV_CLKDIST_ACFG0_CFG0_VAL.4890, %object
 771              		.size	BS_CYDEV_CLKDIST_ACFG0_CFG0_VAL.4890, 4
 772              	BS_CYDEV_CLKDIST_ACFG0_CFG0_VAL.4890:
 773 0000 05       		.byte	5
 774 0001 00       		.byte	0
 775 0002 10       		.byte	16
 776 0003 01       		.byte	1
 777              		.align	2
 778              		.type	cfg_memset_list.4923, %object
 779              		.size	cfg_memset_list.4923, 60
 780              	cfg_memset_list.4923:
 781 0004 20510040 		.word	1073762592
 782 0008 2000     		.short	32
 783 000a 50510040 		.4byte	1073762640
 784 000e 2000     		.short	32
 785 0010 C0510040 		.word	1073762752
 786 0014 1000     		.short	16
 787 0016 F0510040 		.4byte	1073762800
 788 001a 1000     		.short	16
 789 001c 00000140 		.word	1073807360
 790 0020 0004     		.short	1024
 791 0022 80040140 		.4byte	1073808512
 792 0026 800B     		.short	2944
 793 0028 00140140 		.word	1073812480
 794 002c 0008     		.short	2048
 795 002e 00400140 		.4byte	1073823744
 796 0032 000A     		.short	2560
 797 0034 004C0140 		.word	1073826816
 798 0038 0002     		.short	512
 799 003a 00500140 		.4byte	1073827840
 800 003e 2000     		.short	32
 801              		.align	2
 802              		.type	cfg_memcpy_list.4925, %object
 803              		.size	cfg_memcpy_list.4925, 10
 804              	cfg_memcpy_list.4925:
 805 0040 00040140 		.word	1073808384
 806 0044 040C0000 		.word	BS_UDB_1_3_0_CONFIG_VAL.4924
 807 0048 8000     		.short	128
 808 004a 0000     		.align	2
 809              		.type	cy_cfg_addr_table.4912, %object
 810              		.size	cy_cfg_addr_table.4912, 120
 811              	cy_cfg_addr_table.4912:
 812 004c 02520040 		.word	1073762818
 813 0050 05640040 		.word	1073767429
 814 0054 01650040 		.word	1073767681
 815 0058 5A000140 		.word	1073807450
 816 005c 35010140 		.word	1073807669
 817 0060 4F020140 		.word	1073807951
 818 0064 5A030140 		.word	1073808218
 819 0068 3B040140 		.word	1073808443
 820 006c 6B050140 		.word	1073808747
 821 0070 5A060140 		.word	1073808986
 822 0074 69070140 		.word	1073809257
 823 0078 1F090140 		.word	1073809695
 824 007c 480A0140 		.word	1073809992
 825 0080 590B0140 		.word	1073810265
 826 0084 480C0140 		.word	1073810504
ARM GAS  C:\Users\kingi\AppData\Local\Temp\cc068PKu.s 			page 49


 827 0088 480D0140 		.word	1073810760
 828 008c 020F0140 		.word	1073811202
 829 0090 4E140140 		.word	1073812558
 830 0094 4F150140 		.word	1073812815
 831 0098 64160140 		.word	1073813092
 832 009c 5F170140 		.word	1073813343
 833 00a0 0C190140 		.word	1073813772
 834 00a4 071B0140 		.word	1073814279
 835 00a8 05400140 		.word	1073823749
 836 00ac 0C410140 		.word	1073824012
 837 00b0 06420140 		.word	1073824262
 838 00b4 01430140 		.word	1073824513
 839 00b8 01480140 		.word	1073825793
 840 00bc 03490140 		.word	1073826051
 841 00c0 07500140 		.word	1073827847
 842              		.align	2
 843              		.type	cy_cfg_data_table.4913, %object
 844              		.size	cy_cfg_data_table.4913, 2850
 845              	cy_cfg_data_table.4913:
 846 00c4 20       		.byte	32
 847 00c5 0A       		.byte	10
 848 00c6 21       		.byte	33
 849 00c7 0C       		.byte	12
 850 00c8 82       		.byte	-126
 851 00c9 72       		.byte	114
 852 00ca 83       		.byte	-125
 853 00cb 72       		.byte	114
 854 00cc 87       		.byte	-121
 855 00cd 72       		.byte	114
 856 00ce 8B       		.byte	-117
 857 00cf 3B       		.byte	59
 858 00d0 8C       		.byte	-116
 859 00d1 3B       		.byte	59
 860 00d2 84       		.byte	-124
 861 00d3 3B       		.byte	59
 862 00d4 01       		.byte	1
 863 00d5 20       		.byte	32
 864 00d6 03       		.byte	3
 865 00d7 02       		.byte	2
 866 00d8 04       		.byte	4
 867 00d9 03       		.byte	3
 868 00da 05       		.byte	5
 869 00db 3F       		.byte	63
 870 00dc 06       		.byte	6
 871 00dd 80       		.byte	-128
 872 00de 08       		.byte	8
 873 00df 1F       		.byte	31
 874 00e0 09       		.byte	9
 875 00e1 3F       		.byte	63
 876 00e2 0A       		.byte	10
 877 00e3 20       		.byte	32
 878 00e4 0C       		.byte	12
 879 00e5 14       		.byte	20
 880 00e6 0D       		.byte	13
 881 00e7 3D       		.byte	61
 882 00e8 0E       		.byte	14
 883 00e9 23       		.byte	35
ARM GAS  C:\Users\kingi\AppData\Local\Temp\cc068PKu.s 			page 50


 884 00ea 0F       		.byte	15
 885 00eb 02       		.byte	2
 886 00ec 12       		.byte	18
 887 00ed 3C       		.byte	60
 888 00ee 14       		.byte	20
 889 00ef 02       		.byte	2
 890 00f0 15       		.byte	21
 891 00f1 08       		.byte	8
 892 00f2 16       		.byte	22
 893 00f3 40       		.byte	64
 894 00f4 17       		.byte	23
 895 00f5 02       		.byte	2
 896 00f6 18       		.byte	24
 897 00f7 1F       		.byte	31
 898 00f8 1A       		.byte	26
 899 00f9 20       		.byte	32
 900 00fa 1C       		.byte	28
 901 00fb 2C       		.byte	44
 902 00fc 1D       		.byte	29
 903 00fd 01       		.byte	1
 904 00fe 1E       		.byte	30
 905 00ff 13       		.byte	19
 906 0100 1F       		.byte	31
 907 0101 C2       		.byte	-62
 908 0102 20       		.byte	32
 909 0103 0C       		.byte	12
 910 0104 21       		.byte	33
 911 0105 02       		.byte	2
 912 0106 22       		.byte	34
 913 0107 20       		.byte	32
 914 0108 23       		.byte	35
 915 0109 10       		.byte	16
 916 010a 26       		.byte	38
 917 010b 3B       		.byte	59
 918 010c 28       		.byte	40
 919 010d 01       		.byte	1
 920 010e 29       		.byte	41
 921 010f 04       		.byte	4
 922 0110 2A       		.byte	42
 923 0111 40       		.byte	64
 924 0112 2B       		.byte	43
 925 0113 02       		.byte	2
 926 0114 2F       		.byte	47
 927 0115 80       		.byte	-128
 928 0116 30       		.byte	48
 929 0117 03       		.byte	3
 930 0118 31       		.byte	49
 931 0119 40       		.byte	64
 932 011a 33       		.byte	51
 933 011b 80       		.byte	-128
 934 011c 34       		.byte	52
 935 011d 3C       		.byte	60
 936 011e 35       		.byte	53
 937 011f 3F       		.byte	63
 938 0120 36       		.byte	54
 939 0121 C0       		.byte	-64
 940 0122 3A       		.byte	58
ARM GAS  C:\Users\kingi\AppData\Local\Temp\cc068PKu.s 			page 51


 941 0123 20       		.byte	32
 942 0124 3E       		.byte	62
 943 0125 40       		.byte	64
 944 0126 3F       		.byte	63
 945 0127 04       		.byte	4
 946 0128 58       		.byte	88
 947 0129 04       		.byte	4
 948 012a 59       		.byte	89
 949 012b 04       		.byte	4
 950 012c 5F       		.byte	95
 951 012d 01       		.byte	1
 952 012e 80       		.byte	-128
 953 012f E5       		.byte	-27
 954 0130 81       		.byte	-127
 955 0131 42       		.byte	66
 956 0132 82       		.byte	-126
 957 0133 12       		.byte	18
 958 0134 84       		.byte	-124
 959 0135 F9       		.byte	-7
 960 0136 85       		.byte	-123
 961 0137 18       		.byte	24
 962 0138 86       		.byte	-122
 963 0139 02       		.byte	2
 964 013a 87       		.byte	-121
 965 013b 63       		.byte	99
 966 013c 88       		.byte	-120
 967 013d 99       		.byte	-103
 968 013e 89       		.byte	-119
 969 013f 03       		.byte	3
 970 0140 8A       		.byte	-118
 971 0141 66       		.byte	102
 972 0142 8C       		.byte	-116
 973 0143 04       		.byte	4
 974 0144 8F       		.byte	-113
 975 0145 0B       		.byte	11
 976 0146 90       		.byte	-112
 977 0147 81       		.byte	-127
 978 0148 91       		.byte	-111
 979 0149 02       		.byte	2
 980 014a 92       		.byte	-110
 981 014b 06       		.byte	6
 982 014c 95       		.byte	-107
 983 014d 78       		.byte	120
 984 014e 96       		.byte	-106
 985 014f 01       		.byte	1
 986 0150 98       		.byte	-104
 987 0151 24       		.byte	36
 988 0152 9B       		.byte	-101
 989 0153 04       		.byte	4
 990 0154 9D       		.byte	-99
 991 0155 63       		.byte	99
 992 0156 9E       		.byte	-98
 993 0157 9E       		.byte	-98
 994 0158 9F       		.byte	-97
 995 0159 10       		.byte	16
 996 015a A0       		.byte	-96
 997 015b 01       		.byte	1
ARM GAS  C:\Users\kingi\AppData\Local\Temp\cc068PKu.s 			page 52


 998 015c A3       		.byte	-93
 999 015d 1B       		.byte	27
 1000 015e A4       		.byte	-92
 1001 015f 64       		.byte	100
 1002 0160 A5       		.byte	-91
 1003 0161 21       		.byte	33
 1004 0162 A8       		.byte	-88
 1005 0163 67       		.byte	103
 1006 0164 A9       		.byte	-87
 1007 0165 63       		.byte	99
 1008 0166 AA       		.byte	-86
 1009 0167 88       		.byte	-120
 1010 0168 AC       		.byte	-84
 1011 0169 44       		.byte	68
 1012 016a AD       		.byte	-83
 1013 016b 63       		.byte	99
 1014 016c AF       		.byte	-81
 1015 016d 18       		.byte	24
 1016 016e B0       		.byte	-80
 1017 016f E0       		.byte	-32
 1018 0170 B1       		.byte	-79
 1019 0171 07       		.byte	7
 1020 0172 B2       		.byte	-78
 1021 0173 7F       		.byte	127
 1022 0174 B3       		.byte	-77
 1023 0175 78       		.byte	120
 1024 0176 BB       		.byte	-69
 1025 0177 0A       		.byte	10
 1026 0178 BE       		.byte	-66
 1027 0179 04       		.byte	4
 1028 017a D2       		.byte	-46
 1029 017b 03       		.byte	3
 1030 017c D8       		.byte	-40
 1031 017d 04       		.byte	4
 1032 017e D9       		.byte	-39
 1033 017f 04       		.byte	4
 1034 0180 DB       		.byte	-37
 1035 0181 04       		.byte	4
 1036 0182 DC       		.byte	-36
 1037 0183 22       		.byte	34
 1038 0184 DD       		.byte	-35
 1039 0185 20       		.byte	32
 1040 0186 DF       		.byte	-33
 1041 0187 01       		.byte	1
 1042 0188 00       		.byte	0
 1043 0189 08       		.byte	8
 1044 018a 01       		.byte	1
 1045 018b 20       		.byte	32
 1046 018c 02       		.byte	2
 1047 018d 01       		.byte	1
 1048 018e 04       		.byte	4
 1049 018f 80       		.byte	-128
 1050 0190 05       		.byte	5
 1051 0191 04       		.byte	4
 1052 0192 07       		.byte	7
 1053 0193 48       		.byte	72
 1054 0194 08       		.byte	8
ARM GAS  C:\Users\kingi\AppData\Local\Temp\cc068PKu.s 			page 53


 1055 0195 88       		.byte	-120
 1056 0196 0A       		.byte	10
 1057 0197 88       		.byte	-120
 1058 0198 0C       		.byte	12
 1059 0199 20       		.byte	32
 1060 019a 0D       		.byte	13
 1061 019b 80       		.byte	-128
 1062 019c 0E       		.byte	14
 1063 019d 90       		.byte	-112
 1064 019e 11       		.byte	17
 1065 019f 10       		.byte	16
 1066 01a0 12       		.byte	18
 1067 01a1 60       		.byte	96
 1068 01a2 14       		.byte	20
 1069 01a3 40       		.byte	64
 1070 01a4 16       		.byte	22
 1071 01a5 22       		.byte	34
 1072 01a6 17       		.byte	23
 1073 01a7 10       		.byte	16
 1074 01a8 19       		.byte	25
 1075 01a9 21       		.byte	33
 1076 01aa 1A       		.byte	26
 1077 01ab 01       		.byte	1
 1078 01ac 1E       		.byte	30
 1079 01ad 20       		.byte	32
 1080 01ae 1F       		.byte	31
 1081 01af 01       		.byte	1
 1082 01b0 20       		.byte	32
 1083 01b1 40       		.byte	64
 1084 01b2 22       		.byte	34
 1085 01b3 20       		.byte	32
 1086 01b4 23       		.byte	35
 1087 01b5 20       		.byte	32
 1088 01b6 27       		.byte	39
 1089 01b7 50       		.byte	80
 1090 01b8 28       		.byte	40
 1091 01b9 80       		.byte	-128
 1092 01ba 29       		.byte	41
 1093 01bb 20       		.byte	32
 1094 01bc 2A       		.byte	42
 1095 01bd 40       		.byte	64
 1096 01be 2C       		.byte	44
 1097 01bf 20       		.byte	32
 1098 01c0 2E       		.byte	46
 1099 01c1 60       		.byte	96
 1100 01c2 2F       		.byte	47
 1101 01c3 40       		.byte	64
 1102 01c4 32       		.byte	50
 1103 01c5 44       		.byte	68
 1104 01c6 35       		.byte	53
 1105 01c7 04       		.byte	4
 1106 01c8 36       		.byte	54
 1107 01c9 11       		.byte	17
 1108 01ca 37       		.byte	55
 1109 01cb 40       		.byte	64
 1110 01cc 39       		.byte	57
 1111 01cd A8       		.byte	-88
ARM GAS  C:\Users\kingi\AppData\Local\Temp\cc068PKu.s 			page 54


 1112 01ce 3A       		.byte	58
 1113 01cf 01       		.byte	1
 1114 01d0 3C       		.byte	60
 1115 01d1 04       		.byte	4
 1116 01d2 3D       		.byte	61
 1117 01d3 A0       		.byte	-96
 1118 01d4 3E       		.byte	62
 1119 01d5 02       		.byte	2
 1120 01d6 6D       		.byte	109
 1121 01d7 A0       		.byte	-96
 1122 01d8 6E       		.byte	110
 1123 01d9 80       		.byte	-128
 1124 01da 78       		.byte	120
 1125 01db 04       		.byte	4
 1126 01dc 7A       		.byte	122
 1127 01dd 22       		.byte	34
 1128 01de 7B       		.byte	123
 1129 01df 01       		.byte	1
 1130 01e0 82       		.byte	-126
 1131 01e1 40       		.byte	64
 1132 01e2 83       		.byte	-125
 1133 01e3 10       		.byte	16
 1134 01e4 8A       		.byte	-118
 1135 01e5 40       		.byte	64
 1136 01e6 C0       		.byte	-64
 1137 01e7 F7       		.byte	-9
 1138 01e8 C2       		.byte	-62
 1139 01e9 FF       		.byte	-1
 1140 01ea C4       		.byte	-60
 1141 01eb FE       		.byte	-2
 1142 01ec CA       		.byte	-54
 1143 01ed FD       		.byte	-3
 1144 01ee CC       		.byte	-52
 1145 01ef FA       		.byte	-6
 1146 01f0 CE       		.byte	-50
 1147 01f1 FF       		.byte	-1
 1148 01f2 01       		.byte	1
 1149 01f3 12       		.byte	18
 1150 01f4 05       		.byte	5
 1151 01f5 68       		.byte	104
 1152 01f6 07       		.byte	7
 1153 01f7 93       		.byte	-109
 1154 01f8 09       		.byte	9
 1155 01f9 07       		.byte	7
 1156 01fa 0F       		.byte	15
 1157 01fb BF       		.byte	-65
 1158 01fc 10       		.byte	16
 1159 01fd 01       		.byte	1
 1160 01fe 11       		.byte	17
 1161 01ff 12       		.byte	18
 1162 0200 12       		.byte	18
 1163 0201 02       		.byte	2
 1164 0202 14       		.byte	20
 1165 0203 02       		.byte	2
 1166 0204 15       		.byte	21
 1167 0205 48       		.byte	72
 1168 0206 17       		.byte	23
ARM GAS  C:\Users\kingi\AppData\Local\Temp\cc068PKu.s 			page 55


 1169 0207 97       		.byte	-105
 1170 0208 19       		.byte	25
 1171 0209 F7       		.byte	-9
 1172 020a 1A       		.byte	26
 1173 020b 01       		.byte	1
 1174 020c 1D       		.byte	29
 1175 020d 7F       		.byte	127
 1176 020e 1F       		.byte	31
 1177 020f 80       		.byte	-128
 1178 0210 20       		.byte	32
 1179 0211 08       		.byte	8
 1180 0212 23       		.byte	35
 1181 0213 BF       		.byte	-65
 1182 0214 24       		.byte	36
 1183 0215 04       		.byte	4
 1184 0216 25       		.byte	37
 1185 0217 11       		.byte	17
 1186 0218 29       		.byte	41
 1187 0219 13       		.byte	19
 1188 021a 2A       		.byte	42
 1189 021b 01       		.byte	1
 1190 021c 2F       		.byte	47
 1191 021d 24       		.byte	36
 1192 021e 30       		.byte	48
 1193 021f 04       		.byte	4
 1194 0220 31       		.byte	49
 1195 0221 7F       		.byte	127
 1196 0222 32       		.byte	50
 1197 0223 08       		.byte	8
 1198 0224 36       		.byte	54
 1199 0225 03       		.byte	3
 1200 0226 37       		.byte	55
 1201 0227 C0       		.byte	-64
 1202 0228 3E       		.byte	62
 1203 0229 45       		.byte	69
 1204 022a 3F       		.byte	63
 1205 022b 41       		.byte	65
 1206 022c 56       		.byte	86
 1207 022d 02       		.byte	2
 1208 022e 57       		.byte	87
 1209 022f 13       		.byte	19
 1210 0230 58       		.byte	88
 1211 0231 04       		.byte	4
 1212 0232 59       		.byte	89
 1213 0233 04       		.byte	4
 1214 0234 5B       		.byte	91
 1215 0235 04       		.byte	4
 1216 0236 5D       		.byte	93
 1217 0237 20       		.byte	32
 1218 0238 5F       		.byte	95
 1219 0239 01       		.byte	1
 1220 023a 80       		.byte	-128
 1221 023b 02       		.byte	2
 1222 023c 84       		.byte	-124
 1223 023d 03       		.byte	3
 1224 023e 88       		.byte	-120
 1225 023f E7       		.byte	-25
ARM GAS  C:\Users\kingi\AppData\Local\Temp\cc068PKu.s 			page 56


 1226 0240 89       		.byte	-119
 1227 0241 3F       		.byte	63
 1228 0242 8A       		.byte	-118
 1229 0243 18       		.byte	24
 1230 0244 8C       		.byte	-116
 1231 0245 01       		.byte	1
 1232 0246 8D       		.byte	-115
 1233 0247 3D       		.byte	61
 1234 0248 8F       		.byte	-113
 1235 0249 02       		.byte	2
 1236 024a 90       		.byte	-112
 1237 024b 03       		.byte	3
 1238 024c 91       		.byte	-111
 1239 024d 08       		.byte	8
 1240 024e 92       		.byte	-110
 1241 024f 1C       		.byte	28
 1242 0250 93       		.byte	-109
 1243 0251 02       		.byte	2
 1244 0252 94       		.byte	-108
 1245 0253 60       		.byte	96
 1246 0254 95       		.byte	-107
 1247 0255 20       		.byte	32
 1248 0256 97       		.byte	-105
 1249 0257 02       		.byte	2
 1250 0258 98       		.byte	-104
 1251 0259 8F       		.byte	-113
 1252 025a 99       		.byte	-103
 1253 025b 04       		.byte	4
 1254 025c 9A       		.byte	-102
 1255 025d 70       		.byte	112
 1256 025e 9B       		.byte	-101
 1257 025f 02       		.byte	2
 1258 0260 9C       		.byte	-100
 1259 0261 FB       		.byte	-5
 1260 0262 9D       		.byte	-99
 1261 0263 02       		.byte	2
 1262 0264 9E       		.byte	-98
 1263 0265 04       		.byte	4
 1264 0266 9F       		.byte	-97
 1265 0267 10       		.byte	16
 1266 0268 A0       		.byte	-96
 1267 0269 40       		.byte	64
 1268 026a A4       		.byte	-92
 1269 026b 20       		.byte	32
 1270 026c A5       		.byte	-91
 1271 026d 3F       		.byte	63
 1272 026e AA       		.byte	-86
 1273 026f 1F       		.byte	31
 1274 0270 AC       		.byte	-84
 1275 0271 EC       		.byte	-20
 1276 0272 AD       		.byte	-83
 1277 0273 01       		.byte	1
 1278 0274 AE       		.byte	-82
 1279 0275 13       		.byte	19
 1280 0276 AF       		.byte	-81
 1281 0277 02       		.byte	2
 1282 0278 B1       		.byte	-79
ARM GAS  C:\Users\kingi\AppData\Local\Temp\cc068PKu.s 			page 57


 1283 0279 3F       		.byte	63
 1284 027a B4       		.byte	-76
 1285 027b 7F       		.byte	127
 1286 027c B6       		.byte	-74
 1287 027d 90       		.byte	-112
 1288 027e BA       		.byte	-70
 1289 027f 20       		.byte	32
 1290 0280 BE       		.byte	-66
 1291 0281 40       		.byte	64
 1292 0282 D6       		.byte	-42
 1293 0283 02       		.byte	2
 1294 0284 D7       		.byte	-41
 1295 0285 10       		.byte	16
 1296 0286 D8       		.byte	-40
 1297 0287 04       		.byte	4
 1298 0288 D9       		.byte	-39
 1299 0289 04       		.byte	4
 1300 028a DB       		.byte	-37
 1301 028b 04       		.byte	4
 1302 028c DC       		.byte	-36
 1303 028d 10       		.byte	16
 1304 028e DF       		.byte	-33
 1305 028f 01       		.byte	1
 1306 0290 00       		.byte	0
 1307 0291 08       		.byte	8
 1308 0292 01       		.byte	1
 1309 0293 22       		.byte	34
 1310 0294 02       		.byte	2
 1311 0295 02       		.byte	2
 1312 0296 08       		.byte	8
 1313 0297 80       		.byte	-128
 1314 0298 0A       		.byte	10
 1315 0299 84       		.byte	-124
 1316 029a 0B       		.byte	11
 1317 029b 10       		.byte	16
 1318 029c 0D       		.byte	13
 1319 029d 20       		.byte	32
 1320 029e 0E       		.byte	14
 1321 029f 80       		.byte	-128
 1322 02a0 0F       		.byte	15
 1323 02a1 20       		.byte	32
 1324 02a2 10       		.byte	16
 1325 02a3 04       		.byte	4
 1326 02a4 12       		.byte	18
 1327 02a5 01       		.byte	1
 1328 02a6 13       		.byte	19
 1329 02a7 05       		.byte	5
 1330 02a8 14       		.byte	20
 1331 02a9 20       		.byte	32
 1332 02aa 15       		.byte	21
 1333 02ab 02       		.byte	2
 1334 02ac 16       		.byte	22
 1335 02ad 08       		.byte	8
 1336 02ae 19       		.byte	25
 1337 02af 80       		.byte	-128
 1338 02b0 1A       		.byte	26
 1339 02b1 0C       		.byte	12
ARM GAS  C:\Users\kingi\AppData\Local\Temp\cc068PKu.s 			page 58


 1340 02b2 1C       		.byte	28
 1341 02b3 20       		.byte	32
 1342 02b4 1D       		.byte	29
 1343 02b5 02       		.byte	2
 1344 02b6 1F       		.byte	31
 1345 02b7 80       		.byte	-128
 1346 02b8 23       		.byte	35
 1347 02b9 40       		.byte	64
 1348 02ba 27       		.byte	39
 1349 02bb 82       		.byte	-126
 1350 02bc 2A       		.byte	42
 1351 02bd 04       		.byte	4
 1352 02be 2B       		.byte	43
 1353 02bf 02       		.byte	2
 1354 02c0 2C       		.byte	44
 1355 02c1 22       		.byte	34
 1356 02c2 2E       		.byte	46
 1357 02c3 20       		.byte	32
 1358 02c4 2F       		.byte	47
 1359 02c5 50       		.byte	80
 1360 02c6 31       		.byte	49
 1361 02c7 08       		.byte	8
 1362 02c8 32       		.byte	50
 1363 02c9 81       		.byte	-127
 1364 02ca 33       		.byte	51
 1365 02cb 20       		.byte	32
 1366 02cc 35       		.byte	53
 1367 02cd 04       		.byte	4
 1368 02ce 36       		.byte	54
 1369 02cf 01       		.byte	1
 1370 02d0 37       		.byte	55
 1371 02d1 50       		.byte	80
 1372 02d2 39       		.byte	57
 1373 02d3 40       		.byte	64
 1374 02d4 3A       		.byte	58
 1375 02d5 10       		.byte	16
 1376 02d6 3C       		.byte	60
 1377 02d7 04       		.byte	4
 1378 02d8 3D       		.byte	61
 1379 02d9 A0       		.byte	-96
 1380 02da 3E       		.byte	62
 1381 02db 02       		.byte	2
 1382 02dc 59       		.byte	89
 1383 02dd 80       		.byte	-128
 1384 02de 5F       		.byte	95
 1385 02df 02       		.byte	2
 1386 02e0 68       		.byte	104
 1387 02e1 41       		.byte	65
 1388 02e2 69       		.byte	105
 1389 02e3 A9       		.byte	-87
 1390 02e4 6C       		.byte	108
 1391 02e5 40       		.byte	64
 1392 02e6 6D       		.byte	109
 1393 02e7 04       		.byte	4
 1394 02e8 6E       		.byte	110
 1395 02e9 22       		.byte	34
 1396 02ea 6F       		.byte	111
ARM GAS  C:\Users\kingi\AppData\Local\Temp\cc068PKu.s 			page 59


 1397 02eb 01       		.byte	1
 1398 02ec 70       		.byte	112
 1399 02ed 04       		.byte	4
 1400 02ee 73       		.byte	115
 1401 02ef 15       		.byte	21
 1402 02f0 74       		.byte	116
 1403 02f1 20       		.byte	32
 1404 02f2 76       		.byte	118
 1405 02f3 22       		.byte	34
 1406 02f4 81       		.byte	-127
 1407 02f5 03       		.byte	3
 1408 02f6 84       		.byte	-124
 1409 02f7 15       		.byte	21
 1410 02f8 86       		.byte	-122
 1411 02f9 04       		.byte	4
 1412 02fa 89       		.byte	-119
 1413 02fb 01       		.byte	1
 1414 02fc 8B       		.byte	-117
 1415 02fd 04       		.byte	4
 1416 02fe 90       		.byte	-112
 1417 02ff 40       		.byte	64
 1418 0300 92       		.byte	-110
 1419 0301 41       		.byte	65
 1420 0302 93       		.byte	-109
 1421 0303 02       		.byte	2
 1422 0304 94       		.byte	-108
 1423 0305 84       		.byte	-124
 1424 0306 95       		.byte	-107
 1425 0307 A8       		.byte	-88
 1426 0308 96       		.byte	-106
 1427 0309 98       		.byte	-104
 1428 030a 97       		.byte	-105
 1429 030b 80       		.byte	-128
 1430 030c 98       		.byte	-104
 1431 030d 04       		.byte	4
 1432 030e 99       		.byte	-103
 1433 030f 21       		.byte	33
 1434 0310 9B       		.byte	-101
 1435 0311 70       		.byte	112
 1436 0312 9C       		.byte	-100
 1437 0313 C8       		.byte	-56
 1438 0314 9D       		.byte	-99
 1439 0315 04       		.byte	4
 1440 0316 9E       		.byte	-98
 1441 0317 63       		.byte	99
 1442 0318 9F       		.byte	-97
 1443 0319 08       		.byte	8
 1444 031a A1       		.byte	-95
 1445 031b 50       		.byte	80
 1446 031c A2       		.byte	-94
 1447 031d 62       		.byte	98
 1448 031e A4       		.byte	-92
 1449 031f 24       		.byte	36
 1450 0320 A5       		.byte	-91
 1451 0321 80       		.byte	-128
 1452 0322 A6       		.byte	-90
 1453 0323 01       		.byte	1
ARM GAS  C:\Users\kingi\AppData\Local\Temp\cc068PKu.s 			page 60


 1454 0324 AD       		.byte	-83
 1455 0325 20       		.byte	32
 1456 0326 B1       		.byte	-79
 1457 0327 10       		.byte	16
 1458 0328 B3       		.byte	-77
 1459 0329 01       		.byte	1
 1460 032a B6       		.byte	-74
 1461 032b 20       		.byte	32
 1462 032c C0       		.byte	-64
 1463 032d 0F       		.byte	15
 1464 032e C2       		.byte	-62
 1465 032f 7F       		.byte	127
 1466 0330 C4       		.byte	-60
 1467 0331 7F       		.byte	127
 1468 0332 CA       		.byte	-54
 1469 0333 FA       		.byte	-6
 1470 0334 CC       		.byte	-52
 1471 0335 FF       		.byte	-1
 1472 0336 CE       		.byte	-50
 1473 0337 FC       		.byte	-4
 1474 0338 D6       		.byte	-42
 1475 0339 88       		.byte	-120
 1476 033a E0       		.byte	-32
 1477 033b 02       		.byte	2
 1478 033c E4       		.byte	-28
 1479 033d 08       		.byte	8
 1480 033e E6       		.byte	-26
 1481 033f 03       		.byte	3
 1482 0340 E8       		.byte	-24
 1483 0341 80       		.byte	-128
 1484 0342 EC       		.byte	-20
 1485 0343 02       		.byte	2
 1486 0344 80       		.byte	-128
 1487 0345 20       		.byte	32
 1488 0346 82       		.byte	-126
 1489 0347 44       		.byte	68
 1490 0348 83       		.byte	-125
 1491 0349 04       		.byte	4
 1492 034a 84       		.byte	-124
 1493 034b 02       		.byte	2
 1494 034c 86       		.byte	-122
 1495 034d 44       		.byte	68
 1496 034e 87       		.byte	-121
 1497 034f 02       		.byte	2
 1498 0350 88       		.byte	-120
 1499 0351 08       		.byte	8
 1500 0352 8A       		.byte	-118
 1501 0353 44       		.byte	68
 1502 0354 8B       		.byte	-117
 1503 0355 01       		.byte	1
 1504 0356 90       		.byte	-112
 1505 0357 01       		.byte	1
 1506 0358 92       		.byte	-110
 1507 0359 FE       		.byte	-2
 1508 035a 93       		.byte	-109
 1509 035b 01       		.byte	1
 1510 035c 94       		.byte	-108
ARM GAS  C:\Users\kingi\AppData\Local\Temp\cc068PKu.s 			page 61


 1511 035d 3E       		.byte	62
 1512 035e 9A       		.byte	-102
 1513 035f C0       		.byte	-64
 1514 0360 9E       		.byte	-98
 1515 0361 41       		.byte	65
 1516 0362 A0       		.byte	-96
 1517 0363 3A       		.byte	58
 1518 0364 A2       		.byte	-94
 1519 0365 04       		.byte	4
 1520 0366 A4       		.byte	-92
 1521 0367 3E       		.byte	62
 1522 0368 A8       		.byte	-88
 1523 0369 44       		.byte	68
 1524 036a AA       		.byte	-86
 1525 036b 10       		.byte	16
 1526 036c AF       		.byte	-81
 1527 036d 04       		.byte	4
 1528 036e B0       		.byte	-80
 1529 036f 3F       		.byte	63
 1530 0370 B2       		.byte	-78
 1531 0371 40       		.byte	64
 1532 0372 B3       		.byte	-77
 1533 0373 03       		.byte	3
 1534 0374 B4       		.byte	-76
 1535 0375 80       		.byte	-128
 1536 0376 B5       		.byte	-75
 1537 0377 04       		.byte	4
 1538 0378 BE       		.byte	-66
 1539 0379 15       		.byte	21
 1540 037a BF       		.byte	-65
 1541 037b 14       		.byte	20
 1542 037c C0       		.byte	-64
 1543 037d 34       		.byte	52
 1544 037e C1       		.byte	-63
 1545 037f 02       		.byte	2
 1546 0380 C2       		.byte	-62
 1547 0381 05       		.byte	5
 1548 0382 C4       		.byte	-60
 1549 0383 06       		.byte	6
 1550 0384 C5       		.byte	-59
 1551 0385 CD       		.byte	-51
 1552 0386 C6       		.byte	-58
 1553 0387 F0       		.byte	-16
 1554 0388 C7       		.byte	-57
 1555 0389 BE       		.byte	-66
 1556 038a C8       		.byte	-56
 1557 038b 3B       		.byte	59
 1558 038c C9       		.byte	-55
 1559 038d FF       		.byte	-1
 1560 038e CA       		.byte	-54
 1561 038f FF       		.byte	-1
 1562 0390 CB       		.byte	-53
 1563 0391 FF       		.byte	-1
 1564 0392 CC       		.byte	-52
 1565 0393 62       		.byte	98
 1566 0394 CD       		.byte	-51
 1567 0395 A0       		.byte	-96
ARM GAS  C:\Users\kingi\AppData\Local\Temp\cc068PKu.s 			page 62


 1568 0396 CE       		.byte	-50
 1569 0397 F0       		.byte	-16
 1570 0398 CF       		.byte	-49
 1571 0399 41       		.byte	65
 1572 039a D0       		.byte	-48
 1573 039b 0C       		.byte	12
 1574 039c D2       		.byte	-46
 1575 039d 03       		.byte	3
 1576 039e D8       		.byte	-40
 1577 039f 04       		.byte	4
 1578 03a0 D9       		.byte	-39
 1579 03a1 04       		.byte	4
 1580 03a2 DA       		.byte	-38
 1581 03a3 04       		.byte	4
 1582 03a4 DB       		.byte	-37
 1583 03a5 04       		.byte	4
 1584 03a6 DD       		.byte	-35
 1585 03a7 12       		.byte	18
 1586 03a8 DF       		.byte	-33
 1587 03a9 01       		.byte	1
 1588 03aa E6       		.byte	-26
 1589 03ab 40       		.byte	64
 1590 03ac E7       		.byte	-25
 1591 03ad 02       		.byte	2
 1592 03ae E9       		.byte	-23
 1593 03af 10       		.byte	16
 1594 03b0 EA       		.byte	-22
 1595 03b1 30       		.byte	48
 1596 03b2 EB       		.byte	-21
 1597 03b3 10       		.byte	16
 1598 03b4 ED       		.byte	-19
 1599 03b5 10       		.byte	16
 1600 03b6 EE       		.byte	-18
 1601 03b7 10       		.byte	16
 1602 03b8 EF       		.byte	-17
 1603 03b9 12       		.byte	18
 1604 03ba 00       		.byte	0
 1605 03bb 28       		.byte	40
 1606 03bc 02       		.byte	2
 1607 03bd 14       		.byte	20
 1608 03be 03       		.byte	3
 1609 03bf 02       		.byte	2
 1610 03c0 05       		.byte	5
 1611 03c1 04       		.byte	4
 1612 03c2 07       		.byte	7
 1613 03c3 48       		.byte	72
 1614 03c4 09       		.byte	9
 1615 03c5 08       		.byte	8
 1616 03c6 0A       		.byte	10
 1617 03c7 06       		.byte	6
 1618 03c8 0B       		.byte	11
 1619 03c9 40       		.byte	64
 1620 03ca 0D       		.byte	13
 1621 03cb 80       		.byte	-128
 1622 03cc 0E       		.byte	14
 1623 03cd A0       		.byte	-96
 1624 03ce 0F       		.byte	15
ARM GAS  C:\Users\kingi\AppData\Local\Temp\cc068PKu.s 			page 63


 1625 03cf 08       		.byte	8
 1626 03d0 10       		.byte	16
 1627 03d1 08       		.byte	8
 1628 03d2 11       		.byte	17
 1629 03d3 40       		.byte	64
 1630 03d4 12       		.byte	18
 1631 03d5 80       		.byte	-128
 1632 03d6 14       		.byte	20
 1633 03d7 04       		.byte	4
 1634 03d8 15       		.byte	21
 1635 03d9 04       		.byte	4
 1636 03da 17       		.byte	23
 1637 03db 11       		.byte	17
 1638 03dc 18       		.byte	24
 1639 03dd 02       		.byte	2
 1640 03de 1B       		.byte	27
 1641 03df 09       		.byte	9
 1642 03e0 1C       		.byte	28
 1643 03e1 10       		.byte	16
 1644 03e2 1D       		.byte	29
 1645 03e3 12       		.byte	18
 1646 03e4 20       		.byte	32
 1647 03e5 02       		.byte	2
 1648 03e6 22       		.byte	34
 1649 03e7 10       		.byte	16
 1650 03e8 24       		.byte	36
 1651 03e9 08       		.byte	8
 1652 03ea 26       		.byte	38
 1653 03eb 08       		.byte	8
 1654 03ec 28       		.byte	40
 1655 03ed 80       		.byte	-128
 1656 03ee 29       		.byte	41
 1657 03ef 60       		.byte	96
 1658 03f0 2F       		.byte	47
 1659 03f1 01       		.byte	1
 1660 03f2 32       		.byte	50
 1661 03f3 64       		.byte	100
 1662 03f4 34       		.byte	52
 1663 03f5 08       		.byte	8
 1664 03f6 35       		.byte	53
 1665 03f7 04       		.byte	4
 1666 03f8 36       		.byte	54
 1667 03f9 01       		.byte	1
 1668 03fa 39       		.byte	57
 1669 03fb A8       		.byte	-88
 1670 03fc 3D       		.byte	61
 1671 03fd 29       		.byte	41
 1672 03fe 40       		.byte	64
 1673 03ff 02       		.byte	2
 1674 0400 42       		.byte	66
 1675 0401 84       		.byte	-124
 1676 0402 43       		.byte	67
 1677 0403 08       		.byte	8
 1678 0404 44       		.byte	68
 1679 0405 08       		.byte	8
 1680 0406 45       		.byte	69
 1681 0407 02       		.byte	2
ARM GAS  C:\Users\kingi\AppData\Local\Temp\cc068PKu.s 			page 64


 1682 0408 47       		.byte	71
 1683 0409 08       		.byte	8
 1684 040a 49       		.byte	73
 1685 040b 82       		.byte	-126
 1686 040c 4B       		.byte	75
 1687 040d 08       		.byte	8
 1688 040e 4D       		.byte	77
 1689 040f 01       		.byte	1
 1690 0410 4E       		.byte	78
 1691 0411 0A       		.byte	10
 1692 0412 4F       		.byte	79
 1693 0413 08       		.byte	8
 1694 0414 50       		.byte	80
 1695 0415 A8       		.byte	-88
 1696 0416 54       		.byte	84
 1697 0417 02       		.byte	2
 1698 0418 56       		.byte	86
 1699 0419 08       		.byte	8
 1700 041a 57       		.byte	87
 1701 041b 10       		.byte	16
 1702 041c 69       		.byte	105
 1703 041d 10       		.byte	16
 1704 041e 6A       		.byte	106
 1705 041f 80       		.byte	-128
 1706 0420 6F       		.byte	111
 1707 0421 06       		.byte	6
 1708 0422 78       		.byte	120
 1709 0423 40       		.byte	64
 1710 0424 7A       		.byte	122
 1711 0425 01       		.byte	1
 1712 0426 7E       		.byte	126
 1713 0427 02       		.byte	2
 1714 0428 7F       		.byte	127
 1715 0429 01       		.byte	1
 1716 042a 82       		.byte	-126
 1717 042b 01       		.byte	1
 1718 042c 84       		.byte	-124
 1719 042d 81       		.byte	-127
 1720 042e 87       		.byte	-121
 1721 042f 41       		.byte	65
 1722 0430 88       		.byte	-120
 1723 0431 08       		.byte	8
 1724 0432 8B       		.byte	-117
 1725 0433 04       		.byte	4
 1726 0434 8E       		.byte	-114
 1727 0435 50       		.byte	80
 1728 0436 90       		.byte	-112
 1729 0437 40       		.byte	64
 1730 0438 91       		.byte	-111
 1731 0439 AC       		.byte	-84
 1732 043a 92       		.byte	-110
 1733 043b 49       		.byte	73
 1734 043c 93       		.byte	-109
 1735 043d 77       		.byte	119
 1736 043e 94       		.byte	-108
 1737 043f 06       		.byte	6
 1738 0440 95       		.byte	-107
ARM GAS  C:\Users\kingi\AppData\Local\Temp\cc068PKu.s 			page 65


 1739 0441 42       		.byte	66
 1740 0442 96       		.byte	-106
 1741 0443 82       		.byte	-126
 1742 0444 97       		.byte	-105
 1743 0445 80       		.byte	-128
 1744 0446 98       		.byte	-104
 1745 0447 10       		.byte	16
 1746 0448 99       		.byte	-103
 1747 0449 21       		.byte	33
 1748 044a 9A       		.byte	-102
 1749 044b 22       		.byte	34
 1750 044c 9B       		.byte	-101
 1751 044d F1       		.byte	-15
 1752 044e 9C       		.byte	-100
 1753 044f E0       		.byte	-32
 1754 0450 9D       		.byte	-99
 1755 0451 04       		.byte	4
 1756 0452 9E       		.byte	-98
 1757 0453 5D       		.byte	93
 1758 0454 9F       		.byte	-97
 1759 0455 08       		.byte	8
 1760 0456 A0       		.byte	-96
 1761 0457 40       		.byte	64
 1762 0458 A1       		.byte	-95
 1763 0459 41       		.byte	65
 1764 045a A2       		.byte	-94
 1765 045b 70       		.byte	112
 1766 045c A4       		.byte	-92
 1767 045d 02       		.byte	2
 1768 045e A5       		.byte	-91
 1769 045f A8       		.byte	-88
 1770 0460 A6       		.byte	-90
 1771 0461 80       		.byte	-128
 1772 0462 A7       		.byte	-89
 1773 0463 32       		.byte	50
 1774 0464 A8       		.byte	-88
 1775 0465 08       		.byte	8
 1776 0466 A9       		.byte	-87
 1777 0467 02       		.byte	2
 1778 0468 AA       		.byte	-86
 1779 0469 10       		.byte	16
 1780 046a AC       		.byte	-84
 1781 046b 10       		.byte	16
 1782 046c B1       		.byte	-79
 1783 046d 14       		.byte	20
 1784 046e B3       		.byte	-77
 1785 046f 80       		.byte	-128
 1786 0470 B4       		.byte	-76
 1787 0471 05       		.byte	5
 1788 0472 B7       		.byte	-73
 1789 0473 01       		.byte	1
 1790 0474 C0       		.byte	-64
 1791 0475 77       		.byte	119
 1792 0476 C2       		.byte	-62
 1793 0477 FF       		.byte	-1
 1794 0478 C4       		.byte	-60
 1795 0479 7B       		.byte	123
ARM GAS  C:\Users\kingi\AppData\Local\Temp\cc068PKu.s 			page 66


 1796 047a CA       		.byte	-54
 1797 047b 1D       		.byte	29
 1798 047c CC       		.byte	-52
 1799 047d 8E       		.byte	-114
 1800 047e CE       		.byte	-50
 1801 047f EE       		.byte	-18
 1802 0480 D0       		.byte	-48
 1803 0481 EF       		.byte	-17
 1804 0482 D2       		.byte	-46
 1805 0483 38       		.byte	56
 1806 0484 E0       		.byte	-32
 1807 0485 08       		.byte	8
 1808 0486 E2       		.byte	-30
 1809 0487 02       		.byte	2
 1810 0488 E4       		.byte	-28
 1811 0489 0B       		.byte	11
 1812 048a EA       		.byte	-22
 1813 048b 01       		.byte	1
 1814 048c EC       		.byte	-20
 1815 048d 02       		.byte	2
 1816 048e EE       		.byte	-18
 1817 048f 04       		.byte	4
 1818 0490 00       		.byte	0
 1819 0491 2B       		.byte	43
 1820 0492 02       		.byte	2
 1821 0493 C0       		.byte	-64
 1822 0494 03       		.byte	3
 1823 0495 04       		.byte	4
 1824 0496 04       		.byte	4
 1825 0497 B8       		.byte	-72
 1826 0498 05       		.byte	5
 1827 0499 21       		.byte	33
 1828 049a 06       		.byte	6
 1829 049b 43       		.byte	67
 1830 049c 08       		.byte	8
 1831 049d B9       		.byte	-71
 1832 049e 09       		.byte	9
 1833 049f 63       		.byte	99
 1834 04a0 0A       		.byte	10
 1835 04a1 40       		.byte	64
 1836 04a2 0F       		.byte	15
 1837 04a3 1B       		.byte	27
 1838 04a4 11       		.byte	17
 1839 04a5 42       		.byte	66
 1840 04a6 12       		.byte	18
 1841 04a7 04       		.byte	4
 1842 04a8 14       		.byte	20
 1843 04a9 5B       		.byte	91
 1844 04aa 15       		.byte	21
 1845 04ab 03       		.byte	3
 1846 04ac 16       		.byte	22
 1847 04ad A0       		.byte	-96
 1848 04ae 18       		.byte	24
 1849 04af 18       		.byte	24
 1850 04b0 19       		.byte	25
 1851 04b1 63       		.byte	99
 1852 04b2 1A       		.byte	26
ARM GAS  C:\Users\kingi\AppData\Local\Temp\cc068PKu.s 			page 67


 1853 04b3 40       		.byte	64
 1854 04b4 1B       		.byte	27
 1855 04b5 10       		.byte	16
 1856 04b6 1D       		.byte	29
 1857 04b7 63       		.byte	99
 1858 04b8 1E       		.byte	30
 1859 04b9 72       		.byte	114
 1860 04ba 1F       		.byte	31
 1861 04bb 18       		.byte	24
 1862 04bc 21       		.byte	33
 1863 04bd 02       		.byte	2
 1864 04be 22       		.byte	34
 1865 04bf 7B       		.byte	123
 1866 04c0 25       		.byte	37
 1867 04c1 78       		.byte	120
 1868 04c2 29       		.byte	41
 1869 04c3 18       		.byte	24
 1870 04c4 2B       		.byte	43
 1871 04c5 63       		.byte	99
 1872 04c6 2C       		.byte	44
 1873 04c7 07       		.byte	7
 1874 04c8 2F       		.byte	47
 1875 04c9 0B       		.byte	11
 1876 04ca 30       		.byte	48
 1877 04cb 07       		.byte	7
 1878 04cc 32       		.byte	50
 1879 04cd 78       		.byte	120
 1880 04ce 33       		.byte	51
 1881 04cf 07       		.byte	7
 1882 04d0 34       		.byte	52
 1883 04d1 80       		.byte	-128
 1884 04d2 37       		.byte	55
 1885 04d3 78       		.byte	120
 1886 04d4 38       		.byte	56
 1887 04d5 20       		.byte	32
 1888 04d6 3A       		.byte	58
 1889 04d7 08       		.byte	8
 1890 04d8 3B       		.byte	59
 1891 04d9 88       		.byte	-120
 1892 04da 58       		.byte	88
 1893 04db 04       		.byte	4
 1894 04dc 59       		.byte	89
 1895 04dd 04       		.byte	4
 1896 04de 5C       		.byte	92
 1897 04df 12       		.byte	18
 1898 04e0 5F       		.byte	95
 1899 04e1 01       		.byte	1
 1900 04e2 80       		.byte	-128
 1901 04e3 FB       		.byte	-5
 1902 04e4 81       		.byte	-127
 1903 04e5 04       		.byte	4
 1904 04e6 82       		.byte	-126
 1905 04e7 04       		.byte	4
 1906 04e8 84       		.byte	-124
 1907 04e9 EC       		.byte	-20
 1908 04ea 85       		.byte	-123
 1909 04eb 64       		.byte	100
ARM GAS  C:\Users\kingi\AppData\Local\Temp\cc068PKu.s 			page 68


 1910 04ec 86       		.byte	-122
 1911 04ed 13       		.byte	19
 1912 04ee 88       		.byte	-120
 1913 04ef 03       		.byte	3
 1914 04f0 89       		.byte	-119
 1915 04f1 24       		.byte	36
 1916 04f2 8C       		.byte	-116
 1917 04f3 03       		.byte	3
 1918 04f4 8E       		.byte	-114
 1919 04f5 1C       		.byte	28
 1920 04f6 8F       		.byte	-113
 1921 04f7 9E       		.byte	-98
 1922 04f8 90       		.byte	-112
 1923 04f9 02       		.byte	2
 1924 04fa 91       		.byte	-111
 1925 04fb 81       		.byte	-127
 1926 04fc 93       		.byte	-109
 1927 04fd 06       		.byte	6
 1928 04fe 94       		.byte	-108
 1929 04ff 60       		.byte	96
 1930 0500 95       		.byte	-107
 1931 0501 E5       		.byte	-27
 1932 0502 97       		.byte	-105
 1933 0503 12       		.byte	18
 1934 0504 98       		.byte	-104
 1935 0505 E7       		.byte	-25
 1936 0506 99       		.byte	-103
 1937 0507 F9       		.byte	-7
 1938 0508 9A       		.byte	-102
 1939 0509 18       		.byte	24
 1940 050a 9B       		.byte	-101
 1941 050b 02       		.byte	2
 1942 050c 9C       		.byte	-100
 1943 050d 8F       		.byte	-113
 1944 050e 9D       		.byte	-99
 1945 050f 67       		.byte	103
 1946 0510 9E       		.byte	-98
 1947 0511 70       		.byte	112
 1948 0512 9F       		.byte	-97
 1949 0513 88       		.byte	-120
 1950 0514 A0       		.byte	-96
 1951 0515 40       		.byte	64
 1952 0516 A1       		.byte	-95
 1953 0517 99       		.byte	-103
 1954 0518 A3       		.byte	-93
 1955 0519 66       		.byte	102
 1956 051a A4       		.byte	-92
 1957 051b 01       		.byte	1
 1958 051c A5       		.byte	-91
 1959 051d 01       		.byte	1
 1960 051e A8       		.byte	-88
 1961 051f 20       		.byte	32
 1962 0520 AB       		.byte	-85
 1963 0521 01       		.byte	1
 1964 0522 AD       		.byte	-83
 1965 0523 44       		.byte	68
 1966 0524 AE       		.byte	-82
ARM GAS  C:\Users\kingi\AppData\Local\Temp\cc068PKu.s 			page 69


 1967 0525 1F       		.byte	31
 1968 0526 B1       		.byte	-79
 1969 0527 E0       		.byte	-32
 1970 0528 B2       		.byte	-78
 1971 0529 90       		.byte	-112
 1972 052a B6       		.byte	-74
 1973 052b 7F       		.byte	127
 1974 052c B7       		.byte	-73
 1975 052d 7F       		.byte	127
 1976 052e BA       		.byte	-70
 1977 052f 80       		.byte	-128
 1978 0530 BE       		.byte	-66
 1979 0531 04       		.byte	4
 1980 0532 BF       		.byte	-65
 1981 0533 40       		.byte	64
 1982 0534 D6       		.byte	-42
 1983 0535 02       		.byte	2
 1984 0536 D7       		.byte	-41
 1985 0537 11       		.byte	17
 1986 0538 D8       		.byte	-40
 1987 0539 04       		.byte	4
 1988 053a D9       		.byte	-39
 1989 053b 04       		.byte	4
 1990 053c DB       		.byte	-37
 1991 053d 04       		.byte	4
 1992 053e DC       		.byte	-36
 1993 053f 11       		.byte	17
 1994 0540 DD       		.byte	-35
 1995 0541 10       		.byte	16
 1996 0542 DF       		.byte	-33
 1997 0543 01       		.byte	1
 1998 0544 02       		.byte	2
 1999 0545 88       		.byte	-120
 2000 0546 03       		.byte	3
 2001 0547 12       		.byte	18
 2002 0548 05       		.byte	5
 2003 0549 04       		.byte	4
 2004 054a 07       		.byte	7
 2005 054b 48       		.byte	72
 2006 054c 09       		.byte	9
 2007 054d 01       		.byte	1
 2008 054e 0A       		.byte	10
 2009 054f 16       		.byte	22
 2010 0550 0C       		.byte	12
 2011 0551 04       		.byte	4
 2012 0552 0D       		.byte	13
 2013 0553 81       		.byte	-127
 2014 0554 0E       		.byte	14
 2015 0555 80       		.byte	-128
 2016 0556 0F       		.byte	15
 2017 0557 08       		.byte	8
 2018 0558 10       		.byte	16
 2019 0559 10       		.byte	16
 2020 055a 12       		.byte	18
 2021 055b 04       		.byte	4
 2022 055c 13       		.byte	19
 2023 055d 42       		.byte	66
ARM GAS  C:\Users\kingi\AppData\Local\Temp\cc068PKu.s 			page 70


 2024 055e 14       		.byte	20
 2025 055f 80       		.byte	-128
 2026 0560 16       		.byte	22
 2027 0561 0C       		.byte	12
 2028 0562 17       		.byte	23
 2029 0563 80       		.byte	-128
 2030 0564 19       		.byte	25
 2031 0565 80       		.byte	-128
 2032 0566 1A       		.byte	26
 2033 0567 22       		.byte	34
 2034 0568 1B       		.byte	27
 2035 0569 40       		.byte	64
 2036 056a 1D       		.byte	29
 2037 056b 24       		.byte	36
 2038 056c 1E       		.byte	30
 2039 056d 80       		.byte	-128
 2040 056e 20       		.byte	32
 2041 056f 01       		.byte	1
 2042 0570 21       		.byte	33
 2043 0571 02       		.byte	2
 2044 0572 22       		.byte	34
 2045 0573 02       		.byte	2
 2046 0574 25       		.byte	37
 2047 0575 08       		.byte	8
 2048 0576 26       		.byte	38
 2049 0577 80       		.byte	-128
 2050 0578 27       		.byte	39
 2051 0579 10       		.byte	16
 2052 057a 28       		.byte	40
 2053 057b 18       		.byte	24
 2054 057c 29       		.byte	41
 2055 057d 40       		.byte	64
 2056 057e 2B       		.byte	43
 2057 057f 40       		.byte	64
 2058 0580 2D       		.byte	45
 2059 0581 01       		.byte	1
 2060 0582 2F       		.byte	47
 2061 0583 2A       		.byte	42
 2062 0584 31       		.byte	49
 2063 0585 08       		.byte	8
 2064 0586 32       		.byte	50
 2065 0587 80       		.byte	-128
 2066 0588 33       		.byte	51
 2067 0589 22       		.byte	34
 2068 058a 36       		.byte	54
 2069 058b 80       		.byte	-128
 2070 058c 37       		.byte	55
 2071 058d 16       		.byte	22
 2072 058e 38       		.byte	56
 2073 058f 28       		.byte	40
 2074 0590 39       		.byte	57
 2075 0591 01       		.byte	1
 2076 0592 3B       		.byte	59
 2077 0593 40       		.byte	64
 2078 0594 3C       		.byte	60
 2079 0595 01       		.byte	1
 2080 0596 3E       		.byte	62
ARM GAS  C:\Users\kingi\AppData\Local\Temp\cc068PKu.s 			page 71


 2081 0597 18       		.byte	24
 2082 0598 3F       		.byte	63
 2083 0599 40       		.byte	64
 2084 059a 40       		.byte	64
 2085 059b 30       		.byte	48
 2086 059c 45       		.byte	69
 2087 059d 02       		.byte	2
 2088 059e 46       		.byte	70
 2089 059f 80       		.byte	-128
 2090 05a0 5A       		.byte	90
 2091 05a1 20       		.byte	32
 2092 05a2 68       		.byte	104
 2093 05a3 16       		.byte	22
 2094 05a4 69       		.byte	105
 2095 05a5 41       		.byte	65
 2096 05a6 70       		.byte	112
 2097 05a7 14       		.byte	20
 2098 05a8 71       		.byte	113
 2099 05a9 40       		.byte	64
 2100 05aa 72       		.byte	114
 2101 05ab 18       		.byte	24
 2102 05ac 73       		.byte	115
 2103 05ad 02       		.byte	2
 2104 05ae 7C       		.byte	124
 2105 05af 80       		.byte	-128
 2106 05b0 7D       		.byte	125
 2107 05b1 80       		.byte	-128
 2108 05b2 80       		.byte	-128
 2109 05b3 02       		.byte	2
 2110 05b4 84       		.byte	-124
 2111 05b5 10       		.byte	16
 2112 05b6 8A       		.byte	-118
 2113 05b7 80       		.byte	-128
 2114 05b8 8D       		.byte	-115
 2115 05b9 08       		.byte	8
 2116 05ba 8E       		.byte	-114
 2117 05bb 80       		.byte	-128
 2118 05bc 90       		.byte	-112
 2119 05bd 40       		.byte	64
 2120 05be 91       		.byte	-111
 2121 05bf 14       		.byte	20
 2122 05c0 92       		.byte	-110
 2123 05c1 C9       		.byte	-55
 2124 05c2 93       		.byte	-109
 2125 05c3 75       		.byte	117
 2126 05c4 94       		.byte	-108
 2127 05c5 04       		.byte	4
 2128 05c6 95       		.byte	-107
 2129 05c7 42       		.byte	66
 2130 05c8 96       		.byte	-106
 2131 05c9 06       		.byte	6
 2132 05ca 97       		.byte	-105
 2133 05cb 80       		.byte	-128
 2134 05cc 98       		.byte	-104
 2135 05cd 15       		.byte	21
 2136 05ce 99       		.byte	-103
 2137 05cf 23       		.byte	35
ARM GAS  C:\Users\kingi\AppData\Local\Temp\cc068PKu.s 			page 72


 2138 05d0 9A       		.byte	-102
 2139 05d1 22       		.byte	34
 2140 05d2 9B       		.byte	-101
 2141 05d3 E5       		.byte	-27
 2142 05d4 9C       		.byte	-100
 2143 05d5 20       		.byte	32
 2144 05d6 9D       		.byte	-99
 2145 05d7 84       		.byte	-124
 2146 05d8 9E       		.byte	-98
 2147 05d9 C0       		.byte	-64
 2148 05da 9F       		.byte	-97
 2149 05db 08       		.byte	8
 2150 05dc A0       		.byte	-96
 2151 05dd 49       		.byte	73
 2152 05de A1       		.byte	-95
 2153 05df 41       		.byte	65
 2154 05e0 A2       		.byte	-94
 2155 05e1 31       		.byte	49
 2156 05e2 A3       		.byte	-93
 2157 05e3 86       		.byte	-122
 2158 05e4 A4       		.byte	-92
 2159 05e5 14       		.byte	20
 2160 05e6 A5       		.byte	-91
 2161 05e7 BC       		.byte	-68
 2162 05e8 A6       		.byte	-90
 2163 05e9 80       		.byte	-128
 2164 05ea A7       		.byte	-89
 2165 05eb 20       		.byte	32
 2166 05ec A8       		.byte	-88
 2167 05ed 04       		.byte	4
 2168 05ee AA       		.byte	-86
 2169 05ef 01       		.byte	1
 2170 05f0 AC       		.byte	-84
 2171 05f1 80       		.byte	-128
 2172 05f2 AD       		.byte	-83
 2173 05f3 40       		.byte	64
 2174 05f4 AF       		.byte	-81
 2175 05f5 80       		.byte	-128
 2176 05f6 B0       		.byte	-80
 2177 05f7 22       		.byte	34
 2178 05f8 B1       		.byte	-79
 2179 05f9 10       		.byte	16
 2180 05fa B3       		.byte	-77
 2181 05fb 02       		.byte	2
 2182 05fc B4       		.byte	-76
 2183 05fd 10       		.byte	16
 2184 05fe B5       		.byte	-75
 2185 05ff 10       		.byte	16
 2186 0600 C0       		.byte	-64
 2187 0601 7F       		.byte	127
 2188 0602 C2       		.byte	-62
 2189 0603 FF       		.byte	-1
 2190 0604 C4       		.byte	-60
 2191 0605 9F       		.byte	-97
 2192 0606 CA       		.byte	-54
 2193 0607 FF       		.byte	-1
 2194 0608 CC       		.byte	-52
ARM GAS  C:\Users\kingi\AppData\Local\Temp\cc068PKu.s 			page 73


 2195 0609 FF       		.byte	-1
 2196 060a CE       		.byte	-50
 2197 060b FF       		.byte	-1
 2198 060c D6       		.byte	-42
 2199 060d 04       		.byte	4
 2200 060e E0       		.byte	-32
 2201 060f 0C       		.byte	12
 2202 0610 EA       		.byte	-22
 2203 0611 04       		.byte	4
 2204 0612 EC       		.byte	-20
 2205 0613 01       		.byte	1
 2206 0614 EE       		.byte	-18
 2207 0615 0A       		.byte	10
 2208 0616 80       		.byte	-128
 2209 0617 04       		.byte	4
 2210 0618 84       		.byte	-124
 2211 0619 80       		.byte	-128
 2212 061a 8A       		.byte	-118
 2213 061b 10       		.byte	16
 2214 061c 8D       		.byte	-115
 2215 061d 18       		.byte	24
 2216 061e 8E       		.byte	-114
 2217 061f 80       		.byte	-128
 2218 0620 90       		.byte	-112
 2219 0621 20       		.byte	32
 2220 0622 92       		.byte	-110
 2221 0623 04       		.byte	4
 2222 0624 93       		.byte	-109
 2223 0625 08       		.byte	8
 2224 0626 94       		.byte	-108
 2225 0627 84       		.byte	-124
 2226 0628 95       		.byte	-107
 2227 0629 10       		.byte	16
 2228 062a 96       		.byte	-106
 2229 062b 40       		.byte	64
 2230 062c 97       		.byte	-105
 2231 062d 01       		.byte	1
 2232 062e 9C       		.byte	-100
 2233 062f 11       		.byte	17
 2234 0630 9D       		.byte	-99
 2235 0631 08       		.byte	8
 2236 0632 9E       		.byte	-98
 2237 0633 90       		.byte	-112
 2238 0634 9F       		.byte	-97
 2239 0635 10       		.byte	16
 2240 0636 A4       		.byte	-92
 2241 0637 80       		.byte	-128
 2242 0638 A5       		.byte	-91
 2243 0639 10       		.byte	16
 2244 063a A6       		.byte	-90
 2245 063b 10       		.byte	16
 2246 063c A8       		.byte	-88
 2247 063d 02       		.byte	2
 2248 063e AA       		.byte	-86
 2249 063f 08       		.byte	8
 2250 0640 AE       		.byte	-82
 2251 0641 6C       		.byte	108
ARM GAS  C:\Users\kingi\AppData\Local\Temp\cc068PKu.s 			page 74


 2252 0642 B0       		.byte	-80
 2253 0643 08       		.byte	8
 2254 0644 B2       		.byte	-78
 2255 0645 41       		.byte	65
 2256 0646 B3       		.byte	-77
 2257 0647 C0       		.byte	-64
 2258 0648 B4       		.byte	-76
 2259 0649 A0       		.byte	-96
 2260 064a E0       		.byte	-32
 2261 064b C0       		.byte	-64
 2262 064c E4       		.byte	-28
 2263 064d 10       		.byte	16
 2264 064e E8       		.byte	-24
 2265 064f D0       		.byte	-48
 2266 0650 EA       		.byte	-22
 2267 0651 20       		.byte	32
 2268 0652 EC       		.byte	-20
 2269 0653 A0       		.byte	-96
 2270 0654 00       		.byte	0
 2271 0655 02       		.byte	2
 2272 0656 02       		.byte	2
 2273 0657 01       		.byte	1
 2274 0658 03       		.byte	3
 2275 0659 04       		.byte	4
 2276 065a 05       		.byte	5
 2277 065b 78       		.byte	120
 2278 065c 09       		.byte	9
 2279 065d 63       		.byte	99
 2280 065e 0B       		.byte	11
 2281 065f 18       		.byte	24
 2282 0660 0D       		.byte	13
 2283 0661 63       		.byte	99
 2284 0662 0F       		.byte	15
 2285 0663 10       		.byte	16
 2286 0664 10       		.byte	16
 2287 0665 01       		.byte	1
 2288 0666 11       		.byte	17
 2289 0667 21       		.byte	33
 2290 0668 12       		.byte	18
 2291 0669 06       		.byte	6
 2292 066a 15       		.byte	21
 2293 066b 42       		.byte	66
 2294 066c 19       		.byte	25
 2295 066d 18       		.byte	24
 2296 066e 1B       		.byte	27
 2297 066f 63       		.byte	99
 2298 0670 1F       		.byte	31
 2299 0671 1B       		.byte	27
 2300 0672 21       		.byte	33
 2301 0673 03       		.byte	3
 2302 0674 25       		.byte	37
 2303 0675 63       		.byte	99
 2304 0676 29       		.byte	41
 2305 0677 02       		.byte	2
 2306 0678 2F       		.byte	47
 2307 0679 0B       		.byte	11
 2308 067a 30       		.byte	48
ARM GAS  C:\Users\kingi\AppData\Local\Temp\cc068PKu.s 			page 75


 2309 067b 04       		.byte	4
 2310 067c 33       		.byte	51
 2311 067d 07       		.byte	7
 2312 067e 35       		.byte	53
 2313 067f 78       		.byte	120
 2314 0680 36       		.byte	54
 2315 0681 03       		.byte	3
 2316 0682 3B       		.byte	59
 2317 0683 28       		.byte	40
 2318 0684 3E       		.byte	62
 2319 0685 40       		.byte	64
 2320 0686 58       		.byte	88
 2321 0687 04       		.byte	4
 2322 0688 59       		.byte	89
 2323 0689 04       		.byte	4
 2324 068a 5C       		.byte	92
 2325 068b 01       		.byte	1
 2326 068c 5F       		.byte	95
 2327 068d 01       		.byte	1
 2328 068e 82       		.byte	-126
 2329 068f 03       		.byte	3
 2330 0690 83       		.byte	-125
 2331 0691 08       		.byte	8
 2332 0692 84       		.byte	-124
 2333 0693 03       		.byte	3
 2334 0694 88       		.byte	-120
 2335 0695 03       		.byte	3
 2336 0696 8A       		.byte	-118
 2337 0697 04       		.byte	4
 2338 0698 8D       		.byte	-115
 2339 0699 01       		.byte	1
 2340 069a 8E       		.byte	-114
 2341 069b 03       		.byte	3
 2342 069c 8F       		.byte	-113
 2343 069d 06       		.byte	6
 2344 069e 90       		.byte	-112
 2345 069f 03       		.byte	3
 2346 06a0 93       		.byte	-109
 2347 06a1 20       		.byte	32
 2348 06a2 96       		.byte	-106
 2349 06a3 03       		.byte	3
 2350 06a4 97       		.byte	-105
 2351 06a5 08       		.byte	8
 2352 06a6 9A       		.byte	-102
 2353 06a7 20       		.byte	32
 2354 06a8 9C       		.byte	-100
 2355 06a9 02       		.byte	2
 2356 06aa 9D       		.byte	-99
 2357 06ab 02       		.byte	2
 2358 06ac 9E       		.byte	-98
 2359 06ad 08       		.byte	8
 2360 06ae 9F       		.byte	-97
 2361 06af 01       		.byte	1
 2362 06b0 A0       		.byte	-96
 2363 06b1 01       		.byte	1
 2364 06b2 A1       		.byte	-95
 2365 06b3 08       		.byte	8
ARM GAS  C:\Users\kingi\AppData\Local\Temp\cc068PKu.s 			page 76


 2366 06b4 A2       		.byte	-94
 2367 06b5 18       		.byte	24
 2368 06b6 A3       		.byte	-93
 2369 06b7 30       		.byte	48
 2370 06b8 A4       		.byte	-92
 2371 06b9 40       		.byte	64
 2372 06ba A9       		.byte	-87
 2373 06bb 10       		.byte	16
 2374 06bc AA       		.byte	-86
 2375 06bd 20       		.byte	32
 2376 06be AC       		.byte	-84
 2377 06bf 20       		.byte	32
 2378 06c0 AE       		.byte	-82
 2379 06c1 40       		.byte	64
 2380 06c2 B0       		.byte	-80
 2381 06c3 0C       		.byte	12
 2382 06c4 B1       		.byte	-79
 2383 06c5 04       		.byte	4
 2384 06c6 B2       		.byte	-78
 2385 06c7 10       		.byte	16
 2386 06c8 B3       		.byte	-77
 2387 06c9 20       		.byte	32
 2388 06ca B4       		.byte	-76
 2389 06cb 60       		.byte	96
 2390 06cc B5       		.byte	-75
 2391 06cd 18       		.byte	24
 2392 06ce B6       		.byte	-74
 2393 06cf 03       		.byte	3
 2394 06d0 B7       		.byte	-73
 2395 06d1 03       		.byte	3
 2396 06d2 BE       		.byte	-66
 2397 06d3 11       		.byte	17
 2398 06d4 BF       		.byte	-65
 2399 06d5 54       		.byte	84
 2400 06d6 D4       		.byte	-44
 2401 06d7 1B       		.byte	27
 2402 06d8 D8       		.byte	-40
 2403 06d9 04       		.byte	4
 2404 06da D9       		.byte	-39
 2405 06db 04       		.byte	4
 2406 06dc DB       		.byte	-37
 2407 06dd 04       		.byte	4
 2408 06de DC       		.byte	-36
 2409 06df 21       		.byte	33
 2410 06e0 DD       		.byte	-35
 2411 06e1 20       		.byte	32
 2412 06e2 DF       		.byte	-33
 2413 06e3 05       		.byte	5
 2414 06e4 01       		.byte	1
 2415 06e5 02       		.byte	2
 2416 06e6 04       		.byte	4
 2417 06e7 20       		.byte	32
 2418 06e8 06       		.byte	6
 2419 06e9 80       		.byte	-128
 2420 06ea 07       		.byte	7
 2421 06eb 12       		.byte	18
 2422 06ec 0B       		.byte	11
ARM GAS  C:\Users\kingi\AppData\Local\Temp\cc068PKu.s 			page 77


 2423 06ed 80       		.byte	-128
 2424 06ee 0C       		.byte	12
 2425 06ef 01       		.byte	1
 2426 06f0 0D       		.byte	13
 2427 06f1 80       		.byte	-128
 2428 06f2 0E       		.byte	14
 2429 06f3 28       		.byte	40
 2430 06f4 15       		.byte	21
 2431 06f5 12       		.byte	18
 2432 06f6 16       		.byte	22
 2433 06f7 10       		.byte	16
 2434 06f8 17       		.byte	23
 2435 06f9 40       		.byte	64
 2436 06fa 19       		.byte	25
 2437 06fb 02       		.byte	2
 2438 06fc 1A       		.byte	26
 2439 06fd 02       		.byte	2
 2440 06fe 1E       		.byte	30
 2441 06ff 86       		.byte	-122
 2442 0700 1F       		.byte	31
 2443 0701 04       		.byte	4
 2444 0702 21       		.byte	33
 2445 0703 10       		.byte	16
 2446 0704 22       		.byte	34
 2447 0705 2C       		.byte	44
 2448 0706 25       		.byte	37
 2449 0707 40       		.byte	64
 2450 0708 27       		.byte	39
 2451 0709 A4       		.byte	-92
 2452 070a 29       		.byte	41
 2453 070b 44       		.byte	68
 2454 070c 2A       		.byte	42
 2455 070d 20       		.byte	32
 2456 070e 2B       		.byte	43
 2457 070f 80       		.byte	-128
 2458 0710 2C       		.byte	44
 2459 0711 08       		.byte	8
 2460 0712 2F       		.byte	47
 2461 0713 40       		.byte	64
 2462 0714 30       		.byte	48
 2463 0715 60       		.byte	96
 2464 0716 31       		.byte	49
 2465 0717 08       		.byte	8
 2466 0718 33       		.byte	51
 2467 0719 02       		.byte	2
 2468 071a 36       		.byte	54
 2469 071b 02       		.byte	2
 2470 071c 37       		.byte	55
 2471 071d 88       		.byte	-120
 2472 071e 38       		.byte	56
 2473 071f 02       		.byte	2
 2474 0720 39       		.byte	57
 2475 0721 24       		.byte	36
 2476 0722 3A       		.byte	58
 2477 0723 40       		.byte	64
 2478 0724 3C       		.byte	60
 2479 0725 02       		.byte	2
ARM GAS  C:\Users\kingi\AppData\Local\Temp\cc068PKu.s 			page 78


 2480 0726 3F       		.byte	63
 2481 0727 40       		.byte	64
 2482 0728 59       		.byte	89
 2483 0729 40       		.byte	64
 2484 072a 5B       		.byte	91
 2485 072b 40       		.byte	64
 2486 072c 5C       		.byte	92
 2487 072d A0       		.byte	-96
 2488 072e 5F       		.byte	95
 2489 072f 01       		.byte	1
 2490 0730 64       		.byte	100
 2491 0731 0A       		.byte	10
 2492 0732 7D       		.byte	125
 2493 0733 80       		.byte	-128
 2494 0734 82       		.byte	-126
 2495 0735 40       		.byte	64
 2496 0736 84       		.byte	-124
 2497 0737 01       		.byte	1
 2498 0738 85       		.byte	-123
 2499 0739 10       		.byte	16
 2500 073a 87       		.byte	-121
 2501 073b 0A       		.byte	10
 2502 073c 8A       		.byte	-118
 2503 073d 02       		.byte	2
 2504 073e 8B       		.byte	-117
 2505 073f 20       		.byte	32
 2506 0740 8E       		.byte	-114
 2507 0741 04       		.byte	4
 2508 0742 8F       		.byte	-113
 2509 0743 40       		.byte	64
 2510 0744 90       		.byte	-112
 2511 0745 22       		.byte	34
 2512 0746 91       		.byte	-111
 2513 0747 06       		.byte	6
 2514 0748 93       		.byte	-109
 2515 0749 40       		.byte	64
 2516 074a 94       		.byte	-108
 2517 074b 84       		.byte	-124
 2518 074c 95       		.byte	-107
 2519 074d 20       		.byte	32
 2520 074e 96       		.byte	-106
 2521 074f CB       		.byte	-53
 2522 0750 98       		.byte	-104
 2523 0751 48       		.byte	72
 2524 0752 99       		.byte	-103
 2525 0753 04       		.byte	4
 2526 0754 9A       		.byte	-102
 2527 0755 20       		.byte	32
 2528 0756 9C       		.byte	-100
 2529 0757 11       		.byte	17
 2530 0758 9D       		.byte	-99
 2531 0759 08       		.byte	8
 2532 075a 9F       		.byte	-97
 2533 075b 64       		.byte	100
 2534 075c A0       		.byte	-96
 2535 075d 20       		.byte	32
 2536 075e A1       		.byte	-95
ARM GAS  C:\Users\kingi\AppData\Local\Temp\cc068PKu.s 			page 79


 2537 075f 88       		.byte	-120
 2538 0760 A3       		.byte	-93
 2539 0761 02       		.byte	2
 2540 0762 A4       		.byte	-92
 2541 0763 80       		.byte	-128
 2542 0764 A5       		.byte	-91
 2543 0765 10       		.byte	16
 2544 0766 A6       		.byte	-90
 2545 0767 21       		.byte	33
 2546 0768 A7       		.byte	-89
 2547 0769 20       		.byte	32
 2548 076a A9       		.byte	-87
 2549 076b 02       		.byte	2
 2550 076c AB       		.byte	-85
 2551 076d 80       		.byte	-128
 2552 076e AC       		.byte	-84
 2553 076f 88       		.byte	-120
 2554 0770 AD       		.byte	-83
 2555 0771 01       		.byte	1
 2556 0772 AF       		.byte	-81
 2557 0773 01       		.byte	1
 2558 0774 B0       		.byte	-80
 2559 0775 08       		.byte	8
 2560 0776 B3       		.byte	-77
 2561 0777 90       		.byte	-112
 2562 0778 B4       		.byte	-76
 2563 0779 42       		.byte	66
 2564 077a B5       		.byte	-75
 2565 077b 0C       		.byte	12
 2566 077c C0       		.byte	-64
 2567 077d F8       		.byte	-8
 2568 077e C2       		.byte	-62
 2569 077f F8       		.byte	-8
 2570 0780 C4       		.byte	-60
 2571 0781 F0       		.byte	-16
 2572 0782 CA       		.byte	-54
 2573 0783 AF       		.byte	-81
 2574 0784 CC       		.byte	-52
 2575 0785 DF       		.byte	-33
 2576 0786 CE       		.byte	-50
 2577 0787 9F       		.byte	-97
 2578 0788 D6       		.byte	-42
 2579 0789 B0       		.byte	-80
 2580 078a D8       		.byte	-40
 2581 078b 30       		.byte	48
 2582 078c DE       		.byte	-34
 2583 078d 10       		.byte	16
 2584 078e E0       		.byte	-32
 2585 078f D0       		.byte	-48
 2586 0790 E4       		.byte	-28
 2587 0791 20       		.byte	32
 2588 0792 E8       		.byte	-24
 2589 0793 D0       		.byte	-48
 2590 0794 EC       		.byte	-20
 2591 0795 B0       		.byte	-80
 2592 0796 02       		.byte	2
 2593 0797 01       		.byte	1
ARM GAS  C:\Users\kingi\AppData\Local\Temp\cc068PKu.s 			page 80


 2594 0798 03       		.byte	3
 2595 0799 01       		.byte	1
 2596 079a 05       		.byte	5
 2597 079b 01       		.byte	1
 2598 079c 06       		.byte	6
 2599 079d 01       		.byte	1
 2600 079e 08       		.byte	8
 2601 079f 28       		.byte	40
 2602 07a0 0A       		.byte	10
 2603 07a1 10       		.byte	16
 2604 07a2 0B       		.byte	11
 2605 07a3 01       		.byte	1
 2606 07a4 0C       		.byte	12
 2607 07a5 48       		.byte	72
 2608 07a6 0E       		.byte	14
 2609 07a7 90       		.byte	-112
 2610 07a8 0F       		.byte	15
 2611 07a9 01       		.byte	1
 2612 07aa 11       		.byte	17
 2613 07ab 50       		.byte	80
 2614 07ac 13       		.byte	19
 2615 07ad A0       		.byte	-96
 2616 07ae 15       		.byte	21
 2617 07af 18       		.byte	24
 2618 07b0 16       		.byte	22
 2619 07b1 02       		.byte	2
 2620 07b2 17       		.byte	23
 2621 07b3 20       		.byte	32
 2622 07b4 1A       		.byte	26
 2623 07b5 01       		.byte	1
 2624 07b6 1B       		.byte	27
 2625 07b7 04       		.byte	4
 2626 07b8 1C       		.byte	28
 2627 07b9 01       		.byte	1
 2628 07ba 1D       		.byte	29
 2629 07bb 48       		.byte	72
 2630 07bc 1F       		.byte	31
 2631 07bd A0       		.byte	-96
 2632 07be 20       		.byte	32
 2633 07bf 60       		.byte	96
 2634 07c0 22       		.byte	34
 2635 07c1 90       		.byte	-112
 2636 07c2 23       		.byte	35
 2637 07c3 02       		.byte	2
 2638 07c4 25       		.byte	37
 2639 07c5 01       		.byte	1
 2640 07c6 26       		.byte	38
 2641 07c7 01       		.byte	1
 2642 07c8 28       		.byte	40
 2643 07c9 01       		.byte	1
 2644 07ca 2E       		.byte	46
 2645 07cb 04       		.byte	4
 2646 07cc 2F       		.byte	47
 2647 07cd 01       		.byte	1
 2648 07ce 32       		.byte	50
 2649 07cf 3F       		.byte	63
 2650 07d0 33       		.byte	51
ARM GAS  C:\Users\kingi\AppData\Local\Temp\cc068PKu.s 			page 81


 2651 07d1 3F       		.byte	63
 2652 07d2 36       		.byte	54
 2653 07d3 C7       		.byte	-57
 2654 07d4 37       		.byte	55
 2655 07d5 C7       		.byte	-57
 2656 07d6 38       		.byte	56
 2657 07d7 88       		.byte	-120
 2658 07d8 39       		.byte	57
 2659 07d9 88       		.byte	-120
 2660 07da 54       		.byte	84
 2661 07db 1B       		.byte	27
 2662 07dc 58       		.byte	88
 2663 07dd 04       		.byte	4
 2664 07de 59       		.byte	89
 2665 07df 04       		.byte	4
 2666 07e0 5B       		.byte	91
 2667 07e1 04       		.byte	4
 2668 07e2 5C       		.byte	92
 2669 07e3 10       		.byte	16
 2670 07e4 5D       		.byte	93
 2671 07e5 10       		.byte	16
 2672 07e6 5F       		.byte	95
 2673 07e7 05       		.byte	5
 2674 07e8 80       		.byte	-128
 2675 07e9 02       		.byte	2
 2676 07ea 82       		.byte	-126
 2677 07eb 0C       		.byte	12
 2678 07ec 84       		.byte	-124
 2679 07ed F2       		.byte	-14
 2680 07ee 86       		.byte	-122
 2681 07ef 04       		.byte	4
 2682 07f0 8A       		.byte	-118
 2683 07f1 02       		.byte	2
 2684 07f2 8C       		.byte	-116
 2685 07f3 48       		.byte	72
 2686 07f4 8F       		.byte	-113
 2687 07f5 02       		.byte	2
 2688 07f6 90       		.byte	-112
 2689 07f7 C8       		.byte	-56
 2690 07f8 94       		.byte	-108
 2691 07f9 88       		.byte	-120
 2692 07fa 98       		.byte	-104
 2693 07fb CA       		.byte	-54
 2694 07fc 9A       		.byte	-102
 2695 07fd 24       		.byte	36
 2696 07fe 9C       		.byte	-100
 2697 07ff 32       		.byte	50
 2698 0800 9E       		.byte	-98
 2699 0801 CC       		.byte	-52
 2700 0802 9F       		.byte	-97
 2701 0803 01       		.byte	1
 2702 0804 A2       		.byte	-94
 2703 0805 3C       		.byte	60
 2704 0806 A4       		.byte	-92
 2705 0807 CE       		.byte	-50
 2706 0808 A6       		.byte	-90
 2707 0809 10       		.byte	16
ARM GAS  C:\Users\kingi\AppData\Local\Temp\cc068PKu.s 			page 82


 2708 080a A7       		.byte	-89
 2709 080b 02       		.byte	2
 2710 080c A8       		.byte	-88
 2711 080d 02       		.byte	2
 2712 080e AA       		.byte	-86
 2713 080f 01       		.byte	1
 2714 0810 AC       		.byte	-84
 2715 0811 08       		.byte	8
 2716 0812 B1       		.byte	-79
 2717 0813 01       		.byte	1
 2718 0814 B4       		.byte	-76
 2719 0815 01       		.byte	1
 2720 0816 B6       		.byte	-74
 2721 0817 FE       		.byte	-2
 2722 0818 B7       		.byte	-73
 2723 0819 02       		.byte	2
 2724 081a BE       		.byte	-66
 2725 081b 40       		.byte	64
 2726 081c BF       		.byte	-65
 2727 081d 40       		.byte	64
 2728 081e D8       		.byte	-40
 2729 081f 04       		.byte	4
 2730 0820 D9       		.byte	-39
 2731 0821 04       		.byte	4
 2732 0822 DC       		.byte	-36
 2733 0823 20       		.byte	32
 2734 0824 DF       		.byte	-33
 2735 0825 01       		.byte	1
 2736 0826 00       		.byte	0
 2737 0827 80       		.byte	-128
 2738 0828 01       		.byte	1
 2739 0829 24       		.byte	36
 2740 082a 03       		.byte	3
 2741 082b 52       		.byte	82
 2742 082c 04       		.byte	4
 2743 082d 10       		.byte	16
 2744 082e 05       		.byte	5
 2745 082f 40       		.byte	64
 2746 0830 07       		.byte	7
 2747 0831 51       		.byte	81
 2748 0832 08       		.byte	8
 2749 0833 22       		.byte	34
 2750 0834 09       		.byte	9
 2751 0835 48       		.byte	72
 2752 0836 0A       		.byte	10
 2753 0837 08       		.byte	8
 2754 0838 0C       		.byte	12
 2755 0839 20       		.byte	32
 2756 083a 0F       		.byte	15
 2757 083b 12       		.byte	18
 2758 083c 10       		.byte	16
 2759 083d 4A       		.byte	74
 2760 083e 11       		.byte	17
 2761 083f 02       		.byte	2
 2762 0840 12       		.byte	18
 2763 0841 20       		.byte	32
 2764 0842 14       		.byte	20
ARM GAS  C:\Users\kingi\AppData\Local\Temp\cc068PKu.s 			page 83


 2765 0843 20       		.byte	32
 2766 0844 15       		.byte	21
 2767 0845 21       		.byte	33
 2768 0846 17       		.byte	23
 2769 0847 80       		.byte	-128
 2770 0848 18       		.byte	24
 2771 0849 02       		.byte	2
 2772 084a 19       		.byte	25
 2773 084b 20       		.byte	32
 2774 084c 1C       		.byte	28
 2775 084d 10       		.byte	16
 2776 084e 1F       		.byte	31
 2777 084f 88       		.byte	-120
 2778 0850 21       		.byte	33
 2779 0851 02       		.byte	2
 2780 0852 23       		.byte	35
 2781 0853 01       		.byte	1
 2782 0854 24       		.byte	36
 2783 0855 20       		.byte	32
 2784 0856 25       		.byte	37
 2785 0857 80       		.byte	-128
 2786 0858 26       		.byte	38
 2787 0859 04       		.byte	4
 2788 085a 27       		.byte	39
 2789 085b 02       		.byte	2
 2790 085c 2B       		.byte	43
 2791 085d 20       		.byte	32
 2792 085e 2C       		.byte	44
 2793 085f 81       		.byte	-127
 2794 0860 2D       		.byte	45
 2795 0861 08       		.byte	8
 2796 0862 30       		.byte	48
 2797 0863 04       		.byte	4
 2798 0864 32       		.byte	50
 2799 0865 40       		.byte	64
 2800 0866 33       		.byte	51
 2801 0867 04       		.byte	4
 2802 0868 34       		.byte	52
 2803 0869 90       		.byte	-112
 2804 086a 36       		.byte	54
 2805 086b 04       		.byte	4
 2806 086c 37       		.byte	55
 2807 086d 02       		.byte	2
 2808 086e 38       		.byte	56
 2809 086f 80       		.byte	-128
 2810 0870 3C       		.byte	60
 2811 0871 04       		.byte	4
 2812 0872 3D       		.byte	61
 2813 0873 20       		.byte	32
 2814 0874 3E       		.byte	62
 2815 0875 41       		.byte	65
 2816 0876 5C       		.byte	92
 2817 0877 40       		.byte	64
 2818 0878 5E       		.byte	94
 2819 0879 02       		.byte	2
 2820 087a 5F       		.byte	95
 2821 087b 20       		.byte	32
ARM GAS  C:\Users\kingi\AppData\Local\Temp\cc068PKu.s 			page 84


 2822 087c 64       		.byte	100
 2823 087d 04       		.byte	4
 2824 087e 67       		.byte	103
 2825 087f 01       		.byte	1
 2826 0880 79       		.byte	121
 2827 0881 01       		.byte	1
 2828 0882 7B       		.byte	123
 2829 0883 80       		.byte	-128
 2830 0884 7E       		.byte	126
 2831 0885 01       		.byte	1
 2832 0886 81       		.byte	-127
 2833 0887 80       		.byte	-128
 2834 0888 84       		.byte	-124
 2835 0889 20       		.byte	32
 2836 088a 85       		.byte	-123
 2837 088b 40       		.byte	64
 2838 088c 87       		.byte	-121
 2839 088d 09       		.byte	9
 2840 088e 88       		.byte	-120
 2841 088f 42       		.byte	66
 2842 0890 8A       		.byte	-118
 2843 0891 20       		.byte	32
 2844 0892 91       		.byte	-111
 2845 0893 04       		.byte	4
 2846 0894 93       		.byte	-109
 2847 0895 40       		.byte	64
 2848 0896 99       		.byte	-103
 2849 0897 40       		.byte	64
 2850 0898 A1       		.byte	-95
 2851 0899 01       		.byte	1
 2852 089a AD       		.byte	-83
 2853 089b 04       		.byte	4
 2854 089c B1       		.byte	-79
 2855 089d 40       		.byte	64
 2856 089e B5       		.byte	-75
 2857 089f 01       		.byte	1
 2858 08a0 C0       		.byte	-64
 2859 08a1 FF       		.byte	-1
 2860 08a2 C2       		.byte	-62
 2861 08a3 EF       		.byte	-17
 2862 08a4 C4       		.byte	-60
 2863 08a5 FF       		.byte	-1
 2864 08a6 CA       		.byte	-54
 2865 08a7 D2       		.byte	-46
 2866 08a8 CC       		.byte	-52
 2867 08a9 F8       		.byte	-8
 2868 08aa CE       		.byte	-50
 2869 08ab F8       		.byte	-8
 2870 08ac D6       		.byte	-42
 2871 08ad B0       		.byte	-80
 2872 08ae D8       		.byte	-40
 2873 08af 30       		.byte	48
 2874 08b0 DE       		.byte	-34
 2875 08b1 10       		.byte	16
 2876 08b2 E4       		.byte	-28
 2877 08b3 A0       		.byte	-96
 2878 08b4 E8       		.byte	-24
ARM GAS  C:\Users\kingi\AppData\Local\Temp\cc068PKu.s 			page 85


 2879 08b5 90       		.byte	-112
 2880 08b6 8B       		.byte	-117
 2881 08b7 40       		.byte	64
 2882 08b8 E0       		.byte	-32
 2883 08b9 20       		.byte	32
 2884 08ba 01       		.byte	1
 2885 08bb 07       		.byte	7
 2886 08bc 05       		.byte	5
 2887 08bd 10       		.byte	16
 2888 08be 06       		.byte	6
 2889 08bf 04       		.byte	4
 2890 08c0 09       		.byte	9
 2891 08c1 40       		.byte	64
 2892 08c2 0B       		.byte	11
 2893 08c3 04       		.byte	4
 2894 08c4 0C       		.byte	12
 2895 08c5 02       		.byte	2
 2896 08c6 0D       		.byte	13
 2897 08c7 B3       		.byte	-77
 2898 08c8 0E       		.byte	14
 2899 08c9 01       		.byte	1
 2900 08ca 0F       		.byte	15
 2901 08cb 08       		.byte	8
 2902 08cc 10       		.byte	16
 2903 08cd 01       		.byte	1
 2904 08ce 11       		.byte	17
 2905 08cf 08       		.byte	8
 2906 08d0 12       		.byte	18
 2907 08d1 02       		.byte	2
 2908 08d2 13       		.byte	19
 2909 08d3 83       		.byte	-125
 2910 08d4 15       		.byte	21
 2911 08d5 09       		.byte	9
 2912 08d6 17       		.byte	23
 2913 08d7 B0       		.byte	-80
 2914 08d8 1B       		.byte	27
 2915 08d9 8A       		.byte	-118
 2916 08da 1D       		.byte	29
 2917 08db 20       		.byte	32
 2918 08dc 21       		.byte	33
 2919 08dd 3B       		.byte	59
 2920 08de 23       		.byte	35
 2921 08df 80       		.byte	-128
 2922 08e0 25       		.byte	37
 2923 08e1 30       		.byte	48
 2924 08e2 26       		.byte	38
 2925 08e3 04       		.byte	4
 2926 08e4 29       		.byte	41
 2927 08e5 38       		.byte	56
 2928 08e6 2B       		.byte	43
 2929 08e7 83       		.byte	-125
 2930 08e8 2F       		.byte	47
 2931 08e9 80       		.byte	-128
 2932 08ea 30       		.byte	48
 2933 08eb 03       		.byte	3
 2934 08ec 31       		.byte	49
 2935 08ed 40       		.byte	64
ARM GAS  C:\Users\kingi\AppData\Local\Temp\cc068PKu.s 			page 86


 2936 08ee 33       		.byte	51
 2937 08ef 07       		.byte	7
 2938 08f0 35       		.byte	53
 2939 08f1 38       		.byte	56
 2940 08f2 36       		.byte	54
 2941 08f3 04       		.byte	4
 2942 08f4 37       		.byte	55
 2943 08f5 80       		.byte	-128
 2944 08f6 3E       		.byte	62
 2945 08f7 41       		.byte	65
 2946 08f8 3F       		.byte	63
 2947 08f9 41       		.byte	65
 2948 08fa 54       		.byte	84
 2949 08fb 1B       		.byte	27
 2950 08fc 58       		.byte	88
 2951 08fd 04       		.byte	4
 2952 08fe 59       		.byte	89
 2953 08ff 04       		.byte	4
 2954 0900 5B       		.byte	91
 2955 0901 04       		.byte	4
 2956 0902 5F       		.byte	95
 2957 0903 05       		.byte	5
 2958 0904 80       		.byte	-128
 2959 0905 20       		.byte	32
 2960 0906 82       		.byte	-126
 2961 0907 C2       		.byte	-62
 2962 0908 83       		.byte	-125
 2963 0909 01       		.byte	1
 2964 090a 84       		.byte	-124
 2965 090b C4       		.byte	-60
 2966 090c 85       		.byte	-123
 2967 090d 28       		.byte	40
 2968 090e 86       		.byte	-122
 2969 090f 02       		.byte	2
 2970 0910 87       		.byte	-121
 2971 0911 10       		.byte	16
 2972 0912 88       		.byte	-120
 2973 0913 80       		.byte	-128
 2974 0914 89       		.byte	-119
 2975 0915 60       		.byte	96
 2976 0916 8B       		.byte	-117
 2977 0917 90       		.byte	-112
 2978 0918 8E       		.byte	-114
 2979 0919 C0       		.byte	-64
 2980 091a 8F       		.byte	-113
 2981 091b 01       		.byte	1
 2982 091c 90       		.byte	-112
 2983 091d 01       		.byte	1
 2984 091e 91       		.byte	-111
 2985 091f 48       		.byte	72
 2986 0920 92       		.byte	-110
 2987 0921 02       		.byte	2
 2988 0922 93       		.byte	-109
 2989 0923 90       		.byte	-112
 2990 0924 94       		.byte	-108
 2991 0925 3F       		.byte	63
 2992 0926 97       		.byte	-105
ARM GAS  C:\Users\kingi\AppData\Local\Temp\cc068PKu.s 			page 87


 2993 0927 01       		.byte	1
 2994 0928 98       		.byte	-104
 2995 0929 C0       		.byte	-64
 2996 092a 9B       		.byte	-101
 2997 092b 04       		.byte	4
 2998 092c 9C       		.byte	-100
 2999 092d 40       		.byte	64
 3000 092e 9F       		.byte	-97
 3001 092f 01       		.byte	1
 3002 0930 A0       		.byte	-96
 3003 0931 3D       		.byte	61
 3004 0932 A2       		.byte	-94
 3005 0933 02       		.byte	2
 3006 0934 A4       		.byte	-92
 3007 0935 3F       		.byte	63
 3008 0936 A7       		.byte	-89
 3009 0937 02       		.byte	2
 3010 0938 A8       		.byte	-88
 3011 0939 02       		.byte	2
 3012 093a A9       		.byte	-87
 3013 093b 01       		.byte	1
 3014 093c AA       		.byte	-86
 3015 093d D0       		.byte	-48
 3016 093e AC       		.byte	-84
 3017 093f C8       		.byte	-56
 3018 0940 AD       		.byte	-83
 3019 0941 01       		.byte	1
 3020 0942 AE       		.byte	-82
 3021 0943 02       		.byte	2
 3022 0944 B2       		.byte	-78
 3023 0945 C0       		.byte	-64
 3024 0946 B3       		.byte	-77
 3025 0947 3F       		.byte	63
 3026 0948 B5       		.byte	-75
 3027 0949 C7       		.byte	-57
 3028 094a B6       		.byte	-74
 3029 094b 3F       		.byte	63
 3030 094c B9       		.byte	-71
 3031 094d 28       		.byte	40
 3032 094e D8       		.byte	-40
 3033 094f 04       		.byte	4
 3034 0950 D9       		.byte	-39
 3035 0951 04       		.byte	4
 3036 0952 DC       		.byte	-36
 3037 0953 22       		.byte	34
 3038 0954 DF       		.byte	-33
 3039 0955 01       		.byte	1
 3040 0956 00       		.byte	0
 3041 0957 44       		.byte	68
 3042 0958 05       		.byte	5
 3043 0959 84       		.byte	-124
 3044 095a 07       		.byte	7
 3045 095b 44       		.byte	68
 3046 095c 09       		.byte	9
 3047 095d 02       		.byte	2
 3048 095e 0E       		.byte	14
 3049 095f 2A       		.byte	42
ARM GAS  C:\Users\kingi\AppData\Local\Temp\cc068PKu.s 			page 88


 3050 0960 0F       		.byte	15
 3051 0961 40       		.byte	64
 3052 0962 10       		.byte	16
 3053 0963 20       		.byte	32
 3054 0964 14       		.byte	20
 3055 0965 04       		.byte	4
 3056 0966 15       		.byte	21
 3057 0967 04       		.byte	4
 3058 0968 16       		.byte	22
 3059 0969 83       		.byte	-125
 3060 096a 17       		.byte	23
 3061 096b 01       		.byte	1
 3062 096c 19       		.byte	25
 3063 096d 40       		.byte	64
 3064 096e 1B       		.byte	27
 3065 096f 01       		.byte	1
 3066 0970 1D       		.byte	29
 3067 0971 88       		.byte	-120
 3068 0972 1F       		.byte	31
 3069 0973 40       		.byte	64
 3070 0974 20       		.byte	32
 3071 0975 14       		.byte	20
 3072 0976 21       		.byte	33
 3073 0977 21       		.byte	33
 3074 0978 22       		.byte	34
 3075 0979 40       		.byte	64
 3076 097a 25       		.byte	37
 3077 097b 14       		.byte	20
 3078 097c 26       		.byte	38
 3079 097d 04       		.byte	4
 3080 097e 27       		.byte	39
 3081 097f 04       		.byte	4
 3082 0980 29       		.byte	41
 3083 0981 20       		.byte	32
 3084 0982 2A       		.byte	42
 3085 0983 40       		.byte	64
 3086 0984 2B       		.byte	43
 3087 0985 90       		.byte	-112
 3088 0986 2C       		.byte	44
 3089 0987 04       		.byte	4
 3090 0988 2D       		.byte	45
 3091 0989 04       		.byte	4
 3092 098a 2E       		.byte	46
 3093 098b 80       		.byte	-128
 3094 098c 30       		.byte	48
 3095 098d 80       		.byte	-128
 3096 098e 31       		.byte	49
 3097 098f 02       		.byte	2
 3098 0990 32       		.byte	50
 3099 0991 24       		.byte	36
 3100 0992 35       		.byte	53
 3101 0993 04       		.byte	4
 3102 0994 36       		.byte	54
 3103 0995 11       		.byte	17
 3104 0996 37       		.byte	55
 3105 0997 40       		.byte	64
 3106 0998 38       		.byte	56
ARM GAS  C:\Users\kingi\AppData\Local\Temp\cc068PKu.s 			page 89


 3107 0999 12       		.byte	18
 3108 099a 39       		.byte	57
 3109 099b 40       		.byte	64
 3110 099c 3B       		.byte	59
 3111 099d 04       		.byte	4
 3112 099e 3D       		.byte	61
 3113 099f A8       		.byte	-88
 3114 09a0 3E       		.byte	62
 3115 09a1 02       		.byte	2
 3116 09a2 3F       		.byte	63
 3117 09a3 40       		.byte	64
 3118 09a4 49       		.byte	73
 3119 09a5 80       		.byte	-128
 3120 09a6 4B       		.byte	75
 3121 09a7 80       		.byte	-128
 3122 09a8 59       		.byte	89
 3123 09a9 01       		.byte	1
 3124 09aa 5A       		.byte	90
 3125 09ab 80       		.byte	-128
 3126 09ac 5B       		.byte	91
 3127 09ad 20       		.byte	32
 3128 09ae 61       		.byte	97
 3129 09af 40       		.byte	64
 3130 09b0 62       		.byte	98
 3131 09b1 10       		.byte	16
 3132 09b2 7B       		.byte	123
 3133 09b3 01       		.byte	1
 3134 09b4 85       		.byte	-123
 3135 09b5 01       		.byte	1
 3136 09b6 8D       		.byte	-115
 3137 09b7 08       		.byte	8
 3138 09b8 90       		.byte	-112
 3139 09b9 42       		.byte	66
 3140 09ba 91       		.byte	-111
 3141 09bb 44       		.byte	68
 3142 09bc 92       		.byte	-110
 3143 09bd 08       		.byte	8
 3144 09be 93       		.byte	-109
 3145 09bf 04       		.byte	4
 3146 09c0 97       		.byte	-105
 3147 09c1 80       		.byte	-128
 3148 09c2 98       		.byte	-104
 3149 09c3 04       		.byte	4
 3150 09c4 99       		.byte	-103
 3151 09c5 25       		.byte	37
 3152 09c6 9A       		.byte	-102
 3153 09c7 51       		.byte	81
 3154 09c8 9B       		.byte	-101
 3155 09c9 61       		.byte	97
 3156 09ca A0       		.byte	-96
 3157 09cb A0       		.byte	-96
 3158 09cc A1       		.byte	-95
 3159 09cd 42       		.byte	66
 3160 09ce A2       		.byte	-94
 3161 09cf 31       		.byte	49
 3162 09d0 A3       		.byte	-93
 3163 09d1 90       		.byte	-112
ARM GAS  C:\Users\kingi\AppData\Local\Temp\cc068PKu.s 			page 90


 3164 09d2 A5       		.byte	-91
 3165 09d3 B4       		.byte	-76
 3166 09d4 AA       		.byte	-86
 3167 09d5 01       		.byte	1
 3168 09d6 AB       		.byte	-85
 3169 09d7 08       		.byte	8
 3170 09d8 AE       		.byte	-82
 3171 09d9 04       		.byte	4
 3172 09da AF       		.byte	-81
 3173 09db 04       		.byte	4
 3174 09dc B2       		.byte	-78
 3175 09dd 10       		.byte	16
 3176 09de C0       		.byte	-64
 3177 09df F5       		.byte	-11
 3178 09e0 C2       		.byte	-62
 3179 09e1 F8       		.byte	-8
 3180 09e2 C4       		.byte	-60
 3181 09e3 F4       		.byte	-12
 3182 09e4 CA       		.byte	-54
 3183 09e5 7F       		.byte	127
 3184 09e6 CC       		.byte	-52
 3185 09e7 FF       		.byte	-1
 3186 09e8 CE       		.byte	-50
 3187 09e9 FF       		.byte	-1
 3188 09ea D6       		.byte	-42
 3189 09eb 0D       		.byte	13
 3190 09ec D8       		.byte	-40
 3191 09ed 0C       		.byte	12
 3192 09ee DE       		.byte	-34
 3193 09ef 08       		.byte	8
 3194 09f0 E8       		.byte	-24
 3195 09f1 02       		.byte	2
 3196 09f2 EC       		.byte	-20
 3197 09f3 08       		.byte	8
 3198 09f4 01       		.byte	1
 3199 09f5 40       		.byte	64
 3200 09f6 02       		.byte	2
 3201 09f7 7B       		.byte	123
 3202 09f8 04       		.byte	4
 3203 09f9 2B       		.byte	43
 3204 09fa 05       		.byte	5
 3205 09fb 03       		.byte	3
 3206 09fc 06       		.byte	6
 3207 09fd 40       		.byte	64
 3208 09fe 09       		.byte	9
 3209 09ff 02       		.byte	2
 3210 0a00 0A       		.byte	10
 3211 0a01 04       		.byte	4
 3212 0a02 0C       		.byte	12
 3213 0a03 39       		.byte	57
 3214 0a04 0D       		.byte	13
 3215 0a05 03       		.byte	3
 3216 0a06 0E       		.byte	14
 3217 0a07 40       		.byte	64
 3218 0a08 0F       		.byte	15
 3219 0a09 1C       		.byte	28
 3220 0a0a 11       		.byte	17
ARM GAS  C:\Users\kingi\AppData\Local\Temp\cc068PKu.s 			page 91


 3221 0a0b 01       		.byte	1
 3222 0a0c 12       		.byte	18
 3223 0a0d 72       		.byte	114
 3224 0a0e 14       		.byte	20
 3225 0a0f 18       		.byte	24
 3226 0a10 15       		.byte	21
 3227 0a11 0F       		.byte	15
 3228 0a12 16       		.byte	22
 3229 0a13 40       		.byte	64
 3230 0a14 17       		.byte	23
 3231 0a15 70       		.byte	112
 3232 0a16 18       		.byte	24
 3233 0a17 38       		.byte	56
 3234 0a18 19       		.byte	25
 3235 0a19 67       		.byte	103
 3236 0a1a 1A       		.byte	26
 3237 0a1b 43       		.byte	67
 3238 0a1c 1B       		.byte	27
 3239 0a1d 18       		.byte	24
 3240 0a1e 1C       		.byte	28
 3241 0a1f 5B       		.byte	91
 3242 0a20 1D       		.byte	29
 3243 0a21 6C       		.byte	108
 3244 0a22 1E       		.byte	30
 3245 0a23 20       		.byte	32
 3246 0a24 1F       		.byte	31
 3247 0a25 13       		.byte	19
 3248 0a26 20       		.byte	32
 3249 0a27 07       		.byte	7
 3250 0a28 23       		.byte	35
 3251 0a29 1F       		.byte	31
 3252 0a2a 25       		.byte	37
 3253 0a2b 20       		.byte	32
 3254 0a2c 29       		.byte	41
 3255 0a2d 60       		.byte	96
 3256 0a2e 2D       		.byte	45
 3257 0a2f 7B       		.byte	123
 3258 0a30 2F       		.byte	47
 3259 0a31 04       		.byte	4
 3260 0a32 32       		.byte	50
 3261 0a33 07       		.byte	7
 3262 0a34 34       		.byte	52
 3263 0a35 78       		.byte	120
 3264 0a36 35       		.byte	53
 3265 0a37 7F       		.byte	127
 3266 0a38 3A       		.byte	58
 3267 0a39 20       		.byte	32
 3268 0a3a 3B       		.byte	59
 3269 0a3b 20       		.byte	32
 3270 0a3c 58       		.byte	88
 3271 0a3d 04       		.byte	4
 3272 0a3e 59       		.byte	89
 3273 0a3f 04       		.byte	4
 3274 0a40 5C       		.byte	92
 3275 0a41 21       		.byte	33
 3276 0a42 5F       		.byte	95
 3277 0a43 01       		.byte	1
ARM GAS  C:\Users\kingi\AppData\Local\Temp\cc068PKu.s 			page 92


 3278 0a44 80       		.byte	-128
 3279 0a45 7F       		.byte	127
 3280 0a46 81       		.byte	-127
 3281 0a47 12       		.byte	18
 3282 0a48 85       		.byte	-123
 3283 0a49 13       		.byte	19
 3284 0a4a 86       		.byte	-122
 3285 0a4b 3F       		.byte	63
 3286 0a4c 88       		.byte	-120
 3287 0a4d 48       		.byte	72
 3288 0a4e 89       		.byte	-119
 3289 0a4f 68       		.byte	104
 3290 0a50 8A       		.byte	-118
 3291 0a51 17       		.byte	23
 3292 0a52 8B       		.byte	-117
 3293 0a53 13       		.byte	19
 3294 0a54 8C       		.byte	-116
 3295 0a55 12       		.byte	18
 3296 0a56 8F       		.byte	-113
 3297 0a57 3F       		.byte	63
 3298 0a58 92       		.byte	-110
 3299 0a59 3F       		.byte	63
 3300 0a5a 93       		.byte	-109
 3301 0a5b 3F       		.byte	63
 3302 0a5c 94       		.byte	-108
 3303 0a5d 13       		.byte	19
 3304 0a5e 95       		.byte	-107
 3305 0a5f 07       		.byte	7
 3306 0a60 98       		.byte	-104
 3307 0a61 68       		.byte	104
 3308 0a62 99       		.byte	-103
 3309 0a63 7F       		.byte	127
 3310 0a64 9A       		.byte	-102
 3311 0a65 13       		.byte	19
 3312 0a66 9D       		.byte	-99
 3313 0a67 77       		.byte	119
 3314 0a68 9E       		.byte	-98
 3315 0a69 24       		.byte	36
 3316 0a6a A0       		.byte	-96
 3317 0a6b 12       		.byte	18
 3318 0a6c A3       		.byte	-93
 3319 0a6d 24       		.byte	36
 3320 0a6e A4       		.byte	-92
 3321 0a6f 11       		.byte	17
 3322 0a70 A5       		.byte	-91
 3323 0a71 11       		.byte	17
 3324 0a72 A8       		.byte	-88
 3325 0a73 07       		.byte	7
 3326 0a74 A9       		.byte	-87
 3327 0a75 48       		.byte	72
 3328 0a76 AB       		.byte	-85
 3329 0a77 17       		.byte	23
 3330 0a78 AC       		.byte	-84
 3331 0a79 77       		.byte	119
 3332 0a7a AD       		.byte	-83
 3333 0a7b 12       		.byte	18
 3334 0a7c B1       		.byte	-79
ARM GAS  C:\Users\kingi\AppData\Local\Temp\cc068PKu.s 			page 93


 3335 0a7d 7F       		.byte	127
 3336 0a7e B6       		.byte	-74
 3337 0a7f 7F       		.byte	127
 3338 0a80 BE       		.byte	-66
 3339 0a81 40       		.byte	64
 3340 0a82 BF       		.byte	-65
 3341 0a83 01       		.byte	1
 3342 0a84 C0       		.byte	-64
 3343 0a85 35       		.byte	53
 3344 0a86 C1       		.byte	-63
 3345 0a87 06       		.byte	6
 3346 0a88 C2       		.byte	-62
 3347 0a89 02       		.byte	2
 3348 0a8a C4       		.byte	-60
 3349 0a8b 01       		.byte	1
 3350 0a8c C5       		.byte	-59
 3351 0a8d BC       		.byte	-68
 3352 0a8e C6       		.byte	-58
 3353 0a8f FD       		.byte	-3
 3354 0a90 C7       		.byte	-57
 3355 0a91 0E       		.byte	14
 3356 0a92 C8       		.byte	-56
 3357 0a93 1F       		.byte	31
 3358 0a94 C9       		.byte	-55
 3359 0a95 FF       		.byte	-1
 3360 0a96 CA       		.byte	-54
 3361 0a97 FF       		.byte	-1
 3362 0a98 CB       		.byte	-53
 3363 0a99 FF       		.byte	-1
 3364 0a9a CC       		.byte	-52
 3365 0a9b 62       		.byte	98
 3366 0a9c CD       		.byte	-51
 3367 0a9d A0       		.byte	-96
 3368 0a9e CE       		.byte	-50
 3369 0a9f F0       		.byte	-16
 3370 0aa0 CF       		.byte	-49
 3371 0aa1 41       		.byte	65
 3372 0aa2 D0       		.byte	-48
 3373 0aa3 0C       		.byte	12
 3374 0aa4 D8       		.byte	-40
 3375 0aa5 04       		.byte	4
 3376 0aa6 D9       		.byte	-39
 3377 0aa7 04       		.byte	4
 3378 0aa8 DA       		.byte	-38
 3379 0aa9 04       		.byte	4
 3380 0aaa DF       		.byte	-33
 3381 0aab 01       		.byte	1
 3382 0aac E6       		.byte	-26
 3383 0aad 40       		.byte	64
 3384 0aae E7       		.byte	-25
 3385 0aaf 02       		.byte	2
 3386 0ab0 E9       		.byte	-23
 3387 0ab1 10       		.byte	16
 3388 0ab2 EA       		.byte	-22
 3389 0ab3 30       		.byte	48
 3390 0ab4 EB       		.byte	-21
 3391 0ab5 10       		.byte	16
ARM GAS  C:\Users\kingi\AppData\Local\Temp\cc068PKu.s 			page 94


 3392 0ab6 ED       		.byte	-19
 3393 0ab7 10       		.byte	16
 3394 0ab8 EE       		.byte	-18
 3395 0ab9 10       		.byte	16
 3396 0aba EF       		.byte	-17
 3397 0abb 12       		.byte	18
 3398 0abc 00       		.byte	0
 3399 0abd 80       		.byte	-128
 3400 0abe 01       		.byte	1
 3401 0abf 20       		.byte	32
 3402 0ac0 02       		.byte	2
 3403 0ac1 20       		.byte	32
 3404 0ac2 03       		.byte	3
 3405 0ac3 80       		.byte	-128
 3406 0ac4 04       		.byte	4
 3407 0ac5 10       		.byte	16
 3408 0ac6 05       		.byte	5
 3409 0ac7 80       		.byte	-128
 3410 0ac8 06       		.byte	6
 3411 0ac9 80       		.byte	-128
 3412 0aca 07       		.byte	7
 3413 0acb 10       		.byte	16
 3414 0acc 08       		.byte	8
 3415 0acd 20       		.byte	32
 3416 0ace 09       		.byte	9
 3417 0acf 02       		.byte	2
 3418 0ad0 0A       		.byte	10
 3419 0ad1 88       		.byte	-120
 3420 0ad2 0B       		.byte	11
 3421 0ad3 12       		.byte	18
 3422 0ad4 0C       		.byte	12
 3423 0ad5 48       		.byte	72
 3424 0ad6 0E       		.byte	14
 3425 0ad7 04       		.byte	4
 3426 0ad8 0F       		.byte	15
 3427 0ad9 40       		.byte	64
 3428 0ada 10       		.byte	16
 3429 0adb 81       		.byte	-127
 3430 0adc 11       		.byte	17
 3431 0add 50       		.byte	80
 3432 0ade 13       		.byte	19
 3433 0adf 05       		.byte	5
 3434 0ae0 15       		.byte	21
 3435 0ae1 02       		.byte	2
 3436 0ae2 18       		.byte	24
 3437 0ae3 02       		.byte	2
 3438 0ae4 1C       		.byte	28
 3439 0ae5 10       		.byte	16
 3440 0ae6 1D       		.byte	29
 3441 0ae7 10       		.byte	16
 3442 0ae8 1E       		.byte	30
 3443 0ae9 04       		.byte	4
 3444 0aea 1F       		.byte	31
 3445 0aeb 20       		.byte	32
 3446 0aec 21       		.byte	33
 3447 0aed 01       		.byte	1
 3448 0aee 24       		.byte	36
ARM GAS  C:\Users\kingi\AppData\Local\Temp\cc068PKu.s 			page 95


 3449 0aef 04       		.byte	4
 3450 0af0 27       		.byte	39
 3451 0af1 08       		.byte	8
 3452 0af2 29       		.byte	41
 3453 0af3 52       		.byte	82
 3454 0af4 2A       		.byte	42
 3455 0af5 08       		.byte	8
 3456 0af6 2E       		.byte	46
 3457 0af7 60       		.byte	96
 3458 0af8 2F       		.byte	47
 3459 0af9 50       		.byte	80
 3460 0afa 30       		.byte	48
 3461 0afb 40       		.byte	64
 3462 0afc 32       		.byte	50
 3463 0afd 80       		.byte	-128
 3464 0afe 33       		.byte	51
 3465 0aff 16       		.byte	22
 3466 0b00 34       		.byte	52
 3467 0b01 10       		.byte	16
 3468 0b02 36       		.byte	54
 3469 0b03 01       		.byte	1
 3470 0b04 37       		.byte	55
 3471 0b05 48       		.byte	72
 3472 0b06 38       		.byte	56
 3473 0b07 28       		.byte	40
 3474 0b08 39       		.byte	57
 3475 0b09 01       		.byte	1
 3476 0b0a 3B       		.byte	59
 3477 0b0b 40       		.byte	64
 3478 0b0c 3D       		.byte	61
 3479 0b0d A8       		.byte	-88
 3480 0b0e 3E       		.byte	62
 3481 0b0f 02       		.byte	2
 3482 0b10 40       		.byte	64
 3483 0b11 20       		.byte	32
 3484 0b12 41       		.byte	65
 3485 0b13 20       		.byte	32
 3486 0b14 42       		.byte	66
 3487 0b15 81       		.byte	-127
 3488 0b16 43       		.byte	67
 3489 0b17 02       		.byte	2
 3490 0b18 48       		.byte	72
 3491 0b19 21       		.byte	33
 3492 0b1a 49       		.byte	73
 3493 0b1b 20       		.byte	32
 3494 0b1c 4B       		.byte	75
 3495 0b1d 02       		.byte	2
 3496 0b1e 4F       		.byte	79
 3497 0b1f 30       		.byte	48
 3498 0b20 51       		.byte	81
 3499 0b21 10       		.byte	16
 3500 0b22 52       		.byte	82
 3501 0b23 40       		.byte	64
 3502 0b24 53       		.byte	83
 3503 0b25 04       		.byte	4
 3504 0b26 64       		.byte	100
 3505 0b27 10       		.byte	16
ARM GAS  C:\Users\kingi\AppData\Local\Temp\cc068PKu.s 			page 96


 3506 0b28 65       		.byte	101
 3507 0b29 04       		.byte	4
 3508 0b2a 8C       		.byte	-116
 3509 0b2b 10       		.byte	16
 3510 0b2c 8D       		.byte	-115
 3511 0b2d 80       		.byte	-128
 3512 0b2e 90       		.byte	-112
 3513 0b2f 48       		.byte	72
 3514 0b30 91       		.byte	-111
 3515 0b31 15       		.byte	21
 3516 0b32 92       		.byte	-110
 3517 0b33 C9       		.byte	-55
 3518 0b34 93       		.byte	-109
 3519 0b35 75       		.byte	117
 3520 0b36 94       		.byte	-108
 3521 0b37 14       		.byte	20
 3522 0b38 95       		.byte	-107
 3523 0b39 20       		.byte	32
 3524 0b3a 96       		.byte	-106
 3525 0b3b 04       		.byte	4
 3526 0b3c 97       		.byte	-105
 3527 0b3d 80       		.byte	-128
 3528 0b3e 98       		.byte	-104
 3529 0b3f 05       		.byte	5
 3530 0b40 99       		.byte	-103
 3531 0b41 E7       		.byte	-25
 3532 0b42 9A       		.byte	-102
 3533 0b43 2A       		.byte	42
 3534 0b44 9B       		.byte	-101
 3535 0b45 75       		.byte	117
 3536 0b46 9E       		.byte	-98
 3537 0b47 40       		.byte	64
 3538 0b48 9F       		.byte	-97
 3539 0b49 08       		.byte	8
 3540 0b4a A0       		.byte	-96
 3541 0b4b 49       		.byte	73
 3542 0b4c A1       		.byte	-95
 3543 0b4d 40       		.byte	64
 3544 0b4e A2       		.byte	-94
 3545 0b4f B1       		.byte	-79
 3546 0b50 A3       		.byte	-93
 3547 0b51 82       		.byte	-126
 3548 0b52 A5       		.byte	-91
 3549 0b53 94       		.byte	-108
 3550 0b54 A7       		.byte	-89
 3551 0b55 20       		.byte	32
 3552 0b56 AA       		.byte	-86
 3553 0b57 0A       		.byte	10
 3554 0b58 AC       		.byte	-84
 3555 0b59 08       		.byte	8
 3556 0b5a AE       		.byte	-82
 3557 0b5b 01       		.byte	1
 3558 0b5c AF       		.byte	-81
 3559 0b5d 08       		.byte	8
 3560 0b5e B0       		.byte	-80
 3561 0b5f 04       		.byte	4
 3562 0b60 B1       		.byte	-79
ARM GAS  C:\Users\kingi\AppData\Local\Temp\cc068PKu.s 			page 97


 3563 0b61 10       		.byte	16
 3564 0b62 B5       		.byte	-75
 3565 0b63 80       		.byte	-128
 3566 0b64 C0       		.byte	-64
 3567 0b65 FF       		.byte	-1
 3568 0b66 C2       		.byte	-62
 3569 0b67 FF       		.byte	-1
 3570 0b68 C4       		.byte	-60
 3571 0b69 1F       		.byte	31
 3572 0b6a CA       		.byte	-54
 3573 0b6b FF       		.byte	-1
 3574 0b6c CC       		.byte	-52
 3575 0b6d FF       		.byte	-1
 3576 0b6e CE       		.byte	-50
 3577 0b6f FF       		.byte	-1
 3578 0b70 D0       		.byte	-48
 3579 0b71 0E       		.byte	14
 3580 0b72 D2       		.byte	-46
 3581 0b73 0C       		.byte	12
 3582 0b74 E8       		.byte	-24
 3583 0b75 01       		.byte	1
 3584 0b76 EA       		.byte	-22
 3585 0b77 04       		.byte	4
 3586 0b78 EE       		.byte	-18
 3587 0b79 08       		.byte	8
 3588 0b7a 92       		.byte	-110
 3589 0b7b 04       		.byte	4
 3590 0b7c 95       		.byte	-107
 3591 0b7d 10       		.byte	16
 3592 0b7e 97       		.byte	-105
 3593 0b7f 01       		.byte	1
 3594 0b80 9C       		.byte	-100
 3595 0b81 01       		.byte	1
 3596 0b82 A8       		.byte	-88
 3597 0b83 50       		.byte	80
 3598 0b84 AF       		.byte	-81
 3599 0b85 04       		.byte	4
 3600 0b86 B0       		.byte	-80
 3601 0b87 10       		.byte	16
 3602 0b88 B2       		.byte	-78
 3603 0b89 10       		.byte	16
 3604 0b8a B6       		.byte	-74
 3605 0b8b 40       		.byte	64
 3606 0b8c B7       		.byte	-73
 3607 0b8d 10       		.byte	16
 3608 0b8e E8       		.byte	-24
 3609 0b8f 20       		.byte	32
 3610 0b90 EC       		.byte	-20
 3611 0b91 60       		.byte	96
 3612 0b92 8F       		.byte	-113
 3613 0b93 01       		.byte	1
 3614 0b94 97       		.byte	-105
 3615 0b95 01       		.byte	1
 3616 0b96 AC       		.byte	-84
 3617 0b97 01       		.byte	1
 3618 0b98 AD       		.byte	-83
 3619 0b99 10       		.byte	16
ARM GAS  C:\Users\kingi\AppData\Local\Temp\cc068PKu.s 			page 98


 3620 0b9a B2       		.byte	-78
 3621 0b9b 04       		.byte	4
 3622 0b9c E4       		.byte	-28
 3623 0b9d 10       		.byte	16
 3624 0b9e EE       		.byte	-18
 3625 0b9f 20       		.byte	32
 3626 0ba0 55       		.byte	85
 3627 0ba1 20       		.byte	32
 3628 0ba2 58       		.byte	88
 3629 0ba3 10       		.byte	16
 3630 0ba4 5F       		.byte	95
 3631 0ba5 80       		.byte	-128
 3632 0ba6 D4       		.byte	-44
 3633 0ba7 C0       		.byte	-64
 3634 0ba8 D6       		.byte	-42
 3635 0ba9 20       		.byte	32
 3636 0baa 00       		.byte	0
 3637 0bab 08       		.byte	8
 3638 0bac 01       		.byte	1
 3639 0bad 20       		.byte	32
 3640 0bae 05       		.byte	5
 3641 0baf 08       		.byte	8
 3642 0bb0 83       		.byte	-125
 3643 0bb1 80       		.byte	-128
 3644 0bb2 85       		.byte	-123
 3645 0bb3 20       		.byte	32
 3646 0bb4 9C       		.byte	-100
 3647 0bb5 10       		.byte	16
 3648 0bb6 9D       		.byte	-99
 3649 0bb7 08       		.byte	8
 3650 0bb8 9F       		.byte	-97
 3651 0bb9 80       		.byte	-128
 3652 0bba A5       		.byte	-91
 3653 0bbb 20       		.byte	32
 3654 0bbc B1       		.byte	-79
 3655 0bbd 08       		.byte	8
 3656 0bbe C0       		.byte	-64
 3657 0bbf 70       		.byte	112
 3658 0bc0 E2       		.byte	-30
 3659 0bc1 90       		.byte	-112
 3660 0bc2 81       		.byte	-127
 3661 0bc3 20       		.byte	32
 3662 0bc4 99       		.byte	-103
 3663 0bc5 20       		.byte	32
 3664 0bc6 9C       		.byte	-100
 3665 0bc7 10       		.byte	16
 3666 0bc8 AC       		.byte	-84
 3667 0bc9 04       		.byte	4
 3668 0bca E4       		.byte	-28
 3669 0bcb 80       		.byte	-128
 3670 0bcc EC       		.byte	-20
 3671 0bcd 40       		.byte	64
 3672 0bce 9C       		.byte	-100
 3673 0bcf 10       		.byte	16
 3674 0bd0 9C       		.byte	-100
 3675 0bd1 10       		.byte	16
 3676 0bd2 84       		.byte	-124
ARM GAS  C:\Users\kingi\AppData\Local\Temp\cc068PKu.s 			page 99


 3677 0bd3 10       		.byte	16
 3678 0bd4 9C       		.byte	-100
 3679 0bd5 10       		.byte	16
 3680 0bd6 E6       		.byte	-26
 3681 0bd7 40       		.byte	64
 3682 0bd8 00       		.byte	0
 3683 0bd9 07       		.byte	7
 3684 0bda 08       		.byte	8
 3685 0bdb 07       		.byte	7
 3686 0bdc 0A       		.byte	10
 3687 0bdd 07       		.byte	7
 3688 0bde 0C       		.byte	12
 3689 0bdf 07       		.byte	7
 3690 0be0 0E       		.byte	14
 3691 0be1 07       		.byte	7
 3692 0be2 10       		.byte	16
 3693 0be3 07       		.byte	7
 3694 0be4 1A       		.byte	26
 3695 0be5 07       		.byte	7
 3696 0be6 0000     		.align	2
 3697              		.type	BS_IOPINS0_0_VAL.4909, %object
 3698              		.size	BS_IOPINS0_0_VAL.4909, 8
 3699              	BS_IOPINS0_0_VAL.4909:
 3700 0be8 07       		.byte	7
 3701 0be9 00       		.byte	0
 3702 0bea 00       		.byte	0
 3703 0beb 00       		.byte	0
 3704 0bec 00       		.byte	0
 3705 0bed 00       		.byte	0
 3706 0bee 00       		.byte	0
 3707 0bef 00       		.byte	0
 3708              		.align	2
 3709              		.type	BS_IOPINS0_1_VAL.4910, %object
 3710              		.size	BS_IOPINS0_1_VAL.4910, 8
 3711              	BS_IOPINS0_1_VAL.4910:
 3712 0bf0 00       		.byte	0
 3713 0bf1 04       		.byte	4
 3714 0bf2 00       		.byte	0
 3715 0bf3 00       		.byte	0
 3716 0bf4 00       		.byte	0
 3717 0bf5 00       		.byte	0
 3718 0bf6 00       		.byte	0
 3719 0bf7 00       		.byte	0
 3720              		.align	2
 3721              		.type	BS_IOPINS0_4_VAL.4911, %object
 3722              		.size	BS_IOPINS0_4_VAL.4911, 10
 3723              	BS_IOPINS0_4_VAL.4911:
 3724 0bf8 0E       		.byte	14
 3725 0bf9 00       		.byte	0
 3726 0bfa 00       		.byte	0
 3727 0bfb 0E       		.byte	14
 3728 0bfc 0E       		.byte	14
 3729 0bfd 00       		.byte	0
 3730 0bfe 0E       		.byte	14
 3731 0bff 00       		.byte	0
 3732 0c00 00       		.byte	0
 3733 0c01 00       		.byte	0
ARM GAS  C:\Users\kingi\AppData\Local\Temp\cc068PKu.s 			page 100


 3734 0c02 0000     		.align	2
 3735              		.type	BS_UDB_1_3_0_CONFIG_VAL.4924, %object
 3736              		.size	BS_UDB_1_3_0_CONFIG_VAL.4924, 128
 3737              	BS_UDB_1_3_0_CONFIG_VAL.4924:
 3738 0c04 00       		.byte	0
 3739 0c05 00       		.byte	0
 3740 0c06 00       		.byte	0
 3741 0c07 00       		.byte	0
 3742 0c08 F8       		.byte	-8
 3743 0c09 3E       		.byte	62
 3744 0c0a 00       		.byte	0
 3745 0c0b 00       		.byte	0
 3746 0c0c F8       		.byte	-8
 3747 0c0d 3E       		.byte	62
 3748 0c0e 00       		.byte	0
 3749 0c0f 00       		.byte	0
 3750 0c10 04       		.byte	4
 3751 0c11 3A       		.byte	58
 3752 0c12 FA       		.byte	-6
 3753 0c13 04       		.byte	4
 3754 0c14 00       		.byte	0
 3755 0c15 00       		.byte	0
 3756 0c16 06       		.byte	6
 3757 0c17 00       		.byte	0
 3758 0c18 80       		.byte	-128
 3759 0c19 48       		.byte	72
 3760 0c1a 13       		.byte	19
 3761 0c1b 04       		.byte	4
 3762 0c1c 09       		.byte	9
 3763 0c1d 00       		.byte	0
 3764 0c1e 12       		.byte	18
 3765 0c1f 01       		.byte	1
 3766 0c20 21       		.byte	33
 3767 0c21 01       		.byte	1
 3768 0c22 12       		.byte	18
 3769 0c23 3E       		.byte	62
 3770 0c24 12       		.byte	18
 3771 0c25 04       		.byte	4
 3772 0c26 41       		.byte	65
 3773 0c27 50       		.byte	80
 3774 0c28 00       		.byte	0
 3775 0c29 00       		.byte	0
 3776 0c2a 00       		.byte	0
 3777 0c2b 00       		.byte	0
 3778 0c2c 00       		.byte	0
 3779 0c2d 42       		.byte	66
 3780 0c2e 02       		.byte	2
 3781 0c2f 04       		.byte	4
 3782 0c30 E8       		.byte	-24
 3783 0c31 20       		.byte	32
 3784 0c32 10       		.byte	16
 3785 0c33 44       		.byte	68
 3786 0c34 01       		.byte	1
 3787 0c35 00       		.byte	0
 3788 0c36 FC       		.byte	-4
 3789 0c37 00       		.byte	0
 3790 0c38 00       		.byte	0
ARM GAS  C:\Users\kingi\AppData\Local\Temp\cc068PKu.s 			page 101


 3791 0c39 40       		.byte	64
 3792 0c3a 02       		.byte	2
 3793 0c3b 3F       		.byte	63
 3794 0c3c 02       		.byte	2
 3795 0c3d 20       		.byte	32
 3796 0c3e 00       		.byte	0
 3797 0c3f 00       		.byte	0
 3798 0c40 00       		.byte	0
 3799 0c41 00       		.byte	0
 3800 0c42 44       		.byte	68
 3801 0c43 40       		.byte	64
 3802 0c44 53       		.byte	83
 3803 0c45 02       		.byte	2
 3804 0c46 04       		.byte	4
 3805 0c47 00       		.byte	0
 3806 0c48 01       		.byte	1
 3807 0c49 BC       		.byte	-68
 3808 0c4a FE       		.byte	-2
 3809 0c4b 0D       		.byte	13
 3810 0c4c 1F       		.byte	31
 3811 0c4d FF       		.byte	-1
 3812 0c4e FF       		.byte	-1
 3813 0c4f FF       		.byte	-1
 3814 0c50 62       		.byte	98
 3815 0c51 A0       		.byte	-96
 3816 0c52 F0       		.byte	-16
 3817 0c53 41       		.byte	65
 3818 0c54 0C       		.byte	12
 3819 0c55 00       		.byte	0
 3820 0c56 03       		.byte	3
 3821 0c57 00       		.byte	0
 3822 0c58 00       		.byte	0
 3823 0c59 00       		.byte	0
 3824 0c5a 00       		.byte	0
 3825 0c5b 00       		.byte	0
 3826 0c5c 04       		.byte	4
 3827 0c5d 04       		.byte	4
 3828 0c5e 04       		.byte	4
 3829 0c5f 04       		.byte	4
 3830 0c60 01       		.byte	1
 3831 0c61 01       		.byte	1
 3832 0c62 00       		.byte	0
 3833 0c63 01       		.byte	1
 3834 0c64 00       		.byte	0
 3835 0c65 00       		.byte	0
 3836 0c66 00       		.byte	0
 3837 0c67 00       		.byte	0
 3838 0c68 00       		.byte	0
 3839 0c69 00       		.byte	0
 3840 0c6a 40       		.byte	64
 3841 0c6b 02       		.byte	2
 3842 0c6c 00       		.byte	0
 3843 0c6d 10       		.byte	16
 3844 0c6e 30       		.byte	48
 3845 0c6f 10       		.byte	16
 3846 0c70 00       		.byte	0
 3847 0c71 10       		.byte	16
ARM GAS  C:\Users\kingi\AppData\Local\Temp\cc068PKu.s 			page 102


 3848 0c72 10       		.byte	16
 3849 0c73 12       		.byte	18
 3850 0c74 00       		.byte	0
 3851 0c75 00       		.byte	0
 3852 0c76 00       		.byte	0
 3853 0c77 00       		.byte	0
 3854 0c78 00       		.byte	0
 3855 0c79 00       		.byte	0
 3856 0c7a 00       		.byte	0
 3857 0c7b 00       		.byte	0
 3858 0c7c 00       		.byte	0
 3859 0c7d 00       		.byte	0
 3860 0c7e 00       		.byte	0
 3861 0c7f 00       		.byte	0
 3862 0c80 00       		.byte	0
 3863 0c81 00       		.byte	0
 3864 0c82 00       		.byte	0
 3865 0c83 00       		.byte	0
 3866              		.text
 3867              	.Letext0:
 3868              		.file 2 "c:\\program files (x86)\\cypress\\psoc creator\\3.3\\psoc creator\\import\\gnu\\arm\\4.9.
 3869              		.file 3 ".\\Generated_Source\\PSoC5\\cytypes.h"
 3870              		.section	.debug_info,"",%progbits
 3871              	.Ldebug_info0:
 3872 0000 4C050000 		.4byte	0x54c
 3873 0004 0400     		.2byte	0x4
 3874 0006 00000000 		.4byte	.Ldebug_abbrev0
 3875 000a 04       		.byte	0x4
 3876 000b 01       		.uleb128 0x1
 3877 000c 07020000 		.4byte	.LASF58
 3878 0010 01       		.byte	0x1
 3879 0011 56010000 		.4byte	.LASF59
 3880 0015 25030000 		.4byte	.LASF60
 3881 0019 00000000 		.4byte	.Ldebug_ranges0+0
 3882 001d 00000000 		.4byte	0
 3883 0021 00000000 		.4byte	.Ldebug_line0
 3884 0025 02       		.uleb128 0x2
 3885 0026 04       		.byte	0x4
 3886 0027 05       		.byte	0x5
 3887 0028 696E7400 		.ascii	"int\000"
 3888 002c 03       		.uleb128 0x3
 3889 002d 10000000 		.4byte	.LASF11
 3890 0031 02       		.byte	0x2
 3891 0032 D4       		.byte	0xd4
 3892 0033 37000000 		.4byte	0x37
 3893 0037 04       		.uleb128 0x4
 3894 0038 04       		.byte	0x4
 3895 0039 07       		.byte	0x7
 3896 003a 40010000 		.4byte	.LASF0
 3897 003e 04       		.uleb128 0x4
 3898 003f 01       		.byte	0x1
 3899 0040 06       		.byte	0x6
 3900 0041 A9000000 		.4byte	.LASF1
 3901 0045 04       		.uleb128 0x4
 3902 0046 01       		.byte	0x1
 3903 0047 08       		.byte	0x8
 3904 0048 BD020000 		.4byte	.LASF2
ARM GAS  C:\Users\kingi\AppData\Local\Temp\cc068PKu.s 			page 103


 3905 004c 04       		.uleb128 0x4
 3906 004d 02       		.byte	0x2
 3907 004e 05       		.byte	0x5
 3908 004f CB020000 		.4byte	.LASF3
 3909 0053 04       		.uleb128 0x4
 3910 0054 02       		.byte	0x2
 3911 0055 07       		.byte	0x7
 3912 0056 BC010000 		.4byte	.LASF4
 3913 005a 04       		.uleb128 0x4
 3914 005b 04       		.byte	0x4
 3915 005c 05       		.byte	0x5
 3916 005d F7000000 		.4byte	.LASF5
 3917 0061 04       		.uleb128 0x4
 3918 0062 04       		.byte	0x4
 3919 0063 07       		.byte	0x7
 3920 0064 7E010000 		.4byte	.LASF6
 3921 0068 04       		.uleb128 0x4
 3922 0069 08       		.byte	0x8
 3923 006a 05       		.byte	0x5
 3924 006b 9B000000 		.4byte	.LASF7
 3925 006f 04       		.uleb128 0x4
 3926 0070 08       		.byte	0x8
 3927 0071 07       		.byte	0x7
 3928 0072 36000000 		.4byte	.LASF8
 3929 0076 04       		.uleb128 0x4
 3930 0077 04       		.byte	0x4
 3931 0078 07       		.byte	0x7
 3932 0079 DF010000 		.4byte	.LASF9
 3933 007d 05       		.uleb128 0x5
 3934 007e 04       		.byte	0x4
 3935 007f 04       		.uleb128 0x4
 3936 0080 01       		.byte	0x1
 3937 0081 08       		.byte	0x8
 3938 0082 01030000 		.4byte	.LASF10
 3939 0086 06       		.uleb128 0x6
 3940 0087 06010000 		.4byte	.LASF12
 3941 008b 03       		.byte	0x3
 3942 008c 3801     		.2byte	0x138
 3943 008e 45000000 		.4byte	0x45
 3944 0092 06       		.uleb128 0x6
 3945 0093 00000000 		.4byte	.LASF13
 3946 0097 03       		.byte	0x3
 3947 0098 3901     		.2byte	0x139
 3948 009a 53000000 		.4byte	0x53
 3949 009e 06       		.uleb128 0x6
 3950 009f 13010000 		.4byte	.LASF14
 3951 00a3 03       		.byte	0x3
 3952 00a4 3A01     		.2byte	0x13a
 3953 00a6 61000000 		.4byte	0x61
 3954 00aa 04       		.uleb128 0x4
 3955 00ab 04       		.byte	0x4
 3956 00ac 04       		.byte	0x4
 3957 00ad AA020000 		.4byte	.LASF15
 3958 00b1 04       		.uleb128 0x4
 3959 00b2 08       		.byte	0x8
 3960 00b3 04       		.byte	0x4
 3961 00b4 0C010000 		.4byte	.LASF16
ARM GAS  C:\Users\kingi\AppData\Local\Temp\cc068PKu.s 			page 104


 3962 00b8 06       		.uleb128 0x6
 3963 00b9 B8020000 		.4byte	.LASF17
 3964 00bd 03       		.byte	0x3
 3965 00be E201     		.2byte	0x1e2
 3966 00c0 C4000000 		.4byte	0xc4
 3967 00c4 07       		.uleb128 0x7
 3968 00c5 86000000 		.4byte	0x86
 3969 00c9 06       		.uleb128 0x6
 3970 00ca 00010000 		.4byte	.LASF18
 3971 00ce 03       		.byte	0x3
 3972 00cf E301     		.2byte	0x1e3
 3973 00d1 D5000000 		.4byte	0xd5
 3974 00d5 07       		.uleb128 0x7
 3975 00d6 92000000 		.4byte	0x92
 3976 00da 08       		.uleb128 0x8
 3977 00db 02       		.byte	0x2
 3978 00dc 01       		.byte	0x1
 3979 00dd 80       		.byte	0x80
 3980 00de FB000000 		.4byte	0xfb
 3981 00e2 09       		.uleb128 0x9
 3982 00e3 67030000 		.4byte	.LASF19
 3983 00e7 01       		.byte	0x1
 3984 00e8 82       		.byte	0x82
 3985 00e9 86000000 		.4byte	0x86
 3986 00ed 00       		.byte	0
 3987 00ee 09       		.uleb128 0x9
 3988 00ef 3A010000 		.4byte	.LASF20
 3989 00f3 01       		.byte	0x1
 3990 00f4 83       		.byte	0x83
 3991 00f5 86000000 		.4byte	0x86
 3992 00f9 01       		.byte	0x1
 3993 00fa 00       		.byte	0
 3994 00fb 03       		.uleb128 0x3
 3995 00fc EE020000 		.4byte	.LASF21
 3996 0100 01       		.byte	0x1
 3997 0101 84       		.byte	0x84
 3998 0102 DA000000 		.4byte	0xda
 3999 0106 0A       		.uleb128 0xa
 4000 0107 C7000000 		.4byte	.LASF22
 4001 010b 01       		.byte	0x1
 4002 010c 3E       		.byte	0x3e
 4003 010d 00000000 		.4byte	.LFB0
 4004 0111 1A000000 		.4byte	.LFE0-.LFB0
 4005 0115 01       		.uleb128 0x1
 4006 0116 9C       		.byte	0x9c
 4007 0117 34010000 		.4byte	0x134
 4008 011b 0B       		.uleb128 0xb
 4009 011c 7300     		.ascii	"s\000"
 4010 011e 01       		.byte	0x1
 4011 011f 3E       		.byte	0x3e
 4012 0120 7D000000 		.4byte	0x7d
 4013 0124 02       		.uleb128 0x2
 4014 0125 91       		.byte	0x91
 4015 0126 74       		.sleb128 -12
 4016 0127 0B       		.uleb128 0xb
 4017 0128 6E00     		.ascii	"n\000"
 4018 012a 01       		.byte	0x1
ARM GAS  C:\Users\kingi\AppData\Local\Temp\cc068PKu.s 			page 105


 4019 012b 3E       		.byte	0x3e
 4020 012c 2C000000 		.4byte	0x2c
 4021 0130 02       		.uleb128 0x2
 4022 0131 91       		.byte	0x91
 4023 0132 70       		.sleb128 -16
 4024 0133 00       		.byte	0
 4025 0134 0A       		.uleb128 0xa
 4026 0135 76030000 		.4byte	.LASF23
 4027 0139 01       		.byte	0x1
 4028 013a 45       		.byte	0x45
 4029 013b 00000000 		.4byte	.LFB1
 4030 013f 1C000000 		.4byte	.LFE1-.LFB1
 4031 0143 01       		.uleb128 0x1
 4032 0144 9C       		.byte	0x9c
 4033 0145 72010000 		.4byte	0x172
 4034 0149 0C       		.uleb128 0xc
 4035 014a A5020000 		.4byte	.LASF24
 4036 014e 01       		.byte	0x1
 4037 014f 45       		.byte	0x45
 4038 0150 7D000000 		.4byte	0x7d
 4039 0154 02       		.uleb128 0x2
 4040 0155 91       		.byte	0x91
 4041 0156 74       		.sleb128 -12
 4042 0157 0B       		.uleb128 0xb
 4043 0158 73726300 		.ascii	"src\000"
 4044 015c 01       		.byte	0x1
 4045 015d 45       		.byte	0x45
 4046 015e 72010000 		.4byte	0x172
 4047 0162 02       		.uleb128 0x2
 4048 0163 91       		.byte	0x91
 4049 0164 70       		.sleb128 -16
 4050 0165 0B       		.uleb128 0xb
 4051 0166 6E00     		.ascii	"n\000"
 4052 0168 01       		.byte	0x1
 4053 0169 45       		.byte	0x45
 4054 016a 2C000000 		.4byte	0x2c
 4055 016e 02       		.uleb128 0x2
 4056 016f 91       		.byte	0x91
 4057 0170 6C       		.sleb128 -20
 4058 0171 00       		.byte	0
 4059 0172 0D       		.uleb128 0xd
 4060 0173 04       		.byte	0x4
 4061 0174 78010000 		.4byte	0x178
 4062 0178 0E       		.uleb128 0xe
 4063 0179 0A       		.uleb128 0xa
 4064 017a CF010000 		.4byte	.LASF25
 4065 017e 01       		.byte	0x1
 4066 017f 4C       		.byte	0x4c
 4067 0180 00000000 		.4byte	.LFB2
 4068 0184 1C000000 		.4byte	.LFE2-.LFB2
 4069 0188 01       		.uleb128 0x1
 4070 0189 9C       		.byte	0x9c
 4071 018a B7010000 		.4byte	0x1b7
 4072 018e 0C       		.uleb128 0xc
 4073 018f A5020000 		.4byte	.LASF24
 4074 0193 01       		.byte	0x1
 4075 0194 4C       		.byte	0x4c
ARM GAS  C:\Users\kingi\AppData\Local\Temp\cc068PKu.s 			page 106


 4076 0195 7D000000 		.4byte	0x7d
 4077 0199 02       		.uleb128 0x2
 4078 019a 91       		.byte	0x91
 4079 019b 74       		.sleb128 -12
 4080 019c 0B       		.uleb128 0xb
 4081 019d 73726300 		.ascii	"src\000"
 4082 01a1 01       		.byte	0x1
 4083 01a2 4C       		.byte	0x4c
 4084 01a3 72010000 		.4byte	0x172
 4085 01a7 02       		.uleb128 0x2
 4086 01a8 91       		.byte	0x91
 4087 01a9 70       		.sleb128 -16
 4088 01aa 0B       		.uleb128 0xb
 4089 01ab 6E00     		.ascii	"n\000"
 4090 01ad 01       		.byte	0x1
 4091 01ae 4C       		.byte	0x4c
 4092 01af 2C000000 		.4byte	0x2c
 4093 01b3 02       		.uleb128 0x2
 4094 01b4 91       		.byte	0x91
 4095 01b5 6C       		.sleb128 -20
 4096 01b6 00       		.byte	0
 4097 01b7 0F       		.uleb128 0xf
 4098 01b8 17000000 		.4byte	.LASF26
 4099 01bc 01       		.byte	0x1
 4100 01bd 6C       		.byte	0x6c
 4101 01be 00000000 		.4byte	.LFB3
 4102 01c2 0C000000 		.4byte	.LFE3-.LFB3
 4103 01c6 01       		.uleb128 0x1
 4104 01c7 9C       		.byte	0x9c
 4105 01c8 DB010000 		.4byte	0x1db
 4106 01cc 0C       		.uleb128 0xc
 4107 01cd DC000000 		.4byte	.LASF27
 4108 01d1 01       		.byte	0x1
 4109 01d2 6C       		.byte	0x6c
 4110 01d3 86000000 		.4byte	0x86
 4111 01d7 02       		.uleb128 0x2
 4112 01d8 91       		.byte	0x91
 4113 01d9 77       		.sleb128 -9
 4114 01da 00       		.byte	0
 4115 01db 0F       		.uleb128 0xf
 4116 01dc A5010000 		.4byte	.LASF28
 4117 01e0 01       		.byte	0x1
 4118 01e1 97       		.byte	0x97
 4119 01e2 00000000 		.4byte	.LFB4
 4120 01e6 74000000 		.4byte	.LFE4-.LFB4
 4121 01ea 01       		.uleb128 0x1
 4122 01eb 9C       		.byte	0x9c
 4123 01ec 4B020000 		.4byte	0x24b
 4124 01f0 0C       		.uleb128 0xc
 4125 01f1 4D000000 		.4byte	.LASF29
 4126 01f5 01       		.byte	0x1
 4127 01f6 97       		.byte	0x97
 4128 01f7 4B020000 		.4byte	0x24b
 4129 01fb 02       		.uleb128 0x2
 4130 01fc 91       		.byte	0x91
 4131 01fd 64       		.sleb128 -28
 4132 01fe 0C       		.uleb128 0xc
ARM GAS  C:\Users\kingi\AppData\Local\Temp\cc068PKu.s 			page 107


 4133 01ff 2B000000 		.4byte	.LASF30
 4134 0203 01       		.byte	0x1
 4135 0204 97       		.byte	0x97
 4136 0205 56020000 		.4byte	0x256
 4137 0209 02       		.uleb128 0x2
 4138 020a 91       		.byte	0x91
 4139 020b 60       		.sleb128 -32
 4140 020c 10       		.uleb128 0x10
 4141 020d 6900     		.ascii	"i\000"
 4142 020f 01       		.byte	0x1
 4143 0210 9A       		.byte	0x9a
 4144 0211 9E000000 		.4byte	0x9e
 4145 0215 02       		.uleb128 0x2
 4146 0216 91       		.byte	0x91
 4147 0217 74       		.sleb128 -12
 4148 0218 10       		.uleb128 0x10
 4149 0219 6A00     		.ascii	"j\000"
 4150 021b 01       		.byte	0x1
 4151 021c 9A       		.byte	0x9a
 4152 021d 9E000000 		.4byte	0x9e
 4153 0221 02       		.uleb128 0x2
 4154 0222 91       		.byte	0x91
 4155 0223 70       		.sleb128 -16
 4156 0224 11       		.uleb128 0x11
 4157 0225 14000000 		.4byte	.LBB2
 4158 0229 4A000000 		.4byte	.LBE2-.LBB2
 4159 022d 12       		.uleb128 0x12
 4160 022e 07000000 		.4byte	.LASF31
 4161 0232 01       		.byte	0x1
 4162 0233 9D       		.byte	0x9d
 4163 0234 9E000000 		.4byte	0x9e
 4164 0238 02       		.uleb128 0x2
 4165 0239 91       		.byte	0x91
 4166 023a 68       		.sleb128 -24
 4167 023b 12       		.uleb128 0x12
 4168 023c 1A010000 		.4byte	.LASF32
 4169 0240 01       		.byte	0x1
 4170 0241 9E       		.byte	0x9e
 4171 0242 86000000 		.4byte	0x86
 4172 0246 02       		.uleb128 0x2
 4173 0247 91       		.byte	0x91
 4174 0248 6F       		.sleb128 -17
 4175 0249 00       		.byte	0
 4176 024a 00       		.byte	0
 4177 024b 0D       		.uleb128 0xd
 4178 024c 04       		.byte	0x4
 4179 024d 51020000 		.4byte	0x251
 4180 0251 13       		.uleb128 0x13
 4181 0252 9E000000 		.4byte	0x9e
 4182 0256 0D       		.uleb128 0xd
 4183 0257 04       		.byte	0x4
 4184 0258 5C020000 		.4byte	0x25c
 4185 025c 13       		.uleb128 0x13
 4186 025d FB000000 		.4byte	0xfb
 4187 0261 0A       		.uleb128 0xa
 4188 0262 D1000000 		.4byte	.LASF33
 4189 0266 01       		.byte	0x1
ARM GAS  C:\Users\kingi\AppData\Local\Temp\cc068PKu.s 			page 108


 4190 0267 BA       		.byte	0xba
 4191 0268 00000000 		.4byte	.LFB5
 4192 026c 3C010000 		.4byte	.LFE5-.LFB5
 4193 0270 01       		.uleb128 0x1
 4194 0271 9C       		.byte	0x9c
 4195 0272 A4020000 		.4byte	0x2a4
 4196 0276 12       		.uleb128 0x12
 4197 0277 6A000000 		.4byte	.LASF34
 4198 027b 01       		.byte	0x1
 4199 027c BD       		.byte	0xbd
 4200 027d B4020000 		.4byte	0x2b4
 4201 0281 05       		.uleb128 0x5
 4202 0282 03       		.byte	0x3
 4203 0283 00000000 		.4byte	BS_CYDEV_CLKDIST_ACFG0_CFG0_VAL.4890
 4204 0287 12       		.uleb128 0x12
 4205 0288 90010000 		.4byte	.LASF35
 4206 028c 01       		.byte	0x1
 4207 028d C0       		.byte	0xc0
 4208 028e 9E000000 		.4byte	0x9e
 4209 0292 02       		.uleb128 0x2
 4210 0293 91       		.byte	0x91
 4211 0294 74       		.sleb128 -12
 4212 0295 12       		.uleb128 0x12
 4213 0296 E6020000 		.4byte	.LASF36
 4214 029a 01       		.byte	0x1
 4215 029b C1       		.byte	0xc1
 4216 029c 86000000 		.4byte	0x86
 4217 02a0 02       		.uleb128 0x2
 4218 02a1 91       		.byte	0x91
 4219 02a2 73       		.sleb128 -13
 4220 02a3 00       		.byte	0
 4221 02a4 14       		.uleb128 0x14
 4222 02a5 86000000 		.4byte	0x86
 4223 02a9 B4020000 		.4byte	0x2b4
 4224 02ad 15       		.uleb128 0x15
 4225 02ae 76000000 		.4byte	0x76
 4226 02b2 03       		.byte	0x3
 4227 02b3 00       		.byte	0
 4228 02b4 13       		.uleb128 0x13
 4229 02b5 A4020000 		.4byte	0x2a4
 4230 02b9 16       		.uleb128 0x16
 4231 02ba 8A000000 		.4byte	.LASF37
 4232 02be 01       		.byte	0x1
 4233 02bf 0801     		.2byte	0x108
 4234 02c1 00000000 		.4byte	.LFB6
 4235 02c5 44000000 		.4byte	.LFE6-.LFB6
 4236 02c9 01       		.uleb128 0x1
 4237 02ca 9C       		.byte	0x9c
 4238 02cb DF020000 		.4byte	0x2df
 4239 02cf 17       		.uleb128 0x17
 4240 02d0 E8010000 		.4byte	.LASF38
 4241 02d4 01       		.byte	0x1
 4242 02d5 0A01     		.2byte	0x10a
 4243 02d7 86000000 		.4byte	0x86
 4244 02db 02       		.uleb128 0x2
 4245 02dc 91       		.byte	0x91
 4246 02dd 77       		.sleb128 -9
ARM GAS  C:\Users\kingi\AppData\Local\Temp\cc068PKu.s 			page 109


 4247 02de 00       		.byte	0
 4248 02df 18       		.uleb128 0x18
 4249 02e0 51030000 		.4byte	.LASF41
 4250 02e4 01       		.byte	0x1
 4251 02e5 2201     		.2byte	0x122
 4252 02e7 00000000 		.4byte	.LFB7
 4253 02eb 28000000 		.4byte	.LFE7-.LFB7
 4254 02ef 01       		.uleb128 0x1
 4255 02f0 9C       		.byte	0x9c
 4256 02f1 14030000 		.4byte	0x314
 4257 02f5 19       		.uleb128 0x19
 4258 02f6 6E030000 		.4byte	.LASF39
 4259 02fa 01       		.byte	0x1
 4260 02fb 2201     		.2byte	0x122
 4261 02fd 86000000 		.4byte	0x86
 4262 0301 02       		.uleb128 0x2
 4263 0302 91       		.byte	0x91
 4264 0303 6F       		.sleb128 -17
 4265 0304 17       		.uleb128 0x17
 4266 0305 20010000 		.4byte	.LASF40
 4267 0309 01       		.byte	0x1
 4268 030a 2401     		.2byte	0x124
 4269 030c 86000000 		.4byte	0x86
 4270 0310 02       		.uleb128 0x2
 4271 0311 91       		.byte	0x91
 4272 0312 77       		.sleb128 -9
 4273 0313 00       		.byte	0
 4274 0314 1A       		.uleb128 0x1a
 4275 0315 9A030000 		.4byte	.LASF42
 4276 0319 01       		.byte	0x1
 4277 031a 4401     		.2byte	0x144
 4278 031c 00000000 		.4byte	.LFB8
 4279 0320 70010000 		.4byte	.LFE8-.LFB8
 4280 0324 01       		.uleb128 0x1
 4281 0325 9C       		.byte	0x9c
 4282 0326 E0040000 		.4byte	0x4e0
 4283 032a 17       		.uleb128 0x17
 4284 032b D5020000 		.4byte	.LASF43
 4285 032f 01       		.byte	0x1
 4286 0330 4701     		.2byte	0x147
 4287 0332 F0040000 		.4byte	0x4f0
 4288 0336 05       		.uleb128 0x5
 4289 0337 03       		.byte	0x3
 4290 0338 E80B0000 		.4byte	BS_IOPINS0_0_VAL.4909
 4291 033c 17       		.uleb128 0x17
 4292 033d 29010000 		.4byte	.LASF44
 4293 0341 01       		.byte	0x1
 4294 0342 4B01     		.2byte	0x14b
 4295 0344 F5040000 		.4byte	0x4f5
 4296 0348 05       		.uleb128 0x5
 4297 0349 03       		.byte	0x3
 4298 034a F00B0000 		.4byte	BS_IOPINS0_1_VAL.4910
 4299 034e 17       		.uleb128 0x17
 4300 034f E6000000 		.4byte	.LASF45
 4301 0353 01       		.byte	0x1
 4302 0354 4F01     		.2byte	0x14f
 4303 0356 0A050000 		.4byte	0x50a
ARM GAS  C:\Users\kingi\AppData\Local\Temp\cc068PKu.s 			page 110


 4304 035a 05       		.uleb128 0x5
 4305 035b 03       		.byte	0x3
 4306 035c F80B0000 		.4byte	BS_IOPINS0_4_VAL.4911
 4307 0360 11       		.uleb128 0x11
 4308 0361 22000000 		.4byte	.LBB3
 4309 0365 C2000000 		.4byte	.LBE3-.LBB3
 4310 0369 17       		.uleb128 0x17
 4311 036a B5000000 		.4byte	.LASF46
 4312 036e 01       		.byte	0x1
 4313 036f 6001     		.2byte	0x160
 4314 0371 1F050000 		.4byte	0x51f
 4315 0375 05       		.uleb128 0x5
 4316 0376 03       		.byte	0x3
 4317 0377 4C000000 		.4byte	cy_cfg_addr_table.4912
 4318 037b 17       		.uleb128 0x17
 4319 037c 58000000 		.4byte	.LASF47
 4320 0380 01       		.byte	0x1
 4321 0381 8101     		.2byte	0x181
 4322 0383 35050000 		.4byte	0x535
 4323 0387 05       		.uleb128 0x5
 4324 0388 03       		.byte	0x3
 4325 0389 C4000000 		.4byte	cy_cfg_data_table.4913
 4326 038d 1B       		.uleb128 0x1b
 4327 038e 06       		.byte	0x6
 4328 038f 01       		.byte	0x1
 4329 0390 1707     		.2byte	0x717
 4330 0392 B1030000 		.4byte	0x3b1
 4331 0396 1C       		.uleb128 0x1c
 4332 0397 82030000 		.4byte	.LASF48
 4333 039b 01       		.byte	0x1
 4334 039c 1807     		.2byte	0x718
 4335 039e 7D000000 		.4byte	0x7d
 4336 03a2 00       		.byte	0
 4337 03a3 1C       		.uleb128 0x1c
 4338 03a4 B7010000 		.4byte	.LASF49
 4339 03a8 01       		.byte	0x1
 4340 03a9 1907     		.2byte	0x719
 4341 03ab 92000000 		.4byte	0x92
 4342 03af 04       		.byte	0x4
 4343 03b0 00       		.byte	0
 4344 03b1 06       		.uleb128 0x6
 4345 03b2 FA010000 		.4byte	.LASF50
 4346 03b6 01       		.byte	0x1
 4347 03b7 1A07     		.2byte	0x71a
 4348 03b9 8D030000 		.4byte	0x38d
 4349 03bd 1B       		.uleb128 0x1b
 4350 03be 0A       		.byte	0xa
 4351 03bf 01       		.byte	0x1
 4352 03c0 1D07     		.2byte	0x71d
 4353 03c2 EE030000 		.4byte	0x3ee
 4354 03c6 1C       		.uleb128 0x1c
 4355 03c7 A5020000 		.4byte	.LASF24
 4356 03cb 01       		.byte	0x1
 4357 03cc 1E07     		.2byte	0x71e
 4358 03ce 7D000000 		.4byte	0x7d
 4359 03d2 00       		.byte	0
 4360 03d3 1D       		.uleb128 0x1d
ARM GAS  C:\Users\kingi\AppData\Local\Temp\cc068PKu.s 			page 111


 4361 03d4 73726300 		.ascii	"src\000"
 4362 03d8 01       		.byte	0x1
 4363 03d9 1F07     		.2byte	0x71f
 4364 03db 72010000 		.4byte	0x172
 4365 03df 04       		.byte	0x4
 4366 03e0 1C       		.uleb128 0x1c
 4367 03e1 B7010000 		.4byte	.LASF49
 4368 03e5 01       		.byte	0x1
 4369 03e6 2007     		.2byte	0x720
 4370 03e8 92000000 		.4byte	0x92
 4371 03ec 08       		.byte	0x8
 4372 03ed 00       		.byte	0
 4373 03ee 06       		.uleb128 0x6
 4374 03ef 98010000 		.4byte	.LASF51
 4375 03f3 01       		.byte	0x1
 4376 03f4 2107     		.2byte	0x721
 4377 03f6 BD030000 		.4byte	0x3bd
 4378 03fa 14       		.uleb128 0x14
 4379 03fb B1030000 		.4byte	0x3b1
 4380 03ff 0A040000 		.4byte	0x40a
 4381 0403 15       		.uleb128 0x15
 4382 0404 76000000 		.4byte	0x76
 4383 0408 09       		.byte	0x9
 4384 0409 00       		.byte	0
 4385 040a 17       		.uleb128 0x17
 4386 040b 95020000 		.4byte	.LASF52
 4387 040f 01       		.byte	0x1
 4388 0410 2307     		.2byte	0x723
 4389 0412 1C040000 		.4byte	0x41c
 4390 0416 05       		.uleb128 0x5
 4391 0417 03       		.byte	0x3
 4392 0418 04000000 		.4byte	cfg_memset_list.4923
 4393 041c 13       		.uleb128 0x13
 4394 041d FA030000 		.4byte	0x3fa
 4395 0421 17       		.uleb128 0x17
 4396 0422 06030000 		.4byte	.LASF53
 4397 0426 01       		.byte	0x1
 4398 0427 3207     		.2byte	0x732
 4399 0429 4A050000 		.4byte	0x54a
 4400 042d 05       		.uleb128 0x5
 4401 042e 03       		.byte	0x3
 4402 042f 040C0000 		.4byte	BS_UDB_1_3_0_CONFIG_VAL.4924
 4403 0433 14       		.uleb128 0x14
 4404 0434 EE030000 		.4byte	0x3ee
 4405 0438 43040000 		.4byte	0x443
 4406 043c 15       		.uleb128 0x15
 4407 043d 76000000 		.4byte	0x76
 4408 0441 00       		.byte	0
 4409 0442 00       		.byte	0
 4410 0443 17       		.uleb128 0x17
 4411 0444 8A030000 		.4byte	.LASF54
 4412 0448 01       		.byte	0x1
 4413 0449 3C07     		.2byte	0x73c
 4414 044b 55040000 		.4byte	0x455
 4415 044f 05       		.uleb128 0x5
 4416 0450 03       		.byte	0x3
 4417 0451 40000000 		.4byte	cfg_memcpy_list.4925
ARM GAS  C:\Users\kingi\AppData\Local\Temp\cc068PKu.s 			page 112


 4418 0455 13       		.uleb128 0x13
 4419 0456 33040000 		.4byte	0x433
 4420 045a 1E       		.uleb128 0x1e
 4421 045b 6900     		.ascii	"i\000"
 4422 045d 01       		.byte	0x1
 4423 045e 4107     		.2byte	0x741
 4424 0460 86000000 		.4byte	0x86
 4425 0464 02       		.uleb128 0x2
 4426 0465 91       		.byte	0x91
 4427 0466 77       		.sleb128 -9
 4428 0467 1F       		.uleb128 0x1f
 4429 0468 28000000 		.4byte	.LBB4
 4430 046c 22000000 		.4byte	.LBE4-.LBB4
 4431 0470 8E040000 		.4byte	0x48e
 4432 0474 1E       		.uleb128 0x1e
 4433 0475 6D7300   		.ascii	"ms\000"
 4434 0478 01       		.byte	0x1
 4435 0479 4607     		.2byte	0x746
 4436 047b 82040000 		.4byte	0x482
 4437 047f 02       		.uleb128 0x2
 4438 0480 91       		.byte	0x91
 4439 0481 70       		.sleb128 -16
 4440 0482 0D       		.uleb128 0xd
 4441 0483 04       		.byte	0x4
 4442 0484 88040000 		.4byte	0x488
 4443 0488 13       		.uleb128 0x13
 4444 0489 B1030000 		.4byte	0x3b1
 4445 048d 00       		.byte	0
 4446 048e 11       		.uleb128 0x11
 4447 048f 5C000000 		.4byte	.LBB5
 4448 0493 34000000 		.4byte	.LBE5-.LBB5
 4449 0497 1E       		.uleb128 0x1e
 4450 0498 6D6300   		.ascii	"mc\000"
 4451 049b 01       		.byte	0x1
 4452 049c 4D07     		.2byte	0x74d
 4453 049e A5040000 		.4byte	0x4a5
 4454 04a2 02       		.uleb128 0x2
 4455 04a3 91       		.byte	0x91
 4456 04a4 6C       		.sleb128 -20
 4457 04a5 0D       		.uleb128 0xd
 4458 04a6 04       		.byte	0x4
 4459 04a7 AB040000 		.4byte	0x4ab
 4460 04ab 13       		.uleb128 0x13
 4461 04ac EE030000 		.4byte	0x3ee
 4462 04b0 17       		.uleb128 0x17
 4463 04b1 B0020000 		.4byte	.LASF55
 4464 04b5 01       		.byte	0x1
 4465 04b6 4E07     		.2byte	0x74e
 4466 04b8 7D000000 		.4byte	0x7d
 4467 04bc 02       		.uleb128 0x2
 4468 04bd 91       		.byte	0x91
 4469 04be 68       		.sleb128 -24
 4470 04bf 17       		.uleb128 0x17
 4471 04c0 1E030000 		.4byte	.LASF56
 4472 04c4 01       		.byte	0x1
 4473 04c5 4F07     		.2byte	0x74f
 4474 04c7 72010000 		.4byte	0x172
ARM GAS  C:\Users\kingi\AppData\Local\Temp\cc068PKu.s 			page 113


 4475 04cb 02       		.uleb128 0x2
 4476 04cc 91       		.byte	0x91
 4477 04cd 64       		.sleb128 -28
 4478 04ce 17       		.uleb128 0x17
 4479 04cf 4D010000 		.4byte	.LASF57
 4480 04d3 01       		.byte	0x1
 4481 04d4 5007     		.2byte	0x750
 4482 04d6 92000000 		.4byte	0x92
 4483 04da 02       		.uleb128 0x2
 4484 04db 91       		.byte	0x91
 4485 04dc 62       		.sleb128 -30
 4486 04dd 00       		.byte	0
 4487 04de 00       		.byte	0
 4488 04df 00       		.byte	0
 4489 04e0 14       		.uleb128 0x14
 4490 04e1 86000000 		.4byte	0x86
 4491 04e5 F0040000 		.4byte	0x4f0
 4492 04e9 15       		.uleb128 0x15
 4493 04ea 76000000 		.4byte	0x76
 4494 04ee 07       		.byte	0x7
 4495 04ef 00       		.byte	0
 4496 04f0 13       		.uleb128 0x13
 4497 04f1 E0040000 		.4byte	0x4e0
 4498 04f5 13       		.uleb128 0x13
 4499 04f6 E0040000 		.4byte	0x4e0
 4500 04fa 14       		.uleb128 0x14
 4501 04fb 86000000 		.4byte	0x86
 4502 04ff 0A050000 		.4byte	0x50a
 4503 0503 15       		.uleb128 0x15
 4504 0504 76000000 		.4byte	0x76
 4505 0508 09       		.byte	0x9
 4506 0509 00       		.byte	0
 4507 050a 13       		.uleb128 0x13
 4508 050b FA040000 		.4byte	0x4fa
 4509 050f 14       		.uleb128 0x14
 4510 0510 9E000000 		.4byte	0x9e
 4511 0514 1F050000 		.4byte	0x51f
 4512 0518 15       		.uleb128 0x15
 4513 0519 76000000 		.4byte	0x76
 4514 051d 1D       		.byte	0x1d
 4515 051e 00       		.byte	0
 4516 051f 13       		.uleb128 0x13
 4517 0520 0F050000 		.4byte	0x50f
 4518 0524 14       		.uleb128 0x14
 4519 0525 FB000000 		.4byte	0xfb
 4520 0529 35050000 		.4byte	0x535
 4521 052d 20       		.uleb128 0x20
 4522 052e 76000000 		.4byte	0x76
 4523 0532 9005     		.2byte	0x590
 4524 0534 00       		.byte	0
 4525 0535 13       		.uleb128 0x13
 4526 0536 24050000 		.4byte	0x524
 4527 053a 14       		.uleb128 0x14
 4528 053b 86000000 		.4byte	0x86
 4529 053f 4A050000 		.4byte	0x54a
 4530 0543 15       		.uleb128 0x15
 4531 0544 76000000 		.4byte	0x76
ARM GAS  C:\Users\kingi\AppData\Local\Temp\cc068PKu.s 			page 114


 4532 0548 7F       		.byte	0x7f
 4533 0549 00       		.byte	0
 4534 054a 13       		.uleb128 0x13
 4535 054b 3A050000 		.4byte	0x53a
 4536 054f 00       		.byte	0
 4537              		.section	.debug_abbrev,"",%progbits
 4538              	.Ldebug_abbrev0:
 4539 0000 01       		.uleb128 0x1
 4540 0001 11       		.uleb128 0x11
 4541 0002 01       		.byte	0x1
 4542 0003 25       		.uleb128 0x25
 4543 0004 0E       		.uleb128 0xe
 4544 0005 13       		.uleb128 0x13
 4545 0006 0B       		.uleb128 0xb
 4546 0007 03       		.uleb128 0x3
 4547 0008 0E       		.uleb128 0xe
 4548 0009 1B       		.uleb128 0x1b
 4549 000a 0E       		.uleb128 0xe
 4550 000b 55       		.uleb128 0x55
 4551 000c 17       		.uleb128 0x17
 4552 000d 11       		.uleb128 0x11
 4553 000e 01       		.uleb128 0x1
 4554 000f 10       		.uleb128 0x10
 4555 0010 17       		.uleb128 0x17
 4556 0011 00       		.byte	0
 4557 0012 00       		.byte	0
 4558 0013 02       		.uleb128 0x2
 4559 0014 24       		.uleb128 0x24
 4560 0015 00       		.byte	0
 4561 0016 0B       		.uleb128 0xb
 4562 0017 0B       		.uleb128 0xb
 4563 0018 3E       		.uleb128 0x3e
 4564 0019 0B       		.uleb128 0xb
 4565 001a 03       		.uleb128 0x3
 4566 001b 08       		.uleb128 0x8
 4567 001c 00       		.byte	0
 4568 001d 00       		.byte	0
 4569 001e 03       		.uleb128 0x3
 4570 001f 16       		.uleb128 0x16
 4571 0020 00       		.byte	0
 4572 0021 03       		.uleb128 0x3
 4573 0022 0E       		.uleb128 0xe
 4574 0023 3A       		.uleb128 0x3a
 4575 0024 0B       		.uleb128 0xb
 4576 0025 3B       		.uleb128 0x3b
 4577 0026 0B       		.uleb128 0xb
 4578 0027 49       		.uleb128 0x49
 4579 0028 13       		.uleb128 0x13
 4580 0029 00       		.byte	0
 4581 002a 00       		.byte	0
 4582 002b 04       		.uleb128 0x4
 4583 002c 24       		.uleb128 0x24
 4584 002d 00       		.byte	0
 4585 002e 0B       		.uleb128 0xb
 4586 002f 0B       		.uleb128 0xb
 4587 0030 3E       		.uleb128 0x3e
 4588 0031 0B       		.uleb128 0xb
ARM GAS  C:\Users\kingi\AppData\Local\Temp\cc068PKu.s 			page 115


 4589 0032 03       		.uleb128 0x3
 4590 0033 0E       		.uleb128 0xe
 4591 0034 00       		.byte	0
 4592 0035 00       		.byte	0
 4593 0036 05       		.uleb128 0x5
 4594 0037 0F       		.uleb128 0xf
 4595 0038 00       		.byte	0
 4596 0039 0B       		.uleb128 0xb
 4597 003a 0B       		.uleb128 0xb
 4598 003b 00       		.byte	0
 4599 003c 00       		.byte	0
 4600 003d 06       		.uleb128 0x6
 4601 003e 16       		.uleb128 0x16
 4602 003f 00       		.byte	0
 4603 0040 03       		.uleb128 0x3
 4604 0041 0E       		.uleb128 0xe
 4605 0042 3A       		.uleb128 0x3a
 4606 0043 0B       		.uleb128 0xb
 4607 0044 3B       		.uleb128 0x3b
 4608 0045 05       		.uleb128 0x5
 4609 0046 49       		.uleb128 0x49
 4610 0047 13       		.uleb128 0x13
 4611 0048 00       		.byte	0
 4612 0049 00       		.byte	0
 4613 004a 07       		.uleb128 0x7
 4614 004b 35       		.uleb128 0x35
 4615 004c 00       		.byte	0
 4616 004d 49       		.uleb128 0x49
 4617 004e 13       		.uleb128 0x13
 4618 004f 00       		.byte	0
 4619 0050 00       		.byte	0
 4620 0051 08       		.uleb128 0x8
 4621 0052 13       		.uleb128 0x13
 4622 0053 01       		.byte	0x1
 4623 0054 0B       		.uleb128 0xb
 4624 0055 0B       		.uleb128 0xb
 4625 0056 3A       		.uleb128 0x3a
 4626 0057 0B       		.uleb128 0xb
 4627 0058 3B       		.uleb128 0x3b
 4628 0059 0B       		.uleb128 0xb
 4629 005a 01       		.uleb128 0x1
 4630 005b 13       		.uleb128 0x13
 4631 005c 00       		.byte	0
 4632 005d 00       		.byte	0
 4633 005e 09       		.uleb128 0x9
 4634 005f 0D       		.uleb128 0xd
 4635 0060 00       		.byte	0
 4636 0061 03       		.uleb128 0x3
 4637 0062 0E       		.uleb128 0xe
 4638 0063 3A       		.uleb128 0x3a
 4639 0064 0B       		.uleb128 0xb
 4640 0065 3B       		.uleb128 0x3b
 4641 0066 0B       		.uleb128 0xb
 4642 0067 49       		.uleb128 0x49
 4643 0068 13       		.uleb128 0x13
 4644 0069 38       		.uleb128 0x38
 4645 006a 0B       		.uleb128 0xb
ARM GAS  C:\Users\kingi\AppData\Local\Temp\cc068PKu.s 			page 116


 4646 006b 00       		.byte	0
 4647 006c 00       		.byte	0
 4648 006d 0A       		.uleb128 0xa
 4649 006e 2E       		.uleb128 0x2e
 4650 006f 01       		.byte	0x1
 4651 0070 03       		.uleb128 0x3
 4652 0071 0E       		.uleb128 0xe
 4653 0072 3A       		.uleb128 0x3a
 4654 0073 0B       		.uleb128 0xb
 4655 0074 3B       		.uleb128 0x3b
 4656 0075 0B       		.uleb128 0xb
 4657 0076 27       		.uleb128 0x27
 4658 0077 19       		.uleb128 0x19
 4659 0078 11       		.uleb128 0x11
 4660 0079 01       		.uleb128 0x1
 4661 007a 12       		.uleb128 0x12
 4662 007b 06       		.uleb128 0x6
 4663 007c 40       		.uleb128 0x40
 4664 007d 18       		.uleb128 0x18
 4665 007e 9642     		.uleb128 0x2116
 4666 0080 19       		.uleb128 0x19
 4667 0081 01       		.uleb128 0x1
 4668 0082 13       		.uleb128 0x13
 4669 0083 00       		.byte	0
 4670 0084 00       		.byte	0
 4671 0085 0B       		.uleb128 0xb
 4672 0086 05       		.uleb128 0x5
 4673 0087 00       		.byte	0
 4674 0088 03       		.uleb128 0x3
 4675 0089 08       		.uleb128 0x8
 4676 008a 3A       		.uleb128 0x3a
 4677 008b 0B       		.uleb128 0xb
 4678 008c 3B       		.uleb128 0x3b
 4679 008d 0B       		.uleb128 0xb
 4680 008e 49       		.uleb128 0x49
 4681 008f 13       		.uleb128 0x13
 4682 0090 02       		.uleb128 0x2
 4683 0091 18       		.uleb128 0x18
 4684 0092 00       		.byte	0
 4685 0093 00       		.byte	0
 4686 0094 0C       		.uleb128 0xc
 4687 0095 05       		.uleb128 0x5
 4688 0096 00       		.byte	0
 4689 0097 03       		.uleb128 0x3
 4690 0098 0E       		.uleb128 0xe
 4691 0099 3A       		.uleb128 0x3a
 4692 009a 0B       		.uleb128 0xb
 4693 009b 3B       		.uleb128 0x3b
 4694 009c 0B       		.uleb128 0xb
 4695 009d 49       		.uleb128 0x49
 4696 009e 13       		.uleb128 0x13
 4697 009f 02       		.uleb128 0x2
 4698 00a0 18       		.uleb128 0x18
 4699 00a1 00       		.byte	0
 4700 00a2 00       		.byte	0
 4701 00a3 0D       		.uleb128 0xd
 4702 00a4 0F       		.uleb128 0xf
ARM GAS  C:\Users\kingi\AppData\Local\Temp\cc068PKu.s 			page 117


 4703 00a5 00       		.byte	0
 4704 00a6 0B       		.uleb128 0xb
 4705 00a7 0B       		.uleb128 0xb
 4706 00a8 49       		.uleb128 0x49
 4707 00a9 13       		.uleb128 0x13
 4708 00aa 00       		.byte	0
 4709 00ab 00       		.byte	0
 4710 00ac 0E       		.uleb128 0xe
 4711 00ad 26       		.uleb128 0x26
 4712 00ae 00       		.byte	0
 4713 00af 00       		.byte	0
 4714 00b0 00       		.byte	0
 4715 00b1 0F       		.uleb128 0xf
 4716 00b2 2E       		.uleb128 0x2e
 4717 00b3 01       		.byte	0x1
 4718 00b4 03       		.uleb128 0x3
 4719 00b5 0E       		.uleb128 0xe
 4720 00b6 3A       		.uleb128 0x3a
 4721 00b7 0B       		.uleb128 0xb
 4722 00b8 3B       		.uleb128 0x3b
 4723 00b9 0B       		.uleb128 0xb
 4724 00ba 27       		.uleb128 0x27
 4725 00bb 19       		.uleb128 0x19
 4726 00bc 11       		.uleb128 0x11
 4727 00bd 01       		.uleb128 0x1
 4728 00be 12       		.uleb128 0x12
 4729 00bf 06       		.uleb128 0x6
 4730 00c0 40       		.uleb128 0x40
 4731 00c1 18       		.uleb128 0x18
 4732 00c2 9742     		.uleb128 0x2117
 4733 00c4 19       		.uleb128 0x19
 4734 00c5 01       		.uleb128 0x1
 4735 00c6 13       		.uleb128 0x13
 4736 00c7 00       		.byte	0
 4737 00c8 00       		.byte	0
 4738 00c9 10       		.uleb128 0x10
 4739 00ca 34       		.uleb128 0x34
 4740 00cb 00       		.byte	0
 4741 00cc 03       		.uleb128 0x3
 4742 00cd 08       		.uleb128 0x8
 4743 00ce 3A       		.uleb128 0x3a
 4744 00cf 0B       		.uleb128 0xb
 4745 00d0 3B       		.uleb128 0x3b
 4746 00d1 0B       		.uleb128 0xb
 4747 00d2 49       		.uleb128 0x49
 4748 00d3 13       		.uleb128 0x13
 4749 00d4 02       		.uleb128 0x2
 4750 00d5 18       		.uleb128 0x18
 4751 00d6 00       		.byte	0
 4752 00d7 00       		.byte	0
 4753 00d8 11       		.uleb128 0x11
 4754 00d9 0B       		.uleb128 0xb
 4755 00da 01       		.byte	0x1
 4756 00db 11       		.uleb128 0x11
 4757 00dc 01       		.uleb128 0x1
 4758 00dd 12       		.uleb128 0x12
 4759 00de 06       		.uleb128 0x6
ARM GAS  C:\Users\kingi\AppData\Local\Temp\cc068PKu.s 			page 118


 4760 00df 00       		.byte	0
 4761 00e0 00       		.byte	0
 4762 00e1 12       		.uleb128 0x12
 4763 00e2 34       		.uleb128 0x34
 4764 00e3 00       		.byte	0
 4765 00e4 03       		.uleb128 0x3
 4766 00e5 0E       		.uleb128 0xe
 4767 00e6 3A       		.uleb128 0x3a
 4768 00e7 0B       		.uleb128 0xb
 4769 00e8 3B       		.uleb128 0x3b
 4770 00e9 0B       		.uleb128 0xb
 4771 00ea 49       		.uleb128 0x49
 4772 00eb 13       		.uleb128 0x13
 4773 00ec 02       		.uleb128 0x2
 4774 00ed 18       		.uleb128 0x18
 4775 00ee 00       		.byte	0
 4776 00ef 00       		.byte	0
 4777 00f0 13       		.uleb128 0x13
 4778 00f1 26       		.uleb128 0x26
 4779 00f2 00       		.byte	0
 4780 00f3 49       		.uleb128 0x49
 4781 00f4 13       		.uleb128 0x13
 4782 00f5 00       		.byte	0
 4783 00f6 00       		.byte	0
 4784 00f7 14       		.uleb128 0x14
 4785 00f8 01       		.uleb128 0x1
 4786 00f9 01       		.byte	0x1
 4787 00fa 49       		.uleb128 0x49
 4788 00fb 13       		.uleb128 0x13
 4789 00fc 01       		.uleb128 0x1
 4790 00fd 13       		.uleb128 0x13
 4791 00fe 00       		.byte	0
 4792 00ff 00       		.byte	0
 4793 0100 15       		.uleb128 0x15
 4794 0101 21       		.uleb128 0x21
 4795 0102 00       		.byte	0
 4796 0103 49       		.uleb128 0x49
 4797 0104 13       		.uleb128 0x13
 4798 0105 2F       		.uleb128 0x2f
 4799 0106 0B       		.uleb128 0xb
 4800 0107 00       		.byte	0
 4801 0108 00       		.byte	0
 4802 0109 16       		.uleb128 0x16
 4803 010a 2E       		.uleb128 0x2e
 4804 010b 01       		.byte	0x1
 4805 010c 03       		.uleb128 0x3
 4806 010d 0E       		.uleb128 0xe
 4807 010e 3A       		.uleb128 0x3a
 4808 010f 0B       		.uleb128 0xb
 4809 0110 3B       		.uleb128 0x3b
 4810 0111 05       		.uleb128 0x5
 4811 0112 27       		.uleb128 0x27
 4812 0113 19       		.uleb128 0x19
 4813 0114 11       		.uleb128 0x11
 4814 0115 01       		.uleb128 0x1
 4815 0116 12       		.uleb128 0x12
 4816 0117 06       		.uleb128 0x6
ARM GAS  C:\Users\kingi\AppData\Local\Temp\cc068PKu.s 			page 119


 4817 0118 40       		.uleb128 0x40
 4818 0119 18       		.uleb128 0x18
 4819 011a 9742     		.uleb128 0x2117
 4820 011c 19       		.uleb128 0x19
 4821 011d 01       		.uleb128 0x1
 4822 011e 13       		.uleb128 0x13
 4823 011f 00       		.byte	0
 4824 0120 00       		.byte	0
 4825 0121 17       		.uleb128 0x17
 4826 0122 34       		.uleb128 0x34
 4827 0123 00       		.byte	0
 4828 0124 03       		.uleb128 0x3
 4829 0125 0E       		.uleb128 0xe
 4830 0126 3A       		.uleb128 0x3a
 4831 0127 0B       		.uleb128 0xb
 4832 0128 3B       		.uleb128 0x3b
 4833 0129 05       		.uleb128 0x5
 4834 012a 49       		.uleb128 0x49
 4835 012b 13       		.uleb128 0x13
 4836 012c 02       		.uleb128 0x2
 4837 012d 18       		.uleb128 0x18
 4838 012e 00       		.byte	0
 4839 012f 00       		.byte	0
 4840 0130 18       		.uleb128 0x18
 4841 0131 2E       		.uleb128 0x2e
 4842 0132 01       		.byte	0x1
 4843 0133 3F       		.uleb128 0x3f
 4844 0134 19       		.uleb128 0x19
 4845 0135 03       		.uleb128 0x3
 4846 0136 0E       		.uleb128 0xe
 4847 0137 3A       		.uleb128 0x3a
 4848 0138 0B       		.uleb128 0xb
 4849 0139 3B       		.uleb128 0x3b
 4850 013a 05       		.uleb128 0x5
 4851 013b 27       		.uleb128 0x27
 4852 013c 19       		.uleb128 0x19
 4853 013d 11       		.uleb128 0x11
 4854 013e 01       		.uleb128 0x1
 4855 013f 12       		.uleb128 0x12
 4856 0140 06       		.uleb128 0x6
 4857 0141 40       		.uleb128 0x40
 4858 0142 18       		.uleb128 0x18
 4859 0143 9742     		.uleb128 0x2117
 4860 0145 19       		.uleb128 0x19
 4861 0146 01       		.uleb128 0x1
 4862 0147 13       		.uleb128 0x13
 4863 0148 00       		.byte	0
 4864 0149 00       		.byte	0
 4865 014a 19       		.uleb128 0x19
 4866 014b 05       		.uleb128 0x5
 4867 014c 00       		.byte	0
 4868 014d 03       		.uleb128 0x3
 4869 014e 0E       		.uleb128 0xe
 4870 014f 3A       		.uleb128 0x3a
 4871 0150 0B       		.uleb128 0xb
 4872 0151 3B       		.uleb128 0x3b
 4873 0152 05       		.uleb128 0x5
ARM GAS  C:\Users\kingi\AppData\Local\Temp\cc068PKu.s 			page 120


 4874 0153 49       		.uleb128 0x49
 4875 0154 13       		.uleb128 0x13
 4876 0155 02       		.uleb128 0x2
 4877 0156 18       		.uleb128 0x18
 4878 0157 00       		.byte	0
 4879 0158 00       		.byte	0
 4880 0159 1A       		.uleb128 0x1a
 4881 015a 2E       		.uleb128 0x2e
 4882 015b 01       		.byte	0x1
 4883 015c 3F       		.uleb128 0x3f
 4884 015d 19       		.uleb128 0x19
 4885 015e 03       		.uleb128 0x3
 4886 015f 0E       		.uleb128 0xe
 4887 0160 3A       		.uleb128 0x3a
 4888 0161 0B       		.uleb128 0xb
 4889 0162 3B       		.uleb128 0x3b
 4890 0163 05       		.uleb128 0x5
 4891 0164 27       		.uleb128 0x27
 4892 0165 19       		.uleb128 0x19
 4893 0166 11       		.uleb128 0x11
 4894 0167 01       		.uleb128 0x1
 4895 0168 12       		.uleb128 0x12
 4896 0169 06       		.uleb128 0x6
 4897 016a 40       		.uleb128 0x40
 4898 016b 18       		.uleb128 0x18
 4899 016c 9642     		.uleb128 0x2116
 4900 016e 19       		.uleb128 0x19
 4901 016f 01       		.uleb128 0x1
 4902 0170 13       		.uleb128 0x13
 4903 0171 00       		.byte	0
 4904 0172 00       		.byte	0
 4905 0173 1B       		.uleb128 0x1b
 4906 0174 13       		.uleb128 0x13
 4907 0175 01       		.byte	0x1
 4908 0176 0B       		.uleb128 0xb
 4909 0177 0B       		.uleb128 0xb
 4910 0178 3A       		.uleb128 0x3a
 4911 0179 0B       		.uleb128 0xb
 4912 017a 3B       		.uleb128 0x3b
 4913 017b 05       		.uleb128 0x5
 4914 017c 01       		.uleb128 0x1
 4915 017d 13       		.uleb128 0x13
 4916 017e 00       		.byte	0
 4917 017f 00       		.byte	0
 4918 0180 1C       		.uleb128 0x1c
 4919 0181 0D       		.uleb128 0xd
 4920 0182 00       		.byte	0
 4921 0183 03       		.uleb128 0x3
 4922 0184 0E       		.uleb128 0xe
 4923 0185 3A       		.uleb128 0x3a
 4924 0186 0B       		.uleb128 0xb
 4925 0187 3B       		.uleb128 0x3b
 4926 0188 05       		.uleb128 0x5
 4927 0189 49       		.uleb128 0x49
 4928 018a 13       		.uleb128 0x13
 4929 018b 38       		.uleb128 0x38
 4930 018c 0B       		.uleb128 0xb
ARM GAS  C:\Users\kingi\AppData\Local\Temp\cc068PKu.s 			page 121


 4931 018d 00       		.byte	0
 4932 018e 00       		.byte	0
 4933 018f 1D       		.uleb128 0x1d
 4934 0190 0D       		.uleb128 0xd
 4935 0191 00       		.byte	0
 4936 0192 03       		.uleb128 0x3
 4937 0193 08       		.uleb128 0x8
 4938 0194 3A       		.uleb128 0x3a
 4939 0195 0B       		.uleb128 0xb
 4940 0196 3B       		.uleb128 0x3b
 4941 0197 05       		.uleb128 0x5
 4942 0198 49       		.uleb128 0x49
 4943 0199 13       		.uleb128 0x13
 4944 019a 38       		.uleb128 0x38
 4945 019b 0B       		.uleb128 0xb
 4946 019c 00       		.byte	0
 4947 019d 00       		.byte	0
 4948 019e 1E       		.uleb128 0x1e
 4949 019f 34       		.uleb128 0x34
 4950 01a0 00       		.byte	0
 4951 01a1 03       		.uleb128 0x3
 4952 01a2 08       		.uleb128 0x8
 4953 01a3 3A       		.uleb128 0x3a
 4954 01a4 0B       		.uleb128 0xb
 4955 01a5 3B       		.uleb128 0x3b
 4956 01a6 05       		.uleb128 0x5
 4957 01a7 49       		.uleb128 0x49
 4958 01a8 13       		.uleb128 0x13
 4959 01a9 02       		.uleb128 0x2
 4960 01aa 18       		.uleb128 0x18
 4961 01ab 00       		.byte	0
 4962 01ac 00       		.byte	0
 4963 01ad 1F       		.uleb128 0x1f
 4964 01ae 0B       		.uleb128 0xb
 4965 01af 01       		.byte	0x1
 4966 01b0 11       		.uleb128 0x11
 4967 01b1 01       		.uleb128 0x1
 4968 01b2 12       		.uleb128 0x12
 4969 01b3 06       		.uleb128 0x6
 4970 01b4 01       		.uleb128 0x1
 4971 01b5 13       		.uleb128 0x13
 4972 01b6 00       		.byte	0
 4973 01b7 00       		.byte	0
 4974 01b8 20       		.uleb128 0x20
 4975 01b9 21       		.uleb128 0x21
 4976 01ba 00       		.byte	0
 4977 01bb 49       		.uleb128 0x49
 4978 01bc 13       		.uleb128 0x13
 4979 01bd 2F       		.uleb128 0x2f
 4980 01be 05       		.uleb128 0x5
 4981 01bf 00       		.byte	0
 4982 01c0 00       		.byte	0
 4983 01c1 00       		.byte	0
 4984              		.section	.debug_aranges,"",%progbits
 4985 0000 5C000000 		.4byte	0x5c
 4986 0004 0200     		.2byte	0x2
 4987 0006 00000000 		.4byte	.Ldebug_info0
ARM GAS  C:\Users\kingi\AppData\Local\Temp\cc068PKu.s 			page 122


 4988 000a 04       		.byte	0x4
 4989 000b 00       		.byte	0
 4990 000c 0000     		.2byte	0
 4991 000e 0000     		.2byte	0
 4992 0010 00000000 		.4byte	.LFB0
 4993 0014 1A000000 		.4byte	.LFE0-.LFB0
 4994 0018 00000000 		.4byte	.LFB1
 4995 001c 1C000000 		.4byte	.LFE1-.LFB1
 4996 0020 00000000 		.4byte	.LFB2
 4997 0024 1C000000 		.4byte	.LFE2-.LFB2
 4998 0028 00000000 		.4byte	.LFB3
 4999 002c 0C000000 		.4byte	.LFE3-.LFB3
 5000 0030 00000000 		.4byte	.LFB4
 5001 0034 74000000 		.4byte	.LFE4-.LFB4
 5002 0038 00000000 		.4byte	.LFB5
 5003 003c 3C010000 		.4byte	.LFE5-.LFB5
 5004 0040 00000000 		.4byte	.LFB6
 5005 0044 44000000 		.4byte	.LFE6-.LFB6
 5006 0048 00000000 		.4byte	.LFB7
 5007 004c 28000000 		.4byte	.LFE7-.LFB7
 5008 0050 00000000 		.4byte	.LFB8
 5009 0054 70010000 		.4byte	.LFE8-.LFB8
 5010 0058 00000000 		.4byte	0
 5011 005c 00000000 		.4byte	0
 5012              		.section	.debug_ranges,"",%progbits
 5013              	.Ldebug_ranges0:
 5014 0000 00000000 		.4byte	.LFB0
 5015 0004 1A000000 		.4byte	.LFE0
 5016 0008 00000000 		.4byte	.LFB1
 5017 000c 1C000000 		.4byte	.LFE1
 5018 0010 00000000 		.4byte	.LFB2
 5019 0014 1C000000 		.4byte	.LFE2
 5020 0018 00000000 		.4byte	.LFB3
 5021 001c 0C000000 		.4byte	.LFE3
 5022 0020 00000000 		.4byte	.LFB4
 5023 0024 74000000 		.4byte	.LFE4
 5024 0028 00000000 		.4byte	.LFB5
 5025 002c 3C010000 		.4byte	.LFE5
 5026 0030 00000000 		.4byte	.LFB6
 5027 0034 44000000 		.4byte	.LFE6
 5028 0038 00000000 		.4byte	.LFB7
 5029 003c 28000000 		.4byte	.LFE7
 5030 0040 00000000 		.4byte	.LFB8
 5031 0044 70010000 		.4byte	.LFE8
 5032 0048 00000000 		.4byte	0
 5033 004c 00000000 		.4byte	0
 5034              		.section	.debug_line,"",%progbits
 5035              	.Ldebug_line0:
 5036 0000 1D020000 		.section	.debug_str,"MS",%progbits,1
 5036      0200CD00 
 5036      00000201 
 5036      FB0E0D00 
 5036      01010101 
 5037              	.LASF13:
 5038 0000 75696E74 		.ascii	"uint16\000"
 5038      313600
 5039              	.LASF31:
ARM GAS  C:\Users\kingi\AppData\Local\Temp\cc068PKu.s 			page 123


 5040 0007 62617365 		.ascii	"baseAddr\000"
 5040      41646472 
 5040      00
 5041              	.LASF11:
 5042 0010 73697A65 		.ascii	"size_t\000"
 5042      5F7400
 5043              	.LASF26:
 5044 0017 4379436C 		.ascii	"CyClockStartupError\000"
 5044      6F636B53 
 5044      74617274 
 5044      75704572 
 5044      726F7200 
 5045              	.LASF30:
 5046 002b 64617461 		.ascii	"data_table\000"
 5046      5F746162 
 5046      6C6500
 5047              	.LASF8:
 5048 0036 6C6F6E67 		.ascii	"long long unsigned int\000"
 5048      206C6F6E 
 5048      6720756E 
 5048      7369676E 
 5048      65642069 
 5049              	.LASF29:
 5050 004d 61646472 		.ascii	"addr_table\000"
 5050      5F746162 
 5050      6C6500
 5051              	.LASF47:
 5052 0058 63795F63 		.ascii	"cy_cfg_data_table\000"
 5052      66675F64 
 5052      6174615F 
 5052      7461626C 
 5052      6500
 5053              	.LASF34:
 5054 006a 42535F43 		.ascii	"BS_CYDEV_CLKDIST_ACFG0_CFG0_VAL\000"
 5054      59444556 
 5054      5F434C4B 
 5054      44495354 
 5054      5F414346 
 5055              	.LASF37:
 5056 008a 416E616C 		.ascii	"AnalogSetDefault\000"
 5056      6F675365 
 5056      74446566 
 5056      61756C74 
 5056      00
 5057              	.LASF7:
 5058 009b 6C6F6E67 		.ascii	"long long int\000"
 5058      206C6F6E 
 5058      6720696E 
 5058      7400
 5059              	.LASF1:
 5060 00a9 7369676E 		.ascii	"signed char\000"
 5060      65642063 
 5060      68617200 
 5061              	.LASF46:
 5062 00b5 63795F63 		.ascii	"cy_cfg_addr_table\000"
 5062      66675F61 
 5062      6464725F 
ARM GAS  C:\Users\kingi\AppData\Local\Temp\cc068PKu.s 			page 124


 5062      7461626C 
 5062      6500
 5063              	.LASF22:
 5064 00c7 43594D45 		.ascii	"CYMEMZERO\000"
 5064      4D5A4552 
 5064      4F00
 5065              	.LASF33:
 5066 00d1 436C6F63 		.ascii	"ClockSetup\000"
 5066      6B536574 
 5066      757000
 5067              	.LASF27:
 5068 00dc 6572726F 		.ascii	"errorCode\000"
 5068      72436F64 
 5068      6500
 5069              	.LASF45:
 5070 00e6 42535F49 		.ascii	"BS_IOPINS0_4_VAL\000"
 5070      4F50494E 
 5070      53305F34 
 5070      5F56414C 
 5070      00
 5071              	.LASF5:
 5072 00f7 6C6F6E67 		.ascii	"long int\000"
 5072      20696E74 
 5072      00
 5073              	.LASF18:
 5074 0100 72656731 		.ascii	"reg16\000"
 5074      3600
 5075              	.LASF12:
 5076 0106 75696E74 		.ascii	"uint8\000"
 5076      3800
 5077              	.LASF16:
 5078 010c 646F7562 		.ascii	"double\000"
 5078      6C6500
 5079              	.LASF14:
 5080 0113 75696E74 		.ascii	"uint32\000"
 5080      333200
 5081              	.LASF32:
 5082 011a 636F756E 		.ascii	"count\000"
 5082      7400
 5083              	.LASF40:
 5084 0120 72656756 		.ascii	"regValue\000"
 5084      616C7565 
 5084      00
 5085              	.LASF44:
 5086 0129 42535F49 		.ascii	"BS_IOPINS0_1_VAL\000"
 5086      4F50494E 
 5086      53305F31 
 5086      5F56414C 
 5086      00
 5087              	.LASF20:
 5088 013a 76616C75 		.ascii	"value\000"
 5088      6500
 5089              	.LASF0:
 5090 0140 756E7369 		.ascii	"unsigned int\000"
 5090      676E6564 
 5090      20696E74 
 5090      00
ARM GAS  C:\Users\kingi\AppData\Local\Temp\cc068PKu.s 			page 125


 5091              	.LASF57:
 5092 014d 6E756D42 		.ascii	"numBytes\000"
 5092      79746573 
 5092      00
 5093              	.LASF59:
 5094 0156 2E5C4765 		.ascii	".\\Generated_Source\\PSoC5\\cyfitter_cfg.c\000"
 5094      6E657261 
 5094      7465645F 
 5094      536F7572 
 5094      63655C50 
 5095              	.LASF6:
 5096 017e 6C6F6E67 		.ascii	"long unsigned int\000"
 5096      20756E73 
 5096      69676E65 
 5096      6420696E 
 5096      7400
 5097              	.LASF35:
 5098 0190 74696D65 		.ascii	"timeout\000"
 5098      6F757400 
 5099              	.LASF51:
 5100 0198 6366675F 		.ascii	"cfg_memcpy_t\000"
 5100      6D656D63 
 5100      70795F74 
 5100      00
 5101              	.LASF28:
 5102 01a5 6366675F 		.ascii	"cfg_write_bytes32\000"
 5102      77726974 
 5102      655F6279 
 5102      74657333 
 5102      3200
 5103              	.LASF49:
 5104 01b7 73697A65 		.ascii	"size\000"
 5104      00
 5105              	.LASF4:
 5106 01bc 73686F72 		.ascii	"short unsigned int\000"
 5106      7420756E 
 5106      7369676E 
 5106      65642069 
 5106      6E7400
 5107              	.LASF25:
 5108 01cf 4359434F 		.ascii	"CYCONFIGCPYCODE\000"
 5108      4E464947 
 5108      43505943 
 5108      4F444500 
 5109              	.LASF9:
 5110 01df 73697A65 		.ascii	"sizetype\000"
 5110      74797065 
 5110      00
 5111              	.LASF38:
 5112 01e8 62675F78 		.ascii	"bg_xover_inl_trim\000"
 5112      6F766572 
 5112      5F696E6C 
 5112      5F747269 
 5112      6D00
 5113              	.LASF50:
 5114 01fa 6366675F 		.ascii	"cfg_memset_t\000"
 5114      6D656D73 
ARM GAS  C:\Users\kingi\AppData\Local\Temp\cc068PKu.s 			page 126


 5114      65745F74 
 5114      00
 5115              	.LASF58:
 5116 0207 474E5520 		.ascii	"GNU C 4.9.3 20150303 (release) [ARM/embedded-4_9-br"
 5116      4320342E 
 5116      392E3320 
 5116      32303135 
 5116      30333033 
 5117 023a 616E6368 		.ascii	"anch revision 221220] -mcpu=cortex-m3 -mthumb -g -O"
 5117      20726576 
 5117      6973696F 
 5117      6E203232 
 5117      31323230 
 5118 026d 30202D66 		.ascii	"0 -ffunction-sections -ffat-lto-objects\000"
 5118      66756E63 
 5118      74696F6E 
 5118      2D736563 
 5118      74696F6E 
 5119              	.LASF52:
 5120 0295 6366675F 		.ascii	"cfg_memset_list\000"
 5120      6D656D73 
 5120      65745F6C 
 5120      69737400 
 5121              	.LASF24:
 5122 02a5 64657374 		.ascii	"dest\000"
 5122      00
 5123              	.LASF15:
 5124 02aa 666C6F61 		.ascii	"float\000"
 5124      7400
 5125              	.LASF55:
 5126 02b0 64657374 		.ascii	"destPtr\000"
 5126      50747200 
 5127              	.LASF17:
 5128 02b8 72656738 		.ascii	"reg8\000"
 5128      00
 5129              	.LASF2:
 5130 02bd 756E7369 		.ascii	"unsigned char\000"
 5130      676E6564 
 5130      20636861 
 5130      7200
 5131              	.LASF3:
 5132 02cb 73686F72 		.ascii	"short int\000"
 5132      7420696E 
 5132      7400
 5133              	.LASF43:
 5134 02d5 42535F49 		.ascii	"BS_IOPINS0_0_VAL\000"
 5134      4F50494E 
 5134      53305F30 
 5134      5F56414C 
 5134      00
 5135              	.LASF36:
 5136 02e6 706C6C4C 		.ascii	"pllLock\000"
 5136      6F636B00 
 5137              	.LASF21:
 5138 02ee 63795F63 		.ascii	"cy_cfg_addrvalue_t\000"
 5138      66675F61 
 5138      64647276 
ARM GAS  C:\Users\kingi\AppData\Local\Temp\cc068PKu.s 			page 127


 5138      616C7565 
 5138      5F7400
 5139              	.LASF10:
 5140 0301 63686172 		.ascii	"char\000"
 5140      00
 5141              	.LASF53:
 5142 0306 42535F55 		.ascii	"BS_UDB_1_3_0_CONFIG_VAL\000"
 5142      44425F31 
 5142      5F335F30 
 5142      5F434F4E 
 5142      4649475F 
 5143              	.LASF56:
 5144 031e 73726350 		.ascii	"srcPtr\000"
 5144      747200
 5145              	.LASF60:
 5146 0325 443A5C50 		.ascii	"D:\\Projects\\ESD\\Servo\\Workspace\\Servo.cydsn\000"
 5146      726F6A65 
 5146      6374735C 
 5146      4553445C 
 5146      53657276 
 5147              	.LASF41:
 5148 0351 53657441 		.ascii	"SetAnalogRoutingPumps\000"
 5148      6E616C6F 
 5148      67526F75 
 5148      74696E67 
 5148      50756D70 
 5149              	.LASF19:
 5150 0367 6F666673 		.ascii	"offset\000"
 5150      657400
 5151              	.LASF39:
 5152 036e 656E6162 		.ascii	"enabled\000"
 5152      6C656400 
 5153              	.LASF23:
 5154 0376 4359434F 		.ascii	"CYCONFIGCPY\000"
 5154      4E464947 
 5154      43505900 
 5155              	.LASF48:
 5156 0382 61646472 		.ascii	"address\000"
 5156      65737300 
 5157              	.LASF54:
 5158 038a 6366675F 		.ascii	"cfg_memcpy_list\000"
 5158      6D656D63 
 5158      70795F6C 
 5158      69737400 
 5159              	.LASF42:
 5160 039a 63796669 		.ascii	"cyfitter_cfg\000"
 5160      74746572 
 5160      5F636667 
 5160      00
 5161              		.ident	"GCC: (GNU Tools for ARM Embedded Processors) 4.9.3 20150303 (release) [ARM/embedded-4_9-br
