ARM GAS  C:\Users\kingi\AppData\Local\Temp\ccZ0JRcD.s 			page 1


   1              		.syntax unified
   2              		.cpu cortex-m3
   3              		.fpu softvfp
   4              		.eabi_attribute 20, 1
   5              		.eabi_attribute 21, 1
   6              		.eabi_attribute 23, 3
   7              		.eabi_attribute 24, 1
   8              		.eabi_attribute 25, 1
   9              		.eabi_attribute 26, 1
  10              		.eabi_attribute 30, 6
  11              		.eabi_attribute 34, 1
  12              		.eabi_attribute 18, 4
  13              		.thumb
  14              		.file	"main.c"
  15              		.text
  16              	.Ltext0:
  17              		.cfi_sections	.debug_frame
  18              		.global _printf_float
  19              		.thumb
  20              		.section	.text.main,"ax",%progbits
  21              		.align	2
  22              		.global	main
  23              		.thumb
  24              		.thumb_func
  25              		.type	main, %function
  26              	main:
  27              	.LFB63:
  28              		.file 1 ".\\main.c"
   1:.\main.c      **** /*******************************************************************************
   2:.\main.c      **** * File Name: main.c
   3:.\main.c      **** *
   4:.\main.c      **** * Version: 2.0
   5:.\main.c      **** *
   6:.\main.c      **** * Description:
   7:.\main.c      **** *   The component is enumerated as a Virtual Com port. Receives data from the 
   8:.\main.c      **** *   hyper terminal, then sends back the received data.
   9:.\main.c      **** *   For PSoC3/PSoC5LP, the LCD shows the line settings.
  10:.\main.c      **** *
  11:.\main.c      **** * Related Document:
  12:.\main.c      **** *  Universal Serial Bus Specification Revision 2.0
  13:.\main.c      **** *  Universal Serial Bus Class Definitions for Communications Devices
  14:.\main.c      **** *  Revision 1.2
  15:.\main.c      **** *
  16:.\main.c      **** ********************************************************************************
  17:.\main.c      **** * Copyright 2015, Cypress Semiconductor Corporation. All rights reserved.
  18:.\main.c      **** * This software is owned by Cypress Semiconductor Corporation and is protected
  19:.\main.c      **** * by and subject to worldwide patent and copyright laws and treaties.
  20:.\main.c      **** * Therefore, you may use this software only as provided in the license agreement
  21:.\main.c      **** * accompanying the software package from which you obtained this software.
  22:.\main.c      **** * CYPRESS AND ITS SUPPLIERS MAKE NO WARRANTY OF ANY KIND, EXPRESS OR IMPLIED,
  23:.\main.c      **** * WITH REGARD TO THIS SOFTWARE, INCLUDING, BUT NOT LIMITED TO, NONINFRINGEMENT,
  24:.\main.c      **** * IMPLIED WARRANTIES OF MERCHANTABILITY AND FITNESS FOR A PARTICULAR PURPOSE.
  25:.\main.c      **** *******************************************************************************/
  26:.\main.c      **** 
  27:.\main.c      **** #include <project.h>
  28:.\main.c      **** #include "stdio.h"
  29:.\main.c      **** 
ARM GAS  C:\Users\kingi\AppData\Local\Temp\ccZ0JRcD.s 			page 2


  30:.\main.c      **** #include "ServoMotor.h"
  31:.\main.c      **** 
  32:.\main.c      **** #if defined (__GNUC__)
  33:.\main.c      ****     /* Add an explicit reference to the floating point printf library */
  34:.\main.c      ****     /* to allow usage of the floating point conversion specifiers. */
  35:.\main.c      ****     /* This is not linked in by default with the newlib-nano library. */
  36:.\main.c      ****     asm (".global _printf_float");
  37:.\main.c      **** #endif
  38:.\main.c      **** 
  39:.\main.c      **** #define USBFS_DEVICE    (0u)
  40:.\main.c      **** 
  41:.\main.c      **** /* The buffer size is equal to the maximum packet size of the IN and OUT bulk
  42:.\main.c      **** * endpoints.
  43:.\main.c      **** */
  44:.\main.c      **** 
  45:.\main.c      **** 
  46:.\main.c      **** 
  47:.\main.c      **** /*******************************************************************************
  48:.\main.c      **** * Function Name: main
  49:.\main.c      **** ********************************************************************************
  50:.\main.c      **** *
  51:.\main.c      **** * Summary:
  52:.\main.c      **** *  The main function performs the following actions:
  53:.\main.c      **** *   1. Waits until VBUS becomes valid and starts the USBFS component which is
  54:.\main.c      **** *      enumerated as virtual Com port.
  55:.\main.c      **** *   2. Waits until the device is enumerated by the host.
  56:.\main.c      **** *   3. Waits for data coming from the hyper terminal and sends it back.
  57:.\main.c      **** *   4. PSoC3/PSoC5LP: the LCD shows the line settings.
  58:.\main.c      **** *
  59:.\main.c      **** * Parameters:
  60:.\main.c      **** *  None.
  61:.\main.c      **** *
  62:.\main.c      **** * Return:
  63:.\main.c      **** *  None.
  64:.\main.c      **** *
  65:.\main.c      **** *******************************************************************************/
  66:.\main.c      **** 
  67:.\main.c      **** 
  68:.\main.c      **** int main()
  69:.\main.c      **** {
  29              		.loc 1 69 0
  30              		.cfi_startproc
  31              		@ args = 0, pretend = 0, frame = 8
  32              		@ frame_needed = 1, uses_anonymous_args = 0
  33 0000 80B5     		push	{r7, lr}
  34              		.cfi_def_cfa_offset 8
  35              		.cfi_offset 7, -8
  36              		.cfi_offset 14, -4
  37 0002 82B0     		sub	sp, sp, #8
  38              		.cfi_def_cfa_offset 16
  39 0004 00AF     		add	r7, sp, #0
  40              		.cfi_def_cfa_register 7
  70:.\main.c      ****     
  71:.\main.c      ****     CyGlobalIntEnable;
  41              		.loc 1 71 0
  42              	@ 71 ".\main.c" 1
  43 0006 62B6     		CPSIE   i
ARM GAS  C:\Users\kingi\AppData\Local\Temp\ccZ0JRcD.s 			page 3


  44              	@ 0 "" 2
  72:.\main.c      **** 
  73:.\main.c      ****     
  74:.\main.c      ****     UART_1_Start();
  45              		.loc 1 74 0
  46              		.thumb
  47 0008 FFF7FEFF 		bl	UART_1_Start
  75:.\main.c      ****     UART_2_Start();
  48              		.loc 1 75 0
  49 000c FFF7FEFF 		bl	UART_2_Start
  76:.\main.c      ****     UART_3_Start();
  50              		.loc 1 76 0
  51 0010 FFF7FEFF 		bl	UART_3_Start
  77:.\main.c      ****     
  78:.\main.c      ****     SetMotorMode(ID_LEFT);
  52              		.loc 1 78 0
  53 0014 0120     		movs	r0, #1
  54 0016 FFF7FEFF 		bl	SetMotorMode
  79:.\main.c      ****     SetMotorMode(ID_RIGHT);
  55              		.loc 1 79 0
  56 001a 0320     		movs	r0, #3
  57 001c FFF7FEFF 		bl	SetMotorMode
  80:.\main.c      ****     
  81:.\main.c      ****     CyDelay(500);
  58              		.loc 1 81 0
  59 0020 4FF4FA70 		mov	r0, #500
  60 0024 FFF7FEFF 		bl	CyDelay
  82:.\main.c      ****     
  83:.\main.c      ****     SetMotorSpeed(ID_LEFT, 512, 0x10);
  61              		.loc 1 83 0
  62 0028 0120     		movs	r0, #1
  63 002a 4FF40071 		mov	r1, #512
  64 002e 1022     		movs	r2, #16
  65 0030 FFF7FEFF 		bl	SetMotorSpeed
  84:.\main.c      ****     
  85:.\main.c      ****     CyDelay(500);
  66              		.loc 1 85 0
  67 0034 4FF4FA70 		mov	r0, #500
  68 0038 FFF7FEFF 		bl	CyDelay
  86:.\main.c      ****     
  87:.\main.c      ****     SetMotorSpeed(ID_RIGHT, -512, 0x10);
  69              		.loc 1 87 0
  70 003c 0320     		movs	r0, #3
  71 003e 1049     		ldr	r1, .L5
  72 0040 1022     		movs	r2, #16
  73 0042 FFF7FEFF 		bl	SetMotorSpeed
  88:.\main.c      ****     
  89:.\main.c      ****     CyDelay(500);
  74              		.loc 1 89 0
  75 0046 4FF4FA70 		mov	r0, #500
  76 004a FFF7FEFF 		bl	CyDelay
  77              	.L4:
  78              	.LBB2:
  90:.\main.c      ****     
  91:.\main.c      ****     
  92:.\main.c      ****     while (1) 
  93:.\main.c      ****     {
ARM GAS  C:\Users\kingi\AppData\Local\Temp\ccZ0JRcD.s 			page 4


  94:.\main.c      ****         uint8 i;
  95:.\main.c      ****         for (i = 0; i < 0xF; i++)
  79              		.loc 1 95 0
  80 004e 0023     		movs	r3, #0
  81 0050 FB71     		strb	r3, [r7, #7]
  82 0052 10E0     		b	.L2
  83              	.L3:
  96:.\main.c      ****         {
  97:.\main.c      ****             SetServoPosition(ID_TOP, 0x40 * i, 0x03ff);
  84              		.loc 1 97 0 discriminator 3
  85 0054 FB79     		ldrb	r3, [r7, #7]	@ zero_extendqisi2
  86 0056 9BB2     		uxth	r3, r3
  87 0058 9B01     		lsls	r3, r3, #6
  88 005a 9BB2     		uxth	r3, r3
  89 005c 0420     		movs	r0, #4
  90 005e 1946     		mov	r1, r3
  91 0060 40F2FF32 		movw	r2, #1023
  92 0064 FFF7FEFF 		bl	SetServoPosition
  98:.\main.c      ****             CyDelay(500);
  93              		.loc 1 98 0 discriminator 3
  94 0068 4FF4FA70 		mov	r0, #500
  95 006c FFF7FEFF 		bl	CyDelay
  95:.\main.c      ****         {
  96              		.loc 1 95 0 discriminator 3
  97 0070 FB79     		ldrb	r3, [r7, #7]	@ zero_extendqisi2
  98 0072 0133     		adds	r3, r3, #1
  99 0074 FB71     		strb	r3, [r7, #7]
 100              	.L2:
  95:.\main.c      ****         {
 101              		.loc 1 95 0 is_stmt 0 discriminator 1
 102 0076 FB79     		ldrb	r3, [r7, #7]	@ zero_extendqisi2
 103 0078 0E2B     		cmp	r3, #14
 104 007a EBD9     		bls	.L3
 105              	.LBE2:
  99:.\main.c      ****         }
 100:.\main.c      ****     }
 106              		.loc 1 100 0 is_stmt 1
 107 007c E7E7     		b	.L4
 108              	.L6:
 109 007e 00BF     		.align	2
 110              	.L5:
 111 0080 00FEFFFF 		.word	-512
 112              		.cfi_endproc
 113              	.LFE63:
 114              		.size	main, .-main
 115              		.text
 116              	.Letext0:
 117              		.file 2 "c:\\program files (x86)\\cypress\\psoc creator\\3.3\\psoc creator\\import\\gnu\\arm\\4.9.
 118              		.file 3 "c:\\program files (x86)\\cypress\\psoc creator\\3.3\\psoc creator\\import\\gnu\\arm\\4.9.
 119              		.file 4 "Generated_Source\\PSoC5/cytypes.h"
 120              		.file 5 "Generated_Source\\PSoC5/core_cm3.h"