ARM GAS  C:\Users\kingi\AppData\Local\Temp\ccANxde9.s 			page 1


   1              		.syntax unified
   2              		.cpu cortex-m3
   3              		.fpu softvfp
   4              		.eabi_attribute 20, 1
   5              		.eabi_attribute 21, 1
   6              		.eabi_attribute 23, 3
   7              		.eabi_attribute 24, 1
   8              		.eabi_attribute 25, 1
   9              		.eabi_attribute 26, 1
  10              		.eabi_attribute 30, 6
  11              		.eabi_attribute 34, 1
  12              		.eabi_attribute 18, 4
  13              		.thumb
  14              		.file	"ServoMotor.c"
  15              		.text
  16              	.Ltext0:
  17              		.cfi_sections	.debug_frame
  18              		.section	.text.SetServoPosition,"ax",%progbits
  19              		.align	2
  20              		.global	SetServoPosition
  21              		.thumb
  22              		.thumb_func
  23              		.type	SetServoPosition, %function
  24              	SetServoPosition:
  25              	.LFB63:
  26              		.file 1 ".\\ServoMotor.c"
   1:.\ServoMotor.c **** // author: Fan JIN
   2:.\ServoMotor.c **** 
   3:.\ServoMotor.c **** #include "ServoMotor.h"
   4:.\ServoMotor.c **** #include "stdio.h"
   5:.\ServoMotor.c **** 
   6:.\ServoMotor.c **** void SetServoPosition(uint8 id, uint16 position, uint16 speed)
   7:.\ServoMotor.c **** {
  27              		.loc 1 7 0
  28              		.cfi_startproc
  29              		@ args = 0, pretend = 0, frame = 16
  30              		@ frame_needed = 1, uses_anonymous_args = 0
  31 0000 80B5     		push	{r7, lr}
  32              		.cfi_def_cfa_offset 8
  33              		.cfi_offset 7, -8
  34              		.cfi_offset 14, -4
  35 0002 84B0     		sub	sp, sp, #16
  36              		.cfi_def_cfa_offset 24
  37 0004 00AF     		add	r7, sp, #0
  38              		.cfi_def_cfa_register 7
  39 0006 0346     		mov	r3, r0
  40 0008 FB71     		strb	r3, [r7, #7]
  41 000a 0B46     		mov	r3, r1	@ movhi
  42 000c BB80     		strh	r3, [r7, #4]	@ movhi
  43 000e 1346     		mov	r3, r2	@ movhi
  44 0010 7B80     		strh	r3, [r7, #2]	@ movhi
   8:.\ServoMotor.c ****     // position ranges from 0x0000 to 0x03ff
   9:.\ServoMotor.c ****     
  10:.\ServoMotor.c ****     uint8 checksum;
  11:.\ServoMotor.c ****     checksum = ID + 0x07 + 0x03 + 0x1e + (position & 0xFF) + (position >> 8) + (speed & 0xff) + (sp
  45              		.loc 1 11 0
  46 0012 BB88     		ldrh	r3, [r7, #4]	@ movhi
ARM GAS  C:\Users\kingi\AppData\Local\Temp\ccANxde9.s 			page 2


  47 0014 DAB2     		uxtb	r2, r3
  48 0016 BB88     		ldrh	r3, [r7, #4]
  49 0018 1B0A     		lsrs	r3, r3, #8
  50 001a 9BB2     		uxth	r3, r3
  51 001c DBB2     		uxtb	r3, r3
  52 001e 1344     		add	r3, r3, r2
  53 0020 DAB2     		uxtb	r2, r3
  54 0022 7B88     		ldrh	r3, [r7, #2]	@ movhi
  55 0024 DBB2     		uxtb	r3, r3
  56 0026 1344     		add	r3, r3, r2
  57 0028 DAB2     		uxtb	r2, r3
  58 002a 7B88     		ldrh	r3, [r7, #2]
  59 002c 1B0A     		lsrs	r3, r3, #8
  60 002e 9BB2     		uxth	r3, r3
  61 0030 DBB2     		uxtb	r3, r3
  62 0032 1344     		add	r3, r3, r2
  63 0034 DBB2     		uxtb	r3, r3
  64 0036 2633     		adds	r3, r3, #38
  65 0038 FB73     		strb	r3, [r7, #15]
  12:.\ServoMotor.c ****     checksum ^= 0xFF;
  66              		.loc 1 12 0
  67 003a FB7B     		ldrb	r3, [r7, #15]
  68 003c DB43     		mvns	r3, r3
  69 003e FB73     		strb	r3, [r7, #15]
  13:.\ServoMotor.c ****     
  14:.\ServoMotor.c ****     if (id == _TOP)
  70              		.loc 1 14 0
  71 0040 FB79     		ldrb	r3, [r7, #7]	@ zero_extendqisi2
  72 0042 002B     		cmp	r3, #0
  73 0044 30D1     		bne	.L1
  15:.\ServoMotor.c ****     {
  16:.\ServoMotor.c ****         UART_1_PutChar(0xff);
  74              		.loc 1 16 0
  75 0046 FF20     		movs	r0, #255
  76 0048 FFF7FEFF 		bl	UART_1_PutChar
  17:.\ServoMotor.c ****         UART_1_PutChar(0xff);
  77              		.loc 1 17 0
  78 004c FF20     		movs	r0, #255
  79 004e FFF7FEFF 		bl	UART_1_PutChar
  18:.\ServoMotor.c ****         UART_1_PutChar(ID);
  80              		.loc 1 18 0
  81 0052 FE20     		movs	r0, #254
  82 0054 FFF7FEFF 		bl	UART_1_PutChar
  19:.\ServoMotor.c ****         UART_1_PutChar(0x07);
  83              		.loc 1 19 0
  84 0058 0720     		movs	r0, #7
  85 005a FFF7FEFF 		bl	UART_1_PutChar
  20:.\ServoMotor.c ****         UART_1_PutChar(0x03);
  86              		.loc 1 20 0
  87 005e 0320     		movs	r0, #3
  88 0060 FFF7FEFF 		bl	UART_1_PutChar
  21:.\ServoMotor.c ****         UART_1_PutChar(0x1e);
  89              		.loc 1 21 0
  90 0064 1E20     		movs	r0, #30
  91 0066 FFF7FEFF 		bl	UART_1_PutChar
  22:.\ServoMotor.c ****         UART_1_PutChar(position & 0xFF);
  92              		.loc 1 22 0
ARM GAS  C:\Users\kingi\AppData\Local\Temp\ccANxde9.s 			page 3


  93 006a BB88     		ldrh	r3, [r7, #4]	@ movhi
  94 006c DBB2     		uxtb	r3, r3
  95 006e 1846     		mov	r0, r3
  96 0070 FFF7FEFF 		bl	UART_1_PutChar
  23:.\ServoMotor.c ****         UART_1_PutChar(position >> 8);
  97              		.loc 1 23 0
  98 0074 BB88     		ldrh	r3, [r7, #4]
  99 0076 1B0A     		lsrs	r3, r3, #8
 100 0078 9BB2     		uxth	r3, r3
 101 007a DBB2     		uxtb	r3, r3
 102 007c 1846     		mov	r0, r3
 103 007e FFF7FEFF 		bl	UART_1_PutChar
  24:.\ServoMotor.c ****         UART_1_PutChar(speed & 0xff);
 104              		.loc 1 24 0
 105 0082 7B88     		ldrh	r3, [r7, #2]	@ movhi
 106 0084 DBB2     		uxtb	r3, r3
 107 0086 1846     		mov	r0, r3
 108 0088 FFF7FEFF 		bl	UART_1_PutChar
  25:.\ServoMotor.c ****         UART_1_PutChar(speed >> 8);
 109              		.loc 1 25 0
 110 008c 7B88     		ldrh	r3, [r7, #2]
 111 008e 1B0A     		lsrs	r3, r3, #8
 112 0090 9BB2     		uxth	r3, r3
 113 0092 DBB2     		uxtb	r3, r3
 114 0094 1846     		mov	r0, r3
 115 0096 FFF7FEFF 		bl	UART_1_PutChar
  26:.\ServoMotor.c ****         UART_1_PutChar(checksum);
 116              		.loc 1 26 0
 117 009a FB7B     		ldrb	r3, [r7, #15]	@ zero_extendqisi2
 118 009c 1846     		mov	r0, r3
 119 009e FFF7FEFF 		bl	UART_1_PutChar
  27:.\ServoMotor.c ****         CyDelay(2);
 120              		.loc 1 27 0
 121 00a2 0220     		movs	r0, #2
 122 00a4 FFF7FEFF 		bl	CyDelay
 123              	.L1:
  28:.\ServoMotor.c ****     }
  29:.\ServoMotor.c **** }
 124              		.loc 1 29 0
 125 00a8 1037     		adds	r7, r7, #16
 126              		.cfi_def_cfa_offset 8
 127 00aa BD46     		mov	sp, r7
 128              		.cfi_def_cfa_register 13
 129              		@ sp needed
 130 00ac 80BD     		pop	{r7, pc}
 131              		.cfi_endproc
 132              	.LFE63:
 133              		.size	SetServoPosition, .-SetServoPosition
 134 00ae 00BF     		.section	.text.SetServoMode,"ax",%progbits
 135              		.align	2
 136              		.global	SetServoMode
 137              		.thumb
 138              		.thumb_func
 139              		.type	SetServoMode, %function
 140              	SetServoMode:
 141              	.LFB64:
  30:.\ServoMotor.c **** 
ARM GAS  C:\Users\kingi\AppData\Local\Temp\ccANxde9.s 			page 4


  31:.\ServoMotor.c **** void SetServoMode(uint8 id)
  32:.\ServoMotor.c **** {
 142              		.loc 1 32 0
 143              		.cfi_startproc
 144              		@ args = 0, pretend = 0, frame = 16
 145              		@ frame_needed = 1, uses_anonymous_args = 0
 146 0000 80B5     		push	{r7, lr}
 147              		.cfi_def_cfa_offset 8
 148              		.cfi_offset 7, -8
 149              		.cfi_offset 14, -4
 150 0002 84B0     		sub	sp, sp, #16
 151              		.cfi_def_cfa_offset 24
 152 0004 00AF     		add	r7, sp, #0
 153              		.cfi_def_cfa_register 7
 154 0006 0346     		mov	r3, r0
 155 0008 FB71     		strb	r3, [r7, #7]
  33:.\ServoMotor.c ****     uint8 checksum;
  34:.\ServoMotor.c ****     
  35:.\ServoMotor.c ****     checksum = ID + 0x07 + 0x03 + 0x06 + 0x00 + 0xff + 0x03 + 0x00;
 156              		.loc 1 35 0
 157 000a 1023     		movs	r3, #16
 158 000c FB73     		strb	r3, [r7, #15]
  36:.\ServoMotor.c ****     checksum ^= 0xFF;
 159              		.loc 1 36 0
 160 000e FB7B     		ldrb	r3, [r7, #15]
 161 0010 DB43     		mvns	r3, r3
 162 0012 FB73     		strb	r3, [r7, #15]
  37:.\ServoMotor.c ****     
  38:.\ServoMotor.c ****     if (id == _TOP)
 163              		.loc 1 38 0
 164 0014 FB79     		ldrb	r3, [r7, #7]	@ zero_extendqisi2
 165 0016 002B     		cmp	r3, #0
 166 0018 21D1     		bne	.L4
  39:.\ServoMotor.c ****     {
  40:.\ServoMotor.c ****         UART_1_PutChar(0xff);
 167              		.loc 1 40 0
 168 001a FF20     		movs	r0, #255
 169 001c FFF7FEFF 		bl	UART_1_PutChar
  41:.\ServoMotor.c ****         UART_1_PutChar(0xff);
 170              		.loc 1 41 0
 171 0020 FF20     		movs	r0, #255
 172 0022 FFF7FEFF 		bl	UART_1_PutChar
  42:.\ServoMotor.c ****         UART_1_PutChar(ID);
 173              		.loc 1 42 0
 174 0026 FE20     		movs	r0, #254
 175 0028 FFF7FEFF 		bl	UART_1_PutChar
  43:.\ServoMotor.c ****         UART_1_PutChar(0x07);
 176              		.loc 1 43 0
 177 002c 0720     		movs	r0, #7
 178 002e FFF7FEFF 		bl	UART_1_PutChar
  44:.\ServoMotor.c ****         UART_1_PutChar(0x03);
 179              		.loc 1 44 0
 180 0032 0320     		movs	r0, #3
 181 0034 FFF7FEFF 		bl	UART_1_PutChar
  45:.\ServoMotor.c ****         UART_1_PutChar(0x06);
 182              		.loc 1 45 0
 183 0038 0620     		movs	r0, #6
ARM GAS  C:\Users\kingi\AppData\Local\Temp\ccANxde9.s 			page 5


 184 003a FFF7FEFF 		bl	UART_1_PutChar
  46:.\ServoMotor.c ****         UART_1_PutChar(0x00);
 185              		.loc 1 46 0
 186 003e 0020     		movs	r0, #0
 187 0040 FFF7FEFF 		bl	UART_1_PutChar
  47:.\ServoMotor.c ****         UART_1_PutChar(0x00);
 188              		.loc 1 47 0
 189 0044 0020     		movs	r0, #0
 190 0046 FFF7FEFF 		bl	UART_1_PutChar
  48:.\ServoMotor.c ****         UART_1_PutChar(0xff);
 191              		.loc 1 48 0
 192 004a FF20     		movs	r0, #255
 193 004c FFF7FEFF 		bl	UART_1_PutChar
  49:.\ServoMotor.c ****         UART_1_PutChar(0x03);
 194              		.loc 1 49 0
 195 0050 0320     		movs	r0, #3
 196 0052 FFF7FEFF 		bl	UART_1_PutChar
  50:.\ServoMotor.c ****         UART_1_PutChar(checksum);
 197              		.loc 1 50 0
 198 0056 FB7B     		ldrb	r3, [r7, #15]	@ zero_extendqisi2
 199 0058 1846     		mov	r0, r3
 200 005a FFF7FEFF 		bl	UART_1_PutChar
 201              	.L4:
  51:.\ServoMotor.c ****     }
  52:.\ServoMotor.c ****     
  53:.\ServoMotor.c ****     CyDelay(2);
 202              		.loc 1 53 0
 203 005e 0220     		movs	r0, #2
 204 0060 FFF7FEFF 		bl	CyDelay
  54:.\ServoMotor.c ****     
  55:.\ServoMotor.c **** }
 205              		.loc 1 55 0
 206 0064 1037     		adds	r7, r7, #16
 207              		.cfi_def_cfa_offset 8
 208 0066 BD46     		mov	sp, r7
 209              		.cfi_def_cfa_register 13
 210              		@ sp needed
 211 0068 80BD     		pop	{r7, pc}
 212              		.cfi_endproc
 213              	.LFE64:
 214              		.size	SetServoMode, .-SetServoMode
 215 006a 00BF     		.section	.text.SetMotorMode,"ax",%progbits
 216              		.align	2
 217              		.global	SetMotorMode
 218              		.thumb
 219              		.thumb_func
 220              		.type	SetMotorMode, %function
 221              	SetMotorMode:
 222              	.LFB65:
  56:.\ServoMotor.c **** 
  57:.\ServoMotor.c **** void SetMotorMode(uint8 id)
  58:.\ServoMotor.c **** {
 223              		.loc 1 58 0
 224              		.cfi_startproc
 225              		@ args = 0, pretend = 0, frame = 16
 226              		@ frame_needed = 1, uses_anonymous_args = 0
 227 0000 80B5     		push	{r7, lr}
ARM GAS  C:\Users\kingi\AppData\Local\Temp\ccANxde9.s 			page 6


 228              		.cfi_def_cfa_offset 8
 229              		.cfi_offset 7, -8
 230              		.cfi_offset 14, -4
 231 0002 84B0     		sub	sp, sp, #16
 232              		.cfi_def_cfa_offset 24
 233 0004 00AF     		add	r7, sp, #0
 234              		.cfi_def_cfa_register 7
 235 0006 0346     		mov	r3, r0
 236 0008 FB71     		strb	r3, [r7, #7]
  59:.\ServoMotor.c ****     uint8 checksum;
  60:.\ServoMotor.c ****     
  61:.\ServoMotor.c ****     checksum = ID + 0x07 + 0x03 + 0x06 + 0x00 + 0x00 + 0x00 + 0x00;
 237              		.loc 1 61 0
 238 000a 0E23     		movs	r3, #14
 239 000c FB73     		strb	r3, [r7, #15]
  62:.\ServoMotor.c ****     checksum ^= 0xFF;
 240              		.loc 1 62 0
 241 000e FB7B     		ldrb	r3, [r7, #15]
 242 0010 DB43     		mvns	r3, r3
 243 0012 FB73     		strb	r3, [r7, #15]
  63:.\ServoMotor.c ****     
  64:.\ServoMotor.c ****     if (id == _LEFT)
 244              		.loc 1 64 0
 245 0014 FB79     		ldrb	r3, [r7, #7]	@ zero_extendqisi2
 246 0016 012B     		cmp	r3, #1
 247 0018 21D1     		bne	.L6
  65:.\ServoMotor.c ****     {
  66:.\ServoMotor.c ****         UART_2_PutChar(0xff);
 248              		.loc 1 66 0
 249 001a FF20     		movs	r0, #255
 250 001c FFF7FEFF 		bl	UART_2_PutChar
  67:.\ServoMotor.c ****         UART_2_PutChar(0xff);
 251              		.loc 1 67 0
 252 0020 FF20     		movs	r0, #255
 253 0022 FFF7FEFF 		bl	UART_2_PutChar
  68:.\ServoMotor.c ****         UART_2_PutChar(ID);
 254              		.loc 1 68 0
 255 0026 FE20     		movs	r0, #254
 256 0028 FFF7FEFF 		bl	UART_2_PutChar
  69:.\ServoMotor.c ****         UART_2_PutChar(0x07);
 257              		.loc 1 69 0
 258 002c 0720     		movs	r0, #7
 259 002e FFF7FEFF 		bl	UART_2_PutChar
  70:.\ServoMotor.c ****         UART_2_PutChar(0x03);
 260              		.loc 1 70 0
 261 0032 0320     		movs	r0, #3
 262 0034 FFF7FEFF 		bl	UART_2_PutChar
  71:.\ServoMotor.c ****         UART_2_PutChar(0x06);
 263              		.loc 1 71 0
 264 0038 0620     		movs	r0, #6
 265 003a FFF7FEFF 		bl	UART_2_PutChar
  72:.\ServoMotor.c ****         UART_2_PutChar(0x00);
 266              		.loc 1 72 0
 267 003e 0020     		movs	r0, #0
 268 0040 FFF7FEFF 		bl	UART_2_PutChar
  73:.\ServoMotor.c ****         UART_2_PutChar(0x00);
 269              		.loc 1 73 0
ARM GAS  C:\Users\kingi\AppData\Local\Temp\ccANxde9.s 			page 7


 270 0044 0020     		movs	r0, #0
 271 0046 FFF7FEFF 		bl	UART_2_PutChar
  74:.\ServoMotor.c ****         UART_2_PutChar(0x00);
 272              		.loc 1 74 0
 273 004a 0020     		movs	r0, #0
 274 004c FFF7FEFF 		bl	UART_2_PutChar
  75:.\ServoMotor.c ****         UART_2_PutChar(0x00);
 275              		.loc 1 75 0
 276 0050 0020     		movs	r0, #0
 277 0052 FFF7FEFF 		bl	UART_2_PutChar
  76:.\ServoMotor.c ****         UART_2_PutChar(checksum);
 278              		.loc 1 76 0
 279 0056 FB7B     		ldrb	r3, [r7, #15]	@ zero_extendqisi2
 280 0058 1846     		mov	r0, r3
 281 005a FFF7FEFF 		bl	UART_2_PutChar
 282              	.L6:
  77:.\ServoMotor.c ****     }
  78:.\ServoMotor.c ****         
  79:.\ServoMotor.c ****     if (id == _RIGHT)
 283              		.loc 1 79 0
 284 005e FB79     		ldrb	r3, [r7, #7]	@ zero_extendqisi2
 285 0060 022B     		cmp	r3, #2
 286 0062 21D1     		bne	.L7
  80:.\ServoMotor.c ****     {
  81:.\ServoMotor.c ****         UART_3_PutChar(0xff);
 287              		.loc 1 81 0
 288 0064 FF20     		movs	r0, #255
 289 0066 FFF7FEFF 		bl	UART_3_PutChar
  82:.\ServoMotor.c ****         UART_3_PutChar(0xff);
 290              		.loc 1 82 0
 291 006a FF20     		movs	r0, #255
 292 006c FFF7FEFF 		bl	UART_3_PutChar
  83:.\ServoMotor.c ****         UART_3_PutChar(ID);
 293              		.loc 1 83 0
 294 0070 FE20     		movs	r0, #254
 295 0072 FFF7FEFF 		bl	UART_3_PutChar
  84:.\ServoMotor.c ****         UART_3_PutChar(0x07);
 296              		.loc 1 84 0
 297 0076 0720     		movs	r0, #7
 298 0078 FFF7FEFF 		bl	UART_3_PutChar
  85:.\ServoMotor.c ****         UART_3_PutChar(0x03);
 299              		.loc 1 85 0
 300 007c 0320     		movs	r0, #3
 301 007e FFF7FEFF 		bl	UART_3_PutChar
  86:.\ServoMotor.c ****         UART_3_PutChar(0x06);
 302              		.loc 1 86 0
 303 0082 0620     		movs	r0, #6
 304 0084 FFF7FEFF 		bl	UART_3_PutChar
  87:.\ServoMotor.c ****         UART_3_PutChar(0x00);
 305              		.loc 1 87 0
 306 0088 0020     		movs	r0, #0
 307 008a FFF7FEFF 		bl	UART_3_PutChar
  88:.\ServoMotor.c ****         UART_3_PutChar(0x00);
 308              		.loc 1 88 0
 309 008e 0020     		movs	r0, #0
 310 0090 FFF7FEFF 		bl	UART_3_PutChar
  89:.\ServoMotor.c ****         UART_3_PutChar(0x00);
ARM GAS  C:\Users\kingi\AppData\Local\Temp\ccANxde9.s 			page 8


 311              		.loc 1 89 0
 312 0094 0020     		movs	r0, #0
 313 0096 FFF7FEFF 		bl	UART_3_PutChar
  90:.\ServoMotor.c ****         UART_3_PutChar(0x00);
 314              		.loc 1 90 0
 315 009a 0020     		movs	r0, #0
 316 009c FFF7FEFF 		bl	UART_3_PutChar
  91:.\ServoMotor.c ****         UART_3_PutChar(checksum);
 317              		.loc 1 91 0
 318 00a0 FB7B     		ldrb	r3, [r7, #15]	@ zero_extendqisi2
 319 00a2 1846     		mov	r0, r3
 320 00a4 FFF7FEFF 		bl	UART_3_PutChar
 321              	.L7:
  92:.\ServoMotor.c ****     }
  93:.\ServoMotor.c ****     
  94:.\ServoMotor.c ****     CyDelay(2);
 322              		.loc 1 94 0
 323 00a8 0220     		movs	r0, #2
 324 00aa FFF7FEFF 		bl	CyDelay
  95:.\ServoMotor.c ****     
  96:.\ServoMotor.c **** }
 325              		.loc 1 96 0
 326 00ae 1037     		adds	r7, r7, #16
 327              		.cfi_def_cfa_offset 8
 328 00b0 BD46     		mov	sp, r7
 329              		.cfi_def_cfa_register 13
 330              		@ sp needed
 331 00b2 80BD     		pop	{r7, pc}
 332              		.cfi_endproc
 333              	.LFE65:
 334              		.size	SetMotorMode, .-SetMotorMode
 335              		.section	.text.SetMotorSpeed,"ax",%progbits
 336              		.align	2
 337              		.global	SetMotorSpeed
 338              		.thumb
 339              		.thumb_func
 340              		.type	SetMotorSpeed, %function
 341              	SetMotorSpeed:
 342              	.LFB66:
  97:.\ServoMotor.c **** 
  98:.\ServoMotor.c **** void SetMotorSpeed(uint8 id, int16 speed, uint8 acceleration)
  99:.\ServoMotor.c **** {
 343              		.loc 1 99 0
 344              		.cfi_startproc
 345              		@ args = 0, pretend = 0, frame = 16
 346              		@ frame_needed = 1, uses_anonymous_args = 0
 347 0000 80B5     		push	{r7, lr}
 348              		.cfi_def_cfa_offset 8
 349              		.cfi_offset 7, -8
 350              		.cfi_offset 14, -4
 351 0002 84B0     		sub	sp, sp, #16
 352              		.cfi_def_cfa_offset 24
 353 0004 00AF     		add	r7, sp, #0
 354              		.cfi_def_cfa_register 7
 355 0006 0346     		mov	r3, r0
 356 0008 FB71     		strb	r3, [r7, #7]
 357 000a 0B46     		mov	r3, r1	@ movhi
ARM GAS  C:\Users\kingi\AppData\Local\Temp\ccANxde9.s 			page 9


 358 000c BB80     		strh	r3, [r7, #4]	@ movhi
 359 000e 1346     		mov	r3, r2
 360 0010 BB71     		strb	r3, [r7, #6]
 100:.\ServoMotor.c ****     // speed ranges from -1023 to 1023
 101:.\ServoMotor.c ****     
 102:.\ServoMotor.c ****     if (speed > 1023)
 361              		.loc 1 102 0
 362 0012 B7F90430 		ldrsh	r3, [r7, #4]
 363 0016 B3F5806F 		cmp	r3, #1024
 364 001a 02DB     		blt	.L9
 103:.\ServoMotor.c ****         speed = 1023;
 365              		.loc 1 103 0
 366 001c 40F2FF33 		movw	r3, #1023
 367 0020 BB80     		strh	r3, [r7, #4]	@ movhi
 368              	.L9:
 104:.\ServoMotor.c ****     
 105:.\ServoMotor.c ****     if (speed < -1023)
 369              		.loc 1 105 0
 370 0022 B7F90430 		ldrsh	r3, [r7, #4]
 371 0026 13F5806F 		cmn	r3, #1024
 372 002a 02DC     		bgt	.L10
 106:.\ServoMotor.c ****         speed = -1023;
 373              		.loc 1 106 0
 374 002c 4FF60143 		movw	r3, #64513
 375 0030 BB80     		strh	r3, [r7, #4]	@ movhi
 376              	.L10:
 107:.\ServoMotor.c ****     
 108:.\ServoMotor.c ****     if (speed < 0)
 377              		.loc 1 108 0
 378 0032 B7F90430 		ldrsh	r3, [r7, #4]
 379 0036 002B     		cmp	r3, #0
 380 0038 07DA     		bge	.L11
 109:.\ServoMotor.c ****     {
 110:.\ServoMotor.c ****         speed = -speed;
 381              		.loc 1 110 0
 382 003a BB88     		ldrh	r3, [r7, #4]
 383 003c 5B42     		negs	r3, r3
 384 003e 9BB2     		uxth	r3, r3
 385 0040 BB80     		strh	r3, [r7, #4]	@ movhi
 111:.\ServoMotor.c ****         speed |= 0x0400;
 386              		.loc 1 111 0
 387 0042 BB88     		ldrh	r3, [r7, #4]	@ movhi
 388 0044 43F48063 		orr	r3, r3, #1024
 389 0048 BB80     		strh	r3, [r7, #4]	@ movhi
 390              	.L11:
 112:.\ServoMotor.c ****     }
 113:.\ServoMotor.c ****     
 114:.\ServoMotor.c ****     
 115:.\ServoMotor.c ****     uint8 checksum;
 116:.\ServoMotor.c ****     
 117:.\ServoMotor.c ****     if (id == _LEFT)
 391              		.loc 1 117 0
 392 004a FB79     		ldrb	r3, [r7, #7]	@ zero_extendqisi2
 393 004c 012B     		cmp	r3, #1
 394 004e 3AD1     		bne	.L12
 118:.\ServoMotor.c ****     {
 119:.\ServoMotor.c ****         checksum = ID + 0x06 + 0x03 + 0x20 + (speed & 0xff) + (speed >> 8) + acceleration;
ARM GAS  C:\Users\kingi\AppData\Local\Temp\ccANxde9.s 			page 10


 395              		.loc 1 119 0
 396 0050 BB88     		ldrh	r3, [r7, #4]	@ movhi
 397 0052 DAB2     		uxtb	r2, r3
 398 0054 B7F90430 		ldrsh	r3, [r7, #4]
 399 0058 1B12     		asrs	r3, r3, #8
 400 005a 9BB2     		uxth	r3, r3
 401 005c DBB2     		uxtb	r3, r3
 402 005e 1344     		add	r3, r3, r2
 403 0060 DAB2     		uxtb	r2, r3
 404 0062 BB79     		ldrb	r3, [r7, #6]
 405 0064 1344     		add	r3, r3, r2
 406 0066 DBB2     		uxtb	r3, r3
 407 0068 2733     		adds	r3, r3, #39
 408 006a FB73     		strb	r3, [r7, #15]
 120:.\ServoMotor.c ****         checksum ^= 0xff;
 409              		.loc 1 120 0
 410 006c FB7B     		ldrb	r3, [r7, #15]
 411 006e DB43     		mvns	r3, r3
 412 0070 FB73     		strb	r3, [r7, #15]
 121:.\ServoMotor.c ****         
 122:.\ServoMotor.c ****         UART_2_PutChar(0xff);
 413              		.loc 1 122 0
 414 0072 FF20     		movs	r0, #255
 415 0074 FFF7FEFF 		bl	UART_2_PutChar
 123:.\ServoMotor.c ****         UART_2_PutChar(0xff);
 416              		.loc 1 123 0
 417 0078 FF20     		movs	r0, #255
 418 007a FFF7FEFF 		bl	UART_2_PutChar
 124:.\ServoMotor.c ****         UART_2_PutChar(ID);
 419              		.loc 1 124 0
 420 007e FE20     		movs	r0, #254
 421 0080 FFF7FEFF 		bl	UART_2_PutChar
 125:.\ServoMotor.c ****         UART_2_PutChar(0x06);
 422              		.loc 1 125 0
 423 0084 0620     		movs	r0, #6
 424 0086 FFF7FEFF 		bl	UART_2_PutChar
 126:.\ServoMotor.c ****         UART_2_PutChar(0x03);
 425              		.loc 1 126 0
 426 008a 0320     		movs	r0, #3
 427 008c FFF7FEFF 		bl	UART_2_PutChar
 127:.\ServoMotor.c ****         UART_2_PutChar(0x20);
 428              		.loc 1 127 0
 429 0090 2020     		movs	r0, #32
 430 0092 FFF7FEFF 		bl	UART_2_PutChar
 128:.\ServoMotor.c ****         UART_2_PutChar(speed & 0xff);
 431              		.loc 1 128 0
 432 0096 BB88     		ldrh	r3, [r7, #4]	@ movhi
 433 0098 DBB2     		uxtb	r3, r3
 434 009a 1846     		mov	r0, r3
 435 009c FFF7FEFF 		bl	UART_2_PutChar
 129:.\ServoMotor.c ****         UART_2_PutChar(speed >> 8);
 436              		.loc 1 129 0
 437 00a0 B7F90430 		ldrsh	r3, [r7, #4]
 438 00a4 1B12     		asrs	r3, r3, #8
 439 00a6 9BB2     		uxth	r3, r3
 440 00a8 DBB2     		uxtb	r3, r3
 441 00aa 1846     		mov	r0, r3
ARM GAS  C:\Users\kingi\AppData\Local\Temp\ccANxde9.s 			page 11


 442 00ac FFF7FEFF 		bl	UART_2_PutChar
 130:.\ServoMotor.c ****         UART_2_PutChar(acceleration);
 443              		.loc 1 130 0
 444 00b0 BB79     		ldrb	r3, [r7, #6]	@ zero_extendqisi2
 445 00b2 1846     		mov	r0, r3
 446 00b4 FFF7FEFF 		bl	UART_2_PutChar
 131:.\ServoMotor.c ****         UART_2_PutChar(checksum);
 447              		.loc 1 131 0
 448 00b8 FB7B     		ldrb	r3, [r7, #15]	@ zero_extendqisi2
 449 00ba 1846     		mov	r0, r3
 450 00bc FFF7FEFF 		bl	UART_2_PutChar
 132:.\ServoMotor.c ****         
 133:.\ServoMotor.c ****         CyDelay(2);
 451              		.loc 1 133 0
 452 00c0 0220     		movs	r0, #2
 453 00c2 FFF7FEFF 		bl	CyDelay
 454              	.L12:
 134:.\ServoMotor.c ****     }
 135:.\ServoMotor.c ****     
 136:.\ServoMotor.c ****     if (id == _RIGHT)
 455              		.loc 1 136 0
 456 00c6 FB79     		ldrb	r3, [r7, #7]	@ zero_extendqisi2
 457 00c8 022B     		cmp	r3, #2
 458 00ca 3AD1     		bne	.L8
 137:.\ServoMotor.c ****     {
 138:.\ServoMotor.c ****         checksum = ID + 0x06 + 0x03 + 0x20 + (speed & 0xff) + (speed >> 8) + acceleration;
 459              		.loc 1 138 0
 460 00cc BB88     		ldrh	r3, [r7, #4]	@ movhi
 461 00ce DAB2     		uxtb	r2, r3
 462 00d0 B7F90430 		ldrsh	r3, [r7, #4]
 463 00d4 1B12     		asrs	r3, r3, #8
 464 00d6 9BB2     		uxth	r3, r3
 465 00d8 DBB2     		uxtb	r3, r3
 466 00da 1344     		add	r3, r3, r2
 467 00dc DAB2     		uxtb	r2, r3
 468 00de BB79     		ldrb	r3, [r7, #6]
 469 00e0 1344     		add	r3, r3, r2
 470 00e2 DBB2     		uxtb	r3, r3
 471 00e4 2733     		adds	r3, r3, #39
 472 00e6 FB73     		strb	r3, [r7, #15]
 139:.\ServoMotor.c ****         checksum ^= 0xff;
 473              		.loc 1 139 0
 474 00e8 FB7B     		ldrb	r3, [r7, #15]
 475 00ea DB43     		mvns	r3, r3
 476 00ec FB73     		strb	r3, [r7, #15]
 140:.\ServoMotor.c ****         
 141:.\ServoMotor.c ****         UART_3_PutChar(0xff);
 477              		.loc 1 141 0
 478 00ee FF20     		movs	r0, #255
 479 00f0 FFF7FEFF 		bl	UART_3_PutChar
 142:.\ServoMotor.c ****         UART_3_PutChar(0xff);
 480              		.loc 1 142 0
 481 00f4 FF20     		movs	r0, #255
 482 00f6 FFF7FEFF 		bl	UART_3_PutChar
 143:.\ServoMotor.c ****         UART_3_PutChar(ID);
 483              		.loc 1 143 0
 484 00fa FE20     		movs	r0, #254
ARM GAS  C:\Users\kingi\AppData\Local\Temp\ccANxde9.s 			page 12


 485 00fc FFF7FEFF 		bl	UART_3_PutChar
 144:.\ServoMotor.c ****         UART_3_PutChar(0x06);
 486              		.loc 1 144 0
 487 0100 0620     		movs	r0, #6
 488 0102 FFF7FEFF 		bl	UART_3_PutChar
 145:.\ServoMotor.c ****         UART_3_PutChar(0x03);
 489              		.loc 1 145 0
 490 0106 0320     		movs	r0, #3
 491 0108 FFF7FEFF 		bl	UART_3_PutChar
 146:.\ServoMotor.c ****         UART_3_PutChar(0x20);
 492              		.loc 1 146 0
 493 010c 2020     		movs	r0, #32
 494 010e FFF7FEFF 		bl	UART_3_PutChar
 147:.\ServoMotor.c ****         UART_3_PutChar(speed & 0xff);
 495              		.loc 1 147 0
 496 0112 BB88     		ldrh	r3, [r7, #4]	@ movhi
 497 0114 DBB2     		uxtb	r3, r3
 498 0116 1846     		mov	r0, r3
 499 0118 FFF7FEFF 		bl	UART_3_PutChar
 148:.\ServoMotor.c ****         UART_3_PutChar(speed >> 8);
 500              		.loc 1 148 0
 501 011c B7F90430 		ldrsh	r3, [r7, #4]
 502 0120 1B12     		asrs	r3, r3, #8
 503 0122 9BB2     		uxth	r3, r3
 504 0124 DBB2     		uxtb	r3, r3
 505 0126 1846     		mov	r0, r3
 506 0128 FFF7FEFF 		bl	UART_3_PutChar
 149:.\ServoMotor.c ****         UART_3_PutChar(acceleration);
 507              		.loc 1 149 0
 508 012c BB79     		ldrb	r3, [r7, #6]	@ zero_extendqisi2
 509 012e 1846     		mov	r0, r3
 510 0130 FFF7FEFF 		bl	UART_3_PutChar
 150:.\ServoMotor.c ****         UART_3_PutChar(checksum);
 511              		.loc 1 150 0
 512 0134 FB7B     		ldrb	r3, [r7, #15]	@ zero_extendqisi2
 513 0136 1846     		mov	r0, r3
 514 0138 FFF7FEFF 		bl	UART_3_PutChar
 151:.\ServoMotor.c ****         
 152:.\ServoMotor.c ****         CyDelay(2);
 515              		.loc 1 152 0
 516 013c 0220     		movs	r0, #2
 517 013e FFF7FEFF 		bl	CyDelay
 518              	.L8:
 153:.\ServoMotor.c ****     }
 154:.\ServoMotor.c **** }...
 519              		.loc 1 154 0
 520 0142 1037     		adds	r7, r7, #16
 521              		.cfi_def_cfa_offset 8
 522 0144 BD46     		mov	sp, r7
 523              		.cfi_def_cfa_register 13
 524              		@ sp needed
 525 0146 80BD     		pop	{r7, pc}
 526              		.cfi_endproc
 527              	.LFE66:
 528              		.size	SetMotorSpeed, .-SetMotorSpeed
 529              		.text
 530              	.Letext0:
ARM GAS  C:\Users\kingi\AppData\Local\Temp\ccANxde9.s 			page 13


 531              		.file 2 "c:\\program files (x86)\\cypress\\psoc creator\\3.3\\psoc creator\\import\\gnu\\arm\\4.9.
 532              		.file 3 "c:\\program files (x86)\\cypress\\psoc creator\\3.3\\psoc creator\\import\\gnu\\arm\\4.9.
 533              		.file 4 "Generated_Source\\PSoC5/cytypes.h"
 534              		.file 5 "Generated_Source\\PSoC5/core_cm3.h"
 535              		.section	.debug_info,"",%progbits
 536              	.Ldebug_info0:
 537 0000 CB010000 		.4byte	0x1cb
 538 0004 0400     		.2byte	0x4
 539 0006 00000000 		.4byte	.Ldebug_abbrev0
 540 000a 04       		.byte	0x4
 541 000b 01       		.uleb128 0x1
 542 000c 18000000 		.4byte	.LASF26
 543 0010 01       		.byte	0x1
 544 0011 CA010000 		.4byte	.LASF27
 545 0015 3E010000 		.4byte	.LASF28
 546 0019 00000000 		.4byte	.Ldebug_ranges0+0
 547 001d 00000000 		.4byte	0
 548 0021 00000000 		.4byte	.Ldebug_line0
 549 0025 02       		.uleb128 0x2
 550 0026 01       		.byte	0x1
 551 0027 06       		.byte	0x6
 552 0028 E8010000 		.4byte	.LASF0
 553 002c 02       		.uleb128 0x2
 554 002d 01       		.byte	0x1
 555 002e 08       		.byte	0x8
 556 002f BD000000 		.4byte	.LASF1
 557 0033 02       		.uleb128 0x2
 558 0034 02       		.byte	0x2
 559 0035 05       		.byte	0x5
 560 0036 0A010000 		.4byte	.LASF2
 561 003a 02       		.uleb128 0x2
 562 003b 02       		.byte	0x2
 563 003c 07       		.byte	0x7
 564 003d E3000000 		.4byte	.LASF3
 565 0041 03       		.uleb128 0x3
 566 0042 0E000000 		.4byte	.LASF9
 567 0046 02       		.byte	0x2
 568 0047 3F       		.byte	0x3f
 569 0048 4C000000 		.4byte	0x4c
 570 004c 02       		.uleb128 0x2
 571 004d 04       		.byte	0x4
 572 004e 05       		.byte	0x5
 573 004f DF010000 		.4byte	.LASF4
 574 0053 02       		.uleb128 0x2
 575 0054 04       		.byte	0x4
 576 0055 07       		.byte	0x7
 577 0056 D1000000 		.4byte	.LASF5
 578 005a 02       		.uleb128 0x2
 579 005b 08       		.byte	0x8
 580 005c 05       		.byte	0x5
 581 005d B7010000 		.4byte	.LASF6
 582 0061 02       		.uleb128 0x2
 583 0062 08       		.byte	0x8
 584 0063 07       		.byte	0x7
 585 0064 73010000 		.4byte	.LASF7
 586 0068 04       		.uleb128 0x4
 587 0069 04       		.byte	0x4
ARM GAS  C:\Users\kingi\AppData\Local\Temp\ccANxde9.s 			page 14


 588 006a 05       		.byte	0x5
 589 006b 696E7400 		.ascii	"int\000"
 590 006f 02       		.uleb128 0x2
 591 0070 04       		.byte	0x4
 592 0071 07       		.byte	0x7
 593 0072 24010000 		.4byte	.LASF8
 594 0076 03       		.uleb128 0x3
 595 0077 A6000000 		.4byte	.LASF10
 596 007b 03       		.byte	0x3
 597 007c 2C       		.byte	0x2c
 598 007d 41000000 		.4byte	0x41
 599 0081 05       		.uleb128 0x5
 600 0082 D9010000 		.4byte	.LASF11
 601 0086 04       		.byte	0x4
 602 0087 3801     		.2byte	0x138
 603 0089 2C000000 		.4byte	0x2c
 604 008d 05       		.uleb128 0x5
 605 008e 14010000 		.4byte	.LASF12
 606 0092 04       		.byte	0x4
 607 0093 3901     		.2byte	0x139
 608 0095 3A000000 		.4byte	0x3a
 609 0099 05       		.uleb128 0x5
 610 009a CB000000 		.4byte	.LASF13
 611 009e 04       		.byte	0x4
 612 009f 3C01     		.2byte	0x13c
 613 00a1 33000000 		.4byte	0x33
 614 00a5 02       		.uleb128 0x2
 615 00a6 04       		.byte	0x4
 616 00a7 04       		.byte	0x4
 617 00a8 AE000000 		.4byte	.LASF14
 618 00ac 02       		.uleb128 0x2
 619 00ad 08       		.byte	0x8
 620 00ae 04       		.byte	0x4
 621 00af 03010000 		.4byte	.LASF15
 622 00b3 02       		.uleb128 0x2
 623 00b4 01       		.byte	0x1
 624 00b5 08       		.byte	0x8
 625 00b6 C5010000 		.4byte	.LASF16
 626 00ba 02       		.uleb128 0x2
 627 00bb 04       		.byte	0x4
 628 00bc 07       		.byte	0x7
 629 00bd 9D010000 		.4byte	.LASF17
 630 00c1 06       		.uleb128 0x6
 631 00c2 A6010000 		.4byte	.LASF20
 632 00c6 01       		.byte	0x1
 633 00c7 06       		.byte	0x6
 634 00c8 00000000 		.4byte	.LFB63
 635 00cc AE000000 		.4byte	.LFE63-.LFB63
 636 00d0 01       		.uleb128 0x1
 637 00d1 9C       		.byte	0x9c
 638 00d2 0E010000 		.4byte	0x10e
 639 00d6 07       		.uleb128 0x7
 640 00d7 696400   		.ascii	"id\000"
 641 00da 01       		.byte	0x1
 642 00db 06       		.byte	0x6
 643 00dc 81000000 		.4byte	0x81
 644 00e0 02       		.uleb128 0x2
ARM GAS  C:\Users\kingi\AppData\Local\Temp\ccANxde9.s 			page 15


 645 00e1 91       		.byte	0x91
 646 00e2 6F       		.sleb128 -17
 647 00e3 08       		.uleb128 0x8
 648 00e4 1B010000 		.4byte	.LASF18
 649 00e8 01       		.byte	0x1
 650 00e9 06       		.byte	0x6
 651 00ea 8D000000 		.4byte	0x8d
 652 00ee 02       		.uleb128 0x2
 653 00ef 91       		.byte	0x91
 654 00f0 6C       		.sleb128 -20
 655 00f1 08       		.uleb128 0x8
 656 00f2 97010000 		.4byte	.LASF19
 657 00f6 01       		.byte	0x1
 658 00f7 06       		.byte	0x6
 659 00f8 8D000000 		.4byte	0x8d
 660 00fc 02       		.uleb128 0x2
 661 00fd 91       		.byte	0x91
 662 00fe 6A       		.sleb128 -22
 663 00ff 09       		.uleb128 0x9
 664 0100 B4000000 		.4byte	.LASF22
 665 0104 01       		.byte	0x1
 666 0105 0A       		.byte	0xa
 667 0106 81000000 		.4byte	0x81
 668 010a 02       		.uleb128 0x2
 669 010b 91       		.byte	0x91
 670 010c 77       		.sleb128 -9
 671 010d 00       		.byte	0
 672 010e 06       		.uleb128 0x6
 673 010f 31010000 		.4byte	.LASF21
 674 0113 01       		.byte	0x1
 675 0114 1F       		.byte	0x1f
 676 0115 00000000 		.4byte	.LFB64
 677 0119 6A000000 		.4byte	.LFE64-.LFB64
 678 011d 01       		.uleb128 0x1
 679 011e 9C       		.byte	0x9c
 680 011f 3F010000 		.4byte	0x13f
 681 0123 07       		.uleb128 0x7
 682 0124 696400   		.ascii	"id\000"
 683 0127 01       		.byte	0x1
 684 0128 1F       		.byte	0x1f
 685 0129 81000000 		.4byte	0x81
 686 012d 02       		.uleb128 0x2
 687 012e 91       		.byte	0x91
 688 012f 6F       		.sleb128 -17
 689 0130 09       		.uleb128 0x9
 690 0131 B4000000 		.4byte	.LASF22
 691 0135 01       		.byte	0x1
 692 0136 21       		.byte	0x21
 693 0137 81000000 		.4byte	0x81
 694 013b 02       		.uleb128 0x2
 695 013c 91       		.byte	0x91
 696 013d 77       		.sleb128 -9
 697 013e 00       		.byte	0
 698 013f 06       		.uleb128 0x6
 699 0140 F4010000 		.4byte	.LASF23
 700 0144 01       		.byte	0x1
 701 0145 39       		.byte	0x39
ARM GAS  C:\Users\kingi\AppData\Local\Temp\ccANxde9.s 			page 16


 702 0146 00000000 		.4byte	.LFB65
 703 014a B4000000 		.4byte	.LFE65-.LFB65
 704 014e 01       		.uleb128 0x1
 705 014f 9C       		.byte	0x9c
 706 0150 70010000 		.4byte	0x170
 707 0154 07       		.uleb128 0x7
 708 0155 696400   		.ascii	"id\000"
 709 0158 01       		.byte	0x1
 710 0159 39       		.byte	0x39
 711 015a 81000000 		.4byte	0x81
 712 015e 02       		.uleb128 0x2
 713 015f 91       		.byte	0x91
 714 0160 6F       		.sleb128 -17
 715 0161 09       		.uleb128 0x9
 716 0162 B4000000 		.4byte	.LASF22
 717 0166 01       		.byte	0x1
 718 0167 3B       		.byte	0x3b
 719 0168 81000000 		.4byte	0x81
 720 016c 02       		.uleb128 0x2
 721 016d 91       		.byte	0x91
 722 016e 77       		.sleb128 -9
 723 016f 00       		.byte	0
 724 0170 06       		.uleb128 0x6
 725 0171 00000000 		.4byte	.LASF24
 726 0175 01       		.byte	0x1
 727 0176 62       		.byte	0x62
 728 0177 00000000 		.4byte	.LFB66
 729 017b 48010000 		.4byte	.LFE66-.LFB66
 730 017f 01       		.uleb128 0x1
 731 0180 9C       		.byte	0x9c
 732 0181 BD010000 		.4byte	0x1bd
 733 0185 07       		.uleb128 0x7
 734 0186 696400   		.ascii	"id\000"
 735 0189 01       		.byte	0x1
 736 018a 62       		.byte	0x62
 737 018b 81000000 		.4byte	0x81
 738 018f 02       		.uleb128 0x2
 739 0190 91       		.byte	0x91
 740 0191 6F       		.sleb128 -17
 741 0192 08       		.uleb128 0x8
 742 0193 97010000 		.4byte	.LASF19
 743 0197 01       		.byte	0x1
 744 0198 62       		.byte	0x62
 745 0199 99000000 		.4byte	0x99
 746 019d 02       		.uleb128 0x2
 747 019e 91       		.byte	0x91
 748 019f 6C       		.sleb128 -20
 749 01a0 08       		.uleb128 0x8
 750 01a1 8A010000 		.4byte	.LASF25
 751 01a5 01       		.byte	0x1
 752 01a6 62       		.byte	0x62
 753 01a7 81000000 		.4byte	0x81
 754 01ab 02       		.uleb128 0x2
 755 01ac 91       		.byte	0x91
 756 01ad 6E       		.sleb128 -18
 757 01ae 09       		.uleb128 0x9
 758 01af B4000000 		.4byte	.LASF22
ARM GAS  C:\Users\kingi\AppData\Local\Temp\ccANxde9.s 			page 17


 759 01b3 01       		.byte	0x1
 760 01b4 73       		.byte	0x73
 761 01b5 81000000 		.4byte	0x81
 762 01b9 02       		.uleb128 0x2
 763 01ba 91       		.byte	0x91
 764 01bb 77       		.sleb128 -9
 765 01bc 00       		.byte	0
 766 01bd 0A       		.uleb128 0xa
 767 01be F6000000 		.4byte	.LASF29
 768 01c2 05       		.byte	0x5
 769 01c3 5506     		.2byte	0x655
 770 01c5 C9010000 		.4byte	0x1c9
 771 01c9 0B       		.uleb128 0xb
 772 01ca 76000000 		.4byte	0x76
 773 01ce 00       		.byte	0
 774              		.section	.debug_abbrev,"",%progbits
 775              	.Ldebug_abbrev0:
 776 0000 01       		.uleb128 0x1
 777 0001 11       		.uleb128 0x11
 778 0002 01       		.byte	0x1
 779 0003 25       		.uleb128 0x25
 780 0004 0E       		.uleb128 0xe
 781 0005 13       		.uleb128 0x13
 782 0006 0B       		.uleb128 0xb
 783 0007 03       		.uleb128 0x3
 784 0008 0E       		.uleb128 0xe
 785 0009 1B       		.uleb128 0x1b
 786 000a 0E       		.uleb128 0xe
 787 000b 55       		.uleb128 0x55
 788 000c 17       		.uleb128 0x17
 789 000d 11       		.uleb128 0x11
 790 000e 01       		.uleb128 0x1
 791 000f 10       		.uleb128 0x10
 792 0010 17       		.uleb128 0x17
 793 0011 00       		.byte	0
 794 0012 00       		.byte	0
 795 0013 02       		.uleb128 0x2
 796 0014 24       		.uleb128 0x24
 797 0015 00       		.byte	0
 798 0016 0B       		.uleb128 0xb
 799 0017 0B       		.uleb128 0xb
 800 0018 3E       		.uleb128 0x3e
 801 0019 0B       		.uleb128 0xb
 802 001a 03       		.uleb128 0x3
 803 001b 0E       		.uleb128 0xe
 804 001c 00       		.byte	0
 805 001d 00       		.byte	0
 806 001e 03       		.uleb128 0x3
 807 001f 16       		.uleb128 0x16
 808 0020 00       		.byte	0
 809 0021 03       		.uleb128 0x3
 810 0022 0E       		.uleb128 0xe
 811 0023 3A       		.uleb128 0x3a
 812 0024 0B       		.uleb128 0xb
 813 0025 3B       		.uleb128 0x3b
 814 0026 0B       		.uleb128 0xb
 815 0027 49       		.uleb128 0x49
ARM GAS  C:\Users\kingi\AppData\Local\Temp\ccANxde9.s 			page 18


 816 0028 13       		.uleb128 0x13
 817 0029 00       		.byte	0
 818 002a 00       		.byte	0
 819 002b 04       		.uleb128 0x4
 820 002c 24       		.uleb128 0x24
 821 002d 00       		.byte	0
 822 002e 0B       		.uleb128 0xb
 823 002f 0B       		.uleb128 0xb
 824 0030 3E       		.uleb128 0x3e
 825 0031 0B       		.uleb128 0xb
 826 0032 03       		.uleb128 0x3
 827 0033 08       		.uleb128 0x8
 828 0034 00       		.byte	0
 829 0035 00       		.byte	0
 830 0036 05       		.uleb128 0x5
 831 0037 16       		.uleb128 0x16
 832 0038 00       		.byte	0
 833 0039 03       		.uleb128 0x3
 834 003a 0E       		.uleb128 0xe
 835 003b 3A       		.uleb128 0x3a
 836 003c 0B       		.uleb128 0xb
 837 003d 3B       		.uleb128 0x3b
 838 003e 05       		.uleb128 0x5
 839 003f 49       		.uleb128 0x49
 840 0040 13       		.uleb128 0x13
 841 0041 00       		.byte	0
 842 0042 00       		.byte	0
 843 0043 06       		.uleb128 0x6
 844 0044 2E       		.uleb128 0x2e
 845 0045 01       		.byte	0x1
 846 0046 3F       		.uleb128 0x3f
 847 0047 19       		.uleb128 0x19
 848 0048 03       		.uleb128 0x3
 849 0049 0E       		.uleb128 0xe
 850 004a 3A       		.uleb128 0x3a
 851 004b 0B       		.uleb128 0xb
 852 004c 3B       		.uleb128 0x3b
 853 004d 0B       		.uleb128 0xb
 854 004e 27       		.uleb128 0x27
 855 004f 19       		.uleb128 0x19
 856 0050 11       		.uleb128 0x11
 857 0051 01       		.uleb128 0x1
 858 0052 12       		.uleb128 0x12
 859 0053 06       		.uleb128 0x6
 860 0054 40       		.uleb128 0x40
 861 0055 18       		.uleb128 0x18
 862 0056 9642     		.uleb128 0x2116
 863 0058 19       		.uleb128 0x19
 864 0059 01       		.uleb128 0x1
 865 005a 13       		.uleb128 0x13
 866 005b 00       		.byte	0
 867 005c 00       		.byte	0
 868 005d 07       		.uleb128 0x7
 869 005e 05       		.uleb128 0x5
 870 005f 00       		.byte	0
 871 0060 03       		.uleb128 0x3
 872 0061 08       		.uleb128 0x8
ARM GAS  C:\Users\kingi\AppData\Local\Temp\ccANxde9.s 			page 19


 873 0062 3A       		.uleb128 0x3a
 874 0063 0B       		.uleb128 0xb
 875 0064 3B       		.uleb128 0x3b
 876 0065 0B       		.uleb128 0xb
 877 0066 49       		.uleb128 0x49
 878 0067 13       		.uleb128 0x13
 879 0068 02       		.uleb128 0x2
 880 0069 18       		.uleb128 0x18
 881 006a 00       		.byte	0
 882 006b 00       		.byte	0
 883 006c 08       		.uleb128 0x8
 884 006d 05       		.uleb128 0x5
 885 006e 00       		.byte	0
 886 006f 03       		.uleb128 0x3
 887 0070 0E       		.uleb128 0xe
 888 0071 3A       		.uleb128 0x3a
 889 0072 0B       		.uleb128 0xb
 890 0073 3B       		.uleb128 0x3b
 891 0074 0B       		.uleb128 0xb
 892 0075 49       		.uleb128 0x49
 893 0076 13       		.uleb128 0x13
 894 0077 02       		.uleb128 0x2
 895 0078 18       		.uleb128 0x18
 896 0079 00       		.byte	0
 897 007a 00       		.byte	0
 898 007b 09       		.uleb128 0x9
 899 007c 34       		.uleb128 0x34
 900 007d 00       		.byte	0
 901 007e 03       		.uleb128 0x3
 902 007f 0E       		.uleb128 0xe
 903 0080 3A       		.uleb128 0x3a
 904 0081 0B       		.uleb128 0xb
 905 0082 3B       		.uleb128 0x3b
 906 0083 0B       		.uleb128 0xb
 907 0084 49       		.uleb128 0x49
 908 0085 13       		.uleb128 0x13
 909 0086 02       		.uleb128 0x2
 910 0087 18       		.uleb128 0x18
 911 0088 00       		.byte	0
 912 0089 00       		.byte	0
 913 008a 0A       		.uleb128 0xa
 914 008b 34       		.uleb128 0x34
 915 008c 00       		.byte	0
 916 008d 03       		.uleb128 0x3
 917 008e 0E       		.uleb128 0xe
 918 008f 3A       		.uleb128 0x3a
 919 0090 0B       		.uleb128 0xb
 920 0091 3B       		.uleb128 0x3b
 921 0092 05       		.uleb128 0x5
 922 0093 49       		.uleb128 0x49
 923 0094 13       		.uleb128 0x13
 924 0095 3F       		.uleb128 0x3f
 925 0096 19       		.uleb128 0x19
 926 0097 3C       		.uleb128 0x3c
 927 0098 19       		.uleb128 0x19
 928 0099 00       		.byte	0
 929 009a 00       		.byte	0
ARM GAS  C:\Users\kingi\AppData\Local\Temp\ccANxde9.s 			page 20


 930 009b 0B       		.uleb128 0xb
 931 009c 35       		.uleb128 0x35
 932 009d 00       		.byte	0
 933 009e 49       		.uleb128 0x49
 934 009f 13       		.uleb128 0x13
 935 00a0 00       		.byte	0
 936 00a1 00       		.byte	0
 937 00a2 00       		.byte	0
 938              		.section	.debug_aranges,"",%progbits
 939 0000 34000000 		.4byte	0x34
 940 0004 0200     		.2byte	0x2
 941 0006 00000000 		.4byte	.Ldebug_info0
 942 000a 04       		.byte	0x4
 943 000b 00       		.byte	0
 944 000c 0000     		.2byte	0
 945 000e 0000     		.2byte	0
 946 0010 00000000 		.4byte	.LFB63
 947 0014 AE000000 		.4byte	.LFE63-.LFB63
 948 0018 00000000 		.4byte	.LFB64
 949 001c 6A000000 		.4byte	.LFE64-.LFB64
 950 0020 00000000 		.4byte	.LFB65
 951 0024 B4000000 		.4byte	.LFE65-.LFB65
 952 0028 00000000 		.4byte	.LFB66
 953 002c 48010000 		.4byte	.LFE66-.LFB66
 954 0030 00000000 		.4byte	0
 955 0034 00000000 		.4byte	0
 956              		.section	.debug_ranges,"",%progbits
 957              	.Ldebug_ranges0:
 958 0000 00000000 		.4byte	.LFB63
 959 0004 AE000000 		.4byte	.LFE63
 960 0008 00000000 		.4byte	.LFB64
 961 000c 6A000000 		.4byte	.LFE64
 962 0010 00000000 		.4byte	.LFB65
 963 0014 B4000000 		.4byte	.LFE65
 964 0018 00000000 		.4byte	.LFB66
 965 001c 48010000 		.4byte	.LFE66
 966 0020 00000000 		.4byte	0
 967 0024 00000000 		.4byte	0
 968              		.section	.debug_line,"",%progbits
 969              	.Ldebug_line0:
 970 0000 F1010000 		.section	.debug_str,"MS",%progbits,1
 970      02004F01 
 970      00000201 
 970      FB0E0D00 
 970      01010101 
 971              	.LASF24:
 972 0000 5365744D 		.ascii	"SetMotorSpeed\000"
 972      6F746F72 
 972      53706565 
 972      6400
 973              	.LASF9:
 974 000e 5F5F696E 		.ascii	"__int32_t\000"
 974      7433325F 
 974      7400
 975              	.LASF26:
 976 0018 474E5520 		.ascii	"GNU C 4.9.3 20150303 (release) [ARM/embedded-4_9-br"
 976      4320342E 
ARM GAS  C:\Users\kingi\AppData\Local\Temp\ccANxde9.s 			page 21


 976      392E3320 
 976      32303135 
 976      30333033 
 977 004b 616E6368 		.ascii	"anch revision 221220] -mcpu=cortex-m3 -mthumb -g -O"
 977      20726576 
 977      6973696F 
 977      6E203232 
 977      31323230 
 978 007e 30202D66 		.ascii	"0 -ffunction-sections -ffat-lto-objects\000"
 978      66756E63 
 978      74696F6E 
 978      2D736563 
 978      74696F6E 
 979              	.LASF10:
 980 00a6 696E7433 		.ascii	"int32_t\000"
 980      325F7400 
 981              	.LASF14:
 982 00ae 666C6F61 		.ascii	"float\000"
 982      7400
 983              	.LASF22:
 984 00b4 63686563 		.ascii	"checksum\000"
 984      6B73756D 
 984      00
 985              	.LASF1:
 986 00bd 756E7369 		.ascii	"unsigned char\000"
 986      676E6564 
 986      20636861 
 986      7200
 987              	.LASF13:
 988 00cb 696E7431 		.ascii	"int16\000"
 988      3600
 989              	.LASF5:
 990 00d1 6C6F6E67 		.ascii	"long unsigned int\000"
 990      20756E73 
 990      69676E65 
 990      6420696E 
 990      7400
 991              	.LASF3:
 992 00e3 73686F72 		.ascii	"short unsigned int\000"
 992      7420756E 
 992      7369676E 
 992      65642069 
 992      6E7400
 993              	.LASF29:
 994 00f6 49544D5F 		.ascii	"ITM_RxBuffer\000"
 994      52784275 
 994      66666572 
 994      00
 995              	.LASF15:
 996 0103 646F7562 		.ascii	"double\000"
 996      6C6500
 997              	.LASF2:
 998 010a 73686F72 		.ascii	"short int\000"
 998      7420696E 
 998      7400
 999              	.LASF12:
 1000 0114 75696E74 		.ascii	"uint16\000"
ARM GAS  C:\Users\kingi\AppData\Local\Temp\ccANxde9.s 			page 22


 1000      313600
 1001              	.LASF18:
 1002 011b 706F7369 		.ascii	"position\000"
 1002      74696F6E 
 1002      00
 1003              	.LASF8:
 1004 0124 756E7369 		.ascii	"unsigned int\000"
 1004      676E6564 
 1004      20696E74 
 1004      00
 1005              	.LASF21:
 1006 0131 53657453 		.ascii	"SetServoMode\000"
 1006      6572766F 
 1006      4D6F6465 
 1006      00
 1007              	.LASF28:
 1008 013e 443A5C50 		.ascii	"D:\\Projects\\ESD\\ESD_1506\\Servo\\Workspace\\Serv"
 1008      726F6A65 
 1008      6374735C 
 1008      4553445C 
 1008      4553445F 
 1009 016b 6F2E6379 		.ascii	"o.cydsn\000"
 1009      64736E00 
 1010              	.LASF7:
 1011 0173 6C6F6E67 		.ascii	"long long unsigned int\000"
 1011      206C6F6E 
 1011      6720756E 
 1011      7369676E 
 1011      65642069 
 1012              	.LASF25:
 1013 018a 61636365 		.ascii	"acceleration\000"
 1013      6C657261 
 1013      74696F6E 
 1013      00
 1014              	.LASF19:
 1015 0197 73706565 		.ascii	"speed\000"
 1015      6400
 1016              	.LASF17:
 1017 019d 73697A65 		.ascii	"sizetype\000"
 1017      74797065 
 1017      00
 1018              	.LASF20:
 1019 01a6 53657453 		.ascii	"SetServoPosition\000"
 1019      6572766F 
 1019      506F7369 
 1019      74696F6E 
 1019      00
 1020              	.LASF6:
 1021 01b7 6C6F6E67 		.ascii	"long long int\000"
 1021      206C6F6E 
 1021      6720696E 
 1021      7400
 1022              	.LASF16:
 1023 01c5 63686172 		.ascii	"char\000"
 1023      00
 1024              	.LASF27:
 1025 01ca 2E5C5365 		.ascii	".\\ServoMotor.c\000"
ARM GAS  C:\Users\kingi\AppData\Local\Temp\ccANxde9.s 			page 23


 1025      72766F4D 
 1025      6F746F72 
 1025      2E6300
 1026              	.LASF11:
 1027 01d9 75696E74 		.ascii	"uint8\000"
 1027      3800
 1028              	.LASF4:
 1029 01df 6C6F6E67 		.ascii	"long int\000"
 1029      20696E74 
 1029      00
 1030              	.LASF0:
 1031 01e8 7369676E 		.ascii	"signed char\000"
 1031      65642063 
 1031      68617200 
 1032              	.LASF23:
 1033 01f4 5365744D 		.ascii	"SetMotorMode\000"
 1033      6F746F72 
 1033      4D6F6465 
 1033      00
 1034              		.ident	"GCC: (GNU Tools for ARM Embedded Processors) 4.9.3 20150303 (release) [ARM/embedded-4_9-br
