ARM GAS  C:\Users\kingi\AppData\Local\Temp\ccTnDUzX.s 			page 1


   1              		.syntax unified
   2              		.cpu cortex-m3
   3              		.fpu softvfp
   4              		.eabi_attribute 20, 1
   5              		.eabi_attribute 21, 1
   6              		.eabi_attribute 23, 3
   7              		.eabi_attribute 24, 1
   8              		.eabi_attribute 25, 1
   9              		.eabi_attribute 26, 1
  10              		.eabi_attribute 30, 6
  11              		.eabi_attribute 34, 1
  12              		.eabi_attribute 18, 4
  13              		.thumb
  14              		.file	"main.c"
  15              		.text
  16              	.Ltext0:
  17              		.cfi_sections	.debug_frame
  18              		.section	.rodata
  19              		.align	2
  20              	.LC0:
  21 0000 20202020 		.ascii	"                \000"
  21      20202020 
  21      20202020 
  21      20202020 
  21      00
  22 0011 000000   		.section	.text.main,"ax",%progbits
  23              		.align	2
  24              		.global	main
  25              		.thumb
  26              		.thumb_func
  27              		.type	main, %function
  28              	main:
  29              	.LFB63:
  30              		.file 1 ".\\main.c"
   1:.\main.c      **** /*******************************************************************************
   2:.\main.c      **** * File Name: main.c
   3:.\main.c      **** *
   4:.\main.c      **** * Version: 2.1
   5:.\main.c      **** *
   6:.\main.c      **** * Description:
   7:.\main.c      **** *  This project demonstrates the UART reception mechanism. 
   8:.\main.c      **** *  Data typed on the hyperterminal is sent through serial port and displayed
   9:.\main.c      **** *  on the LCD.
  10:.\main.c      **** *
  11:.\main.c      **** ********************************************************************************
  12:.\main.c      **** * Copyright 2012, Cypress Semiconductor Corporation. All rights reserved.
  13:.\main.c      **** * This software is owned by Cypress Semiconductor Corporation and is protected
  14:.\main.c      **** * by and subject to worldwide patent and copyright laws and treaties.
  15:.\main.c      **** * Therefore, you may use this software only as provided in the license agreement
  16:.\main.c      **** * accompanying the software package from which you obtained this software.
  17:.\main.c      **** * CYPRESS AND ITS SUPPLIERS MAKE NO WARRANTY OF ANY KIND, EXPRESS OR IMPLIED,
  18:.\main.c      **** * WITH REGARD TO THIS SOFTWARE, INCLUDING, BUT NOT LIMITED TO, NONINFRINGEMENT,
  19:.\main.c      **** * IMPLIED WARRANTIES OF MERCHANTABILITY AND FITNESS FOR A PARTICULAR PURPOSE.
  20:.\main.c      **** *******************************************************************************/
  21:.\main.c      **** 
  22:.\main.c      **** #include <device.h>
  23:.\main.c      **** 
ARM GAS  C:\Users\kingi\AppData\Local\Temp\ccTnDUzX.s 			page 2


  24:.\main.c      **** #include "Bluetooth.h"
  25:.\main.c      **** 
  26:.\main.c      **** #define LCD_NUM_COLUMNS (16u)
  27:.\main.c      **** 
  28:.\main.c      **** 
  29:.\main.c      **** int main()
  30:.\main.c      **** {   
  31              		.loc 1 30 0
  32              		.cfi_startproc
  33              		@ args = 0, pretend = 0, frame = 8
  34              		@ frame_needed = 1, uses_anonymous_args = 0
  35 0000 80B5     		push	{r7, lr}
  36              		.cfi_def_cfa_offset 8
  37              		.cfi_offset 7, -8
  38              		.cfi_offset 14, -4
  39 0002 82B0     		sub	sp, sp, #8
  40              		.cfi_def_cfa_offset 16
  41 0004 00AF     		add	r7, sp, #0
  42              		.cfi_def_cfa_register 7
  31:.\main.c      ****     char8 ch;       /* Data received from the Serial port */
  32:.\main.c      ****     uint8 count = 0u;
  43              		.loc 1 32 0
  44 0006 0023     		movs	r3, #0
  45 0008 FB71     		strb	r3, [r7, #7]
  33:.\main.c      ****     uint8 pos = 0u;
  46              		.loc 1 33 0
  47 000a 0023     		movs	r3, #0
  48 000c BB71     		strb	r3, [r7, #6]
  34:.\main.c      **** 
  35:.\main.c      ****     CyGlobalIntEnable; /* Enable all interrupts by the processor. */
  49              		.loc 1 35 0
  50              	@ 35 ".\main.c" 1
  51 000e 62B6     		CPSIE   i
  52              	@ 0 "" 2
  36:.\main.c      **** 
  37:.\main.c      ****     LCD_Char_1_Start();
  53              		.loc 1 37 0
  54              		.thumb
  55 0010 FFF7FEFF 		bl	LCD_Char_1_Start
  38:.\main.c      ****     UART_1_Start();
  56              		.loc 1 38 0
  57 0014 FFF7FEFF 		bl	UART_1_Start
  58              	.L2:
  39:.\main.c      ****     
  40:.\main.c      ****     while(1)
  41:.\main.c      ****     {
  42:.\main.c      ****         GetBluetoothString(buffer);
  59              		.loc 1 42 0 discriminator 1
  60 0018 0B48     		ldr	r0, .L3
  61 001a FFF7FEFF 		bl	GetBluetoothString
  43:.\main.c      ****         
  44:.\main.c      ****         LCD_Char_1_Position(0u, 0);
  62              		.loc 1 44 0 discriminator 1
  63 001e 0020     		movs	r0, #0
  64 0020 0021     		movs	r1, #0
  65 0022 FFF7FEFF 		bl	LCD_Char_1_Position
  45:.\main.c      ****         LCD_Char_1_PrintString("                ");
ARM GAS  C:\Users\kingi\AppData\Local\Temp\ccTnDUzX.s 			page 3


  66              		.loc 1 45 0 discriminator 1
  67 0026 0948     		ldr	r0, .L3+4
  68 0028 FFF7FEFF 		bl	LCD_Char_1_PrintString
  46:.\main.c      ****         CyDelay(5);
  69              		.loc 1 46 0 discriminator 1
  70 002c 0520     		movs	r0, #5
  71 002e FFF7FEFF 		bl	CyDelay
  47:.\main.c      ****         LCD_Char_1_Position(0u, 0);
  72              		.loc 1 47 0 discriminator 1
  73 0032 0020     		movs	r0, #0
  74 0034 0021     		movs	r1, #0
  75 0036 FFF7FEFF 		bl	LCD_Char_1_Position
  48:.\main.c      ****         LCD_Char_1_PrintString(buffer); 
  76              		.loc 1 48 0 discriminator 1
  77 003a 0348     		ldr	r0, .L3
  78 003c FFF7FEFF 		bl	LCD_Char_1_PrintString
  49:.\main.c      ****         CyDelay(20);
  79              		.loc 1 49 0 discriminator 1
  80 0040 1420     		movs	r0, #20
  81 0042 FFF7FEFF 		bl	CyDelay
  50:.\main.c      ****         
  51:.\main.c      ****     }
  82              		.loc 1 51 0 discriminator 1
  83 0046 E7E7     		b	.L2
  84              	.L4:
  85              		.align	2
  86              	.L3:
  87 0048 00000000 		.word	buffer
  88 004c 00000000 		.word	.LC0
  89              		.cfi_endproc
  90              	.LFE63:
  91              		.size	main, .-main
  92              		.text
  93              	.Letext0:
  94              		.file 2 "c:\\program files (x86)\\cypress\\psoc creator\\3.3\\psoc creator\\import\\gnu\\arm\\4.9.
  95              		.file 3 "c:\\program files (x86)\\cypress\\psoc creator\\3.3\\psoc creator\\import\\gnu\\arm\\4.9.
  96              		.file 4 "Generated_Source\\PSoC5/cytypes.h"
  97              		.file 5 "Generated_Source\\PSoC5/core_cm3.h"
  98              		.file 6 ".\\Bluetooth.h"